
Build/test.elf:     file format elf32-littlearm


Disassembly of section .init:

000103dc <_init>:
   103dc:	e92d4008 	push	{r3, lr}
   103e0:	eb00003b 	bl	104d4 <call_weak_fn>
   103e4:	e8bd8008 	pop	{r3, pc}

Disassembly of section .plt:

000103e8 <.plt>:
   103e8:	e52de004 	push	{lr}		; (str lr, [sp, #-4]!)
   103ec:	e59fe004 	ldr	lr, [pc, #4]	; 103f8 <.plt+0x10>
   103f0:	e08fe00e 	add	lr, pc, lr
   103f4:	e5bef008 	ldr	pc, [lr, #8]!
   103f8:	0001dc08 	.word	0x0001dc08

000103fc <raise@plt>:
   103fc:	e28fc600 	add	ip, pc, #0, 12
   10400:	e28cca1d 	add	ip, ip, #118784	; 0x1d000
   10404:	e5bcfc08 	ldr	pc, [ip, #3080]!	; 0xc08

00010408 <printf@plt>:
   10408:	e28fc600 	add	ip, pc, #0, 12
   1040c:	e28cca1d 	add	ip, ip, #118784	; 0x1d000
   10410:	e5bcfc00 	ldr	pc, [ip, #3072]!	; 0xc00

00010414 <free@plt>:
   10414:	e28fc600 	add	ip, pc, #0, 12
   10418:	e28cca1d 	add	ip, ip, #118784	; 0x1d000
   1041c:	e5bcfbf8 	ldr	pc, [ip, #3064]!	; 0xbf8

00010420 <clock_gettime@plt>:
   10420:	e28fc600 	add	ip, pc, #0, 12
   10424:	e28cca1d 	add	ip, ip, #118784	; 0x1d000
   10428:	e5bcfbf0 	ldr	pc, [ip, #3056]!	; 0xbf0

0001042c <memcpy@plt>:
   1042c:	e28fc600 	add	ip, pc, #0, 12
   10430:	e28cca1d 	add	ip, ip, #118784	; 0x1d000
   10434:	e5bcfbe8 	ldr	pc, [ip, #3048]!	; 0xbe8

00010438 <memcmp@plt>:
   10438:	e28fc600 	add	ip, pc, #0, 12
   1043c:	e28cca1d 	add	ip, ip, #118784	; 0x1d000
   10440:	e5bcfbe0 	ldr	pc, [ip, #3040]!	; 0xbe0

00010444 <malloc@plt>:
   10444:	e28fc600 	add	ip, pc, #0, 12
   10448:	e28cca1d 	add	ip, ip, #118784	; 0x1d000
   1044c:	e5bcfbd8 	ldr	pc, [ip, #3032]!	; 0xbd8

00010450 <__gmon_start__@plt>:
   10450:	e28fc600 	add	ip, pc, #0, 12
   10454:	e28cca1d 	add	ip, ip, #118784	; 0x1d000
   10458:	e5bcfbd0 	ldr	pc, [ip, #3024]!	; 0xbd0

0001045c <strlen@plt>:
   1045c:	e28fc600 	add	ip, pc, #0, 12
   10460:	e28cca1d 	add	ip, ip, #118784	; 0x1d000
   10464:	e5bcfbc8 	ldr	pc, [ip, #3016]!	; 0xbc8

00010468 <memset@plt>:
   10468:	e28fc600 	add	ip, pc, #0, 12
   1046c:	e28cca1d 	add	ip, ip, #118784	; 0x1d000
   10470:	e5bcfbc0 	ldr	pc, [ip, #3008]!	; 0xbc0

Disassembly of section .text:

00010478 <main>:
   10478:	b510      	push	{r4, lr}
   1047a:	4c10      	ldr	r4, [pc, #64]	; (104bc <main+0x44>)
   1047c:	4620      	mov	r0, r4
   1047e:	f7ff efc4 	blx	10408 <printf@plt>
   10482:	480f      	ldr	r0, [pc, #60]	; (104c0 <main+0x48>)
   10484:	f7ff efc0 	blx	10408 <printf@plt>
   10488:	490e      	ldr	r1, [pc, #56]	; (104c4 <main+0x4c>)
   1048a:	2210      	movs	r2, #16
   1048c:	f44f 6040 	mov.w	r0, #3072	; 0xc00
   10490:	f000 f87a 	bl	10588 <test_RSA>
   10494:	480c      	ldr	r0, [pc, #48]	; (104c8 <main+0x50>)
   10496:	f7ff efb8 	blx	10408 <printf@plt>
   1049a:	4620      	mov	r0, r4
   1049c:	f7ff efb4 	blx	10408 <printf@plt>
   104a0:	480a      	ldr	r0, [pc, #40]	; (104cc <main+0x54>)
   104a2:	f7ff efb2 	blx	10408 <printf@plt>
   104a6:	4907      	ldr	r1, [pc, #28]	; (104c4 <main+0x4c>)
   104a8:	2210      	movs	r2, #16
   104aa:	f44f 6000 	mov.w	r0, #2048	; 0x800
   104ae:	f000 f86b 	bl	10588 <test_RSA>
   104b2:	4807      	ldr	r0, [pc, #28]	; (104d0 <main+0x58>)
   104b4:	f7ff efa8 	blx	10408 <printf@plt>
   104b8:	2000      	movs	r0, #0
   104ba:	bd10      	pop	{r4, pc}
   104bc:	0001ca23 	.word	0x0001ca23
   104c0:	0001ca3c 	.word	0x0001ca3c
   104c4:	0002e038 	.word	0x0002e038
   104c8:	0001ca56 	.word	0x0001ca56
   104cc:	0001ca70 	.word	0x0001ca70
   104d0:	0001ca8a 	.word	0x0001ca8a

000104d4 <call_weak_fn>:
   104d4:	e59f3014 	ldr	r3, [pc, #20]	; 104f0 <call_weak_fn+0x1c>
   104d8:	e59f2014 	ldr	r2, [pc, #20]	; 104f4 <call_weak_fn+0x20>
   104dc:	e08f3003 	add	r3, pc, r3
   104e0:	e7932002 	ldr	r2, [r3, r2]
   104e4:	e3520000 	cmp	r2, #0
   104e8:	012fff1e 	bxeq	lr
   104ec:	eaffffd7 	b	10450 <__gmon_start__@plt>
   104f0:	0001db1c 	.word	0x0001db1c
   104f4:	00000034 	.word	0x00000034

000104f8 <deregister_tm_clones>:
   104f8:	e59f0018 	ldr	r0, [pc, #24]	; 10518 <deregister_tm_clones+0x20>
   104fc:	e59f3018 	ldr	r3, [pc, #24]	; 1051c <deregister_tm_clones+0x24>
   10500:	e1530000 	cmp	r3, r0
   10504:	012fff1e 	bxeq	lr
   10508:	e59f3010 	ldr	r3, [pc, #16]	; 10520 <deregister_tm_clones+0x28>
   1050c:	e3530000 	cmp	r3, #0
   10510:	012fff1e 	bxeq	lr
   10514:	e12fff13 	bx	r3
   10518:	0002e048 	.word	0x0002e048
   1051c:	0002e048 	.word	0x0002e048
   10520:	00000000 	.word	0x00000000

00010524 <register_tm_clones>:
   10524:	e59f0024 	ldr	r0, [pc, #36]	; 10550 <register_tm_clones+0x2c>
   10528:	e59f1024 	ldr	r1, [pc, #36]	; 10554 <register_tm_clones+0x30>
   1052c:	e0413000 	sub	r3, r1, r0
   10530:	e1a01fa3 	lsr	r1, r3, #31
   10534:	e0811143 	add	r1, r1, r3, asr #2
   10538:	e1b010c1 	asrs	r1, r1, #1
   1053c:	012fff1e 	bxeq	lr
   10540:	e59f3010 	ldr	r3, [pc, #16]	; 10558 <register_tm_clones+0x34>
   10544:	e3530000 	cmp	r3, #0
   10548:	012fff1e 	bxeq	lr
   1054c:	e12fff13 	bx	r3
   10550:	0002e048 	.word	0x0002e048
   10554:	0002e048 	.word	0x0002e048
   10558:	00000000 	.word	0x00000000

0001055c <__do_global_dtors_aux>:
   1055c:	e92d4010 	push	{r4, lr}
   10560:	e59f4018 	ldr	r4, [pc, #24]	; 10580 <__do_global_dtors_aux+0x24>
   10564:	e5d43000 	ldrb	r3, [r4]
   10568:	e3530000 	cmp	r3, #0
   1056c:	18bd8010 	popne	{r4, pc}
   10570:	ebffffe0 	bl	104f8 <deregister_tm_clones>
   10574:	e3a03001 	mov	r3, #1
   10578:	e5c43000 	strb	r3, [r4]
   1057c:	e8bd8010 	pop	{r4, pc}
   10580:	0002e048 	.word	0x0002e048

00010584 <frame_dummy>:
   10584:	eaffffe6 	b	10524 <register_tm_clones>

00010588 <test_RSA>:
   10588:	b5f0      	push	{r4, r5, r6, r7, lr}
   1058a:	4607      	mov	r7, r0
   1058c:	460d      	mov	r5, r1
   1058e:	4616      	mov	r6, r2
   10590:	2100      	movs	r1, #0
   10592:	f44f 7200 	mov.w	r2, #512	; 0x200
   10596:	ed2d 8b04 	vpush	{d8-d9}
   1059a:	f5ad 5de6 	sub.w	sp, sp, #7360	; 0x1cc0
   1059e:	b085      	sub	sp, #20
   105a0:	a80d      	add	r0, sp, #52	; 0x34
   105a2:	f7ff ef62 	blx	10468 <memset@plt>
   105a6:	f44f 7200 	mov.w	r2, #512	; 0x200
   105aa:	2100      	movs	r1, #0
   105ac:	a88d      	add	r0, sp, #564	; 0x234
   105ae:	f7ff ef5c 	blx	10468 <memset@plt>
   105b2:	a809      	add	r0, sp, #36	; 0x24
   105b4:	f000 fd82 	bl	110bc <wc_InitRng>
   105b8:	f110 0f7d 	cmn.w	r0, #125	; 0x7d
   105bc:	4603      	mov	r3, r0
   105be:	f000 814a 	beq.w	10856 <test_RSA+0x2ce>
   105c2:	f110 0f7c 	cmn.w	r0, #124	; 0x7c
   105c6:	f280 813e 	bge.w	10846 <test_RSA+0x2be>
   105ca:	f110 0fc7 	cmn.w	r0, #199	; 0xc7
   105ce:	f000 814c 	beq.w	1086a <test_RSA+0x2e2>
   105d2:	f110 0fad 	cmn.w	r0, #173	; 0xad
   105d6:	f000 8144 	beq.w	10862 <test_RSA+0x2da>
   105da:	33d1      	adds	r3, #209	; 0xd1
   105dc:	f000 8143 	beq.w	10866 <test_RSA+0x2de>
   105e0:	f20d 4434 	addw	r4, sp, #1076	; 0x434
   105e4:	2100      	movs	r1, #0
   105e6:	4620      	mov	r0, r4
   105e8:	f000 ff45 	bl	11476 <wc_InitRsaKey>
   105ec:	f110 0fad 	cmn.w	r0, #173	; 0xad
   105f0:	f000 813d 	beq.w	1086e <test_RSA+0x2e6>
   105f4:	307d      	adds	r0, #125	; 0x7d
   105f6:	f000 813e 	beq.w	10876 <test_RSA+0x2ee>
   105fa:	a909      	add	r1, sp, #36	; 0x24
   105fc:	4620      	mov	r0, r4
   105fe:	f001 ffa2 	bl	12546 <wc_RsaSetRNG>
   10602:	b110      	cbz	r0, 1060a <test_RSA+0x82>
   10604:	48b8      	ldr	r0, [pc, #736]	; (108e8 <test_RSA+0x360>)
   10606:	f7ff ef00 	blx	10408 <printf@plt>
   1060a:	a905      	add	r1, sp, #20
   1060c:	2001      	movs	r0, #1
   1060e:	f7ff ef08 	blx	10420 <clock_gettime@plt>
   10612:	ab09      	add	r3, sp, #36	; 0x24
   10614:	f04f 1201 	mov.w	r2, #65537	; 0x10001
   10618:	4639      	mov	r1, r7
   1061a:	4620      	mov	r0, r4
   1061c:	f001 fd3b 	bl	12096 <wc_MakeRsaKey>
   10620:	f110 0f6d 	cmn.w	r0, #109	; 0x6d
   10624:	da0a      	bge.n	1063c <test_RSA+0xb4>
   10626:	f110 0f78 	cmn.w	r0, #120	; 0x78
   1062a:	f280 8126 	bge.w	1087a <test_RSA+0x2f2>
   1062e:	f110 0fc7 	cmn.w	r0, #199	; 0xc7
   10632:	f000 8145 	beq.w	108c0 <test_RSA+0x338>
   10636:	30ad      	adds	r0, #173	; 0xad
   10638:	f000 813e 	beq.w	108b8 <test_RSA+0x330>
   1063c:	ab07      	add	r3, sp, #28
   1063e:	2001      	movs	r0, #1
   10640:	ed9f 9ba5 	vldr	d9, [pc, #660]	; 108d8 <test_RSA+0x350>
   10644:	4619      	mov	r1, r3
   10646:	9303      	str	r3, [sp, #12]
   10648:	f7ff eeea 	blx	10420 <clock_gettime@plt>
   1064c:	f50d 634d 	add.w	r3, sp, #3280	; 0xcd0
   10650:	a907      	add	r1, sp, #28
   10652:	ed9f 8ba3 	vldr	d8, [pc, #652]	; 108e0 <test_RSA+0x358>
   10656:	f6a3 42bc 	subw	r2, r3, #3260	; 0xcbc
   1065a:	e9d2 0200 	ldrd	r0, r2, [r2]
   1065e:	680b      	ldr	r3, [r1, #0]
   10660:	1a1b      	subs	r3, r3, r0
   10662:	48a2      	ldr	r0, [pc, #648]	; (108ec <test_RSA+0x364>)
   10664:	ee07 3a90 	vmov	s15, r3
   10668:	684b      	ldr	r3, [r1, #4]
   1066a:	1a9b      	subs	r3, r3, r2
   1066c:	ee07 3a10 	vmov	s14, r3
   10670:	eeb8 6be7 	vcvt.f64.s32	d6, s15
   10674:	eeb8 7bc7 	vcvt.f64.s32	d7, s14
   10678:	ee06 7b09 	vmla.f64	d7, d6, d9
   1067c:	ee27 7b08 	vmul.f64	d7, d7, d8
   10680:	ec53 2b17 	vmov	r2, r3, d7
   10684:	f7ff eec0 	blx	10408 <printf@plt>
   10688:	a905      	add	r1, sp, #20
   1068a:	2001      	movs	r0, #1
   1068c:	f7ff eec8 	blx	10420 <clock_gettime@plt>
   10690:	ab09      	add	r3, sp, #36	; 0x24
   10692:	aa0d      	add	r2, sp, #52	; 0x34
   10694:	4631      	mov	r1, r6
   10696:	4628      	mov	r0, r5
   10698:	e9cd 4300 	strd	r4, r3, [sp]
   1069c:	f44f 7300 	mov.w	r3, #512	; 0x200
   106a0:	f001 fc83 	bl	11faa <wc_RsaSSL_Sign>
   106a4:	1e07      	subs	r7, r0, #0
   106a6:	da03      	bge.n	106b0 <test_RSA+0x128>
   106a8:	4891      	ldr	r0, [pc, #580]	; (108f0 <test_RSA+0x368>)
   106aa:	4639      	mov	r1, r7
   106ac:	f7ff eeac 	blx	10408 <printf@plt>
   106b0:	2001      	movs	r0, #1
   106b2:	9903      	ldr	r1, [sp, #12]
   106b4:	f7ff eeb4 	blx	10420 <clock_gettime@plt>
   106b8:	f50d 634d 	add.w	r3, sp, #3280	; 0xcd0
   106bc:	a907      	add	r1, sp, #28
   106be:	f6a3 42bc 	subw	r2, r3, #3260	; 0xcbc
   106c2:	e9d2 0200 	ldrd	r0, r2, [r2]
   106c6:	680b      	ldr	r3, [r1, #0]
   106c8:	1a1b      	subs	r3, r3, r0
   106ca:	488a      	ldr	r0, [pc, #552]	; (108f4 <test_RSA+0x36c>)
   106cc:	ee07 3a90 	vmov	s15, r3
   106d0:	684b      	ldr	r3, [r1, #4]
   106d2:	1a9b      	subs	r3, r3, r2
   106d4:	ee07 3a10 	vmov	s14, r3
   106d8:	eeb8 6be7 	vcvt.f64.s32	d6, s15
   106dc:	eeb8 7bc7 	vcvt.f64.s32	d7, s14
   106e0:	ee06 7b09 	vmla.f64	d7, d6, d9
   106e4:	ee27 7b08 	vmul.f64	d7, d7, d8
   106e8:	ec53 2b17 	vmov	r2, r3, d7
   106ec:	f7ff ee8c 	blx	10408 <printf@plt>
   106f0:	a905      	add	r1, sp, #20
   106f2:	2001      	movs	r0, #1
   106f4:	f7ff ee94 	blx	10420 <clock_gettime@plt>
   106f8:	4639      	mov	r1, r7
   106fa:	f44f 7300 	mov.w	r3, #512	; 0x200
   106fe:	9400      	str	r4, [sp, #0]
   10700:	aa8d      	add	r2, sp, #564	; 0x234
   10702:	a80d      	add	r0, sp, #52	; 0x34
   10704:	f001 fbbd 	bl	11e82 <wc_RsaSSL_Verify>
   10708:	1e01      	subs	r1, r0, #0
   1070a:	da02      	bge.n	10712 <test_RSA+0x18a>
   1070c:	487a      	ldr	r0, [pc, #488]	; (108f8 <test_RSA+0x370>)
   1070e:	f7ff ee7c 	blx	10408 <printf@plt>
   10712:	2001      	movs	r0, #1
   10714:	9903      	ldr	r1, [sp, #12]
   10716:	f7ff ee84 	blx	10420 <clock_gettime@plt>
   1071a:	f50d 634d 	add.w	r3, sp, #3280	; 0xcd0
   1071e:	a907      	add	r1, sp, #28
   10720:	f6a3 42bc 	subw	r2, r3, #3260	; 0xcbc
   10724:	e9d2 0200 	ldrd	r0, r2, [r2]
   10728:	680b      	ldr	r3, [r1, #0]
   1072a:	1a1b      	subs	r3, r3, r0
   1072c:	4873      	ldr	r0, [pc, #460]	; (108fc <test_RSA+0x374>)
   1072e:	ee07 3a90 	vmov	s15, r3
   10732:	684b      	ldr	r3, [r1, #4]
   10734:	1a9b      	subs	r3, r3, r2
   10736:	ee07 3a10 	vmov	s14, r3
   1073a:	eeb8 6be7 	vcvt.f64.s32	d6, s15
   1073e:	eeb8 7bc7 	vcvt.f64.s32	d7, s14
   10742:	ee06 7b09 	vmla.f64	d7, d6, d9
   10746:	ee27 7b08 	vmul.f64	d7, d7, d8
   1074a:	ec53 2b17 	vmov	r2, r3, d7
   1074e:	f7ff ee5c 	blx	10408 <printf@plt>
   10752:	f44f 7200 	mov.w	r2, #512	; 0x200
   10756:	2100      	movs	r1, #0
   10758:	a80d      	add	r0, sp, #52	; 0x34
   1075a:	f7ff ee86 	blx	10468 <memset@plt>
   1075e:	f44f 7200 	mov.w	r2, #512	; 0x200
   10762:	2100      	movs	r1, #0
   10764:	a88d      	add	r0, sp, #564	; 0x234
   10766:	f7ff ee80 	blx	10468 <memset@plt>
   1076a:	a905      	add	r1, sp, #20
   1076c:	2001      	movs	r0, #1
   1076e:	f7ff ee58 	blx	10420 <clock_gettime@plt>
   10772:	ab09      	add	r3, sp, #36	; 0x24
   10774:	4628      	mov	r0, r5
   10776:	aa0d      	add	r2, sp, #52	; 0x34
   10778:	4631      	mov	r1, r6
   1077a:	e9cd 4300 	strd	r4, r3, [sp]
   1077e:	f44f 7300 	mov.w	r3, #512	; 0x200
   10782:	f001 fc75 	bl	12070 <wc_RsaPublicEncrypt>
   10786:	1e05      	subs	r5, r0, #0
   10788:	da03      	bge.n	10792 <test_RSA+0x20a>
   1078a:	485d      	ldr	r0, [pc, #372]	; (10900 <test_RSA+0x378>)
   1078c:	4629      	mov	r1, r5
   1078e:	f7ff ee3c 	blx	10408 <printf@plt>
   10792:	2001      	movs	r0, #1
   10794:	9903      	ldr	r1, [sp, #12]
   10796:	f7ff ee44 	blx	10420 <clock_gettime@plt>
   1079a:	f50d 634d 	add.w	r3, sp, #3280	; 0xcd0
   1079e:	a907      	add	r1, sp, #28
   107a0:	f6a3 42bc 	subw	r2, r3, #3260	; 0xcbc
   107a4:	e9d2 0200 	ldrd	r0, r2, [r2]
   107a8:	680b      	ldr	r3, [r1, #0]
   107aa:	1a1b      	subs	r3, r3, r0
   107ac:	4855      	ldr	r0, [pc, #340]	; (10904 <test_RSA+0x37c>)
   107ae:	ee07 3a90 	vmov	s15, r3
   107b2:	684b      	ldr	r3, [r1, #4]
   107b4:	1a9b      	subs	r3, r3, r2
   107b6:	ee07 3a10 	vmov	s14, r3
   107ba:	eeb8 6be7 	vcvt.f64.s32	d6, s15
   107be:	eeb8 7bc7 	vcvt.f64.s32	d7, s14
   107c2:	ee06 7b09 	vmla.f64	d7, d6, d9
   107c6:	ee27 7b08 	vmul.f64	d7, d7, d8
   107ca:	ec53 2b17 	vmov	r2, r3, d7
   107ce:	f7ff ee1c 	blx	10408 <printf@plt>
   107d2:	a905      	add	r1, sp, #20
   107d4:	2001      	movs	r0, #1
   107d6:	f7ff ee24 	blx	10420 <clock_gettime@plt>
   107da:	4629      	mov	r1, r5
   107dc:	f44f 7300 	mov.w	r3, #512	; 0x200
   107e0:	9400      	str	r4, [sp, #0]
   107e2:	aa8d      	add	r2, sp, #564	; 0x234
   107e4:	a80d      	add	r0, sp, #52	; 0x34
   107e6:	f001 fae7 	bl	11db8 <wc_RsaPrivateDecrypt>
   107ea:	1e01      	subs	r1, r0, #0
   107ec:	da02      	bge.n	107f4 <test_RSA+0x26c>
   107ee:	4846      	ldr	r0, [pc, #280]	; (10908 <test_RSA+0x380>)
   107f0:	f7ff ee0a 	blx	10408 <printf@plt>
   107f4:	2001      	movs	r0, #1
   107f6:	9903      	ldr	r1, [sp, #12]
   107f8:	f7ff ee12 	blx	10420 <clock_gettime@plt>
   107fc:	f50d 634d 	add.w	r3, sp, #3280	; 0xcd0
   10800:	a907      	add	r1, sp, #28
   10802:	f6a3 43bc 	subw	r3, r3, #3260	; 0xcbc
   10806:	e9d3 0300 	ldrd	r0, r3, [r3]
   1080a:	680a      	ldr	r2, [r1, #0]
   1080c:	1a12      	subs	r2, r2, r0
   1080e:	483f      	ldr	r0, [pc, #252]	; (1090c <test_RSA+0x384>)
   10810:	ee07 2a90 	vmov	s15, r2
   10814:	684a      	ldr	r2, [r1, #4]
   10816:	1ad3      	subs	r3, r2, r3
   10818:	ee07 3a10 	vmov	s14, r3
   1081c:	eeb8 6be7 	vcvt.f64.s32	d6, s15
   10820:	eeb8 7bc7 	vcvt.f64.s32	d7, s14
   10824:	ee06 7b09 	vmla.f64	d7, d6, d9
   10828:	ee27 7b08 	vmul.f64	d7, d7, d8
   1082c:	ec53 2b17 	vmov	r2, r3, d7
   10830:	f7ff edea 	blx	10408 <printf@plt>
   10834:	4620      	mov	r0, r4
   10836:	f000 fe22 	bl	1147e <wc_FreeRsaKey>
   1083a:	f50d 5de6 	add.w	sp, sp, #7360	; 0x1cc0
   1083e:	b005      	add	sp, #20
   10840:	ecbd 8b04 	vpop	{d8-d9}
   10844:	bdf0      	pop	{r4, r5, r6, r7, pc}
   10846:	f110 0f68 	cmn.w	r0, #104	; 0x68
   1084a:	d008      	beq.n	1085e <test_RSA+0x2d6>
   1084c:	3367      	adds	r3, #103	; 0x67
   1084e:	f47f aec7 	bne.w	105e0 <test_RSA+0x58>
   10852:	482f      	ldr	r0, [pc, #188]	; (10910 <test_RSA+0x388>)
   10854:	e000      	b.n	10858 <test_RSA+0x2d0>
   10856:	482f      	ldr	r0, [pc, #188]	; (10914 <test_RSA+0x38c>)
   10858:	f7ff edd6 	blx	10408 <printf@plt>
   1085c:	e6c0      	b.n	105e0 <test_RSA+0x58>
   1085e:	482e      	ldr	r0, [pc, #184]	; (10918 <test_RSA+0x390>)
   10860:	e7fa      	b.n	10858 <test_RSA+0x2d0>
   10862:	482e      	ldr	r0, [pc, #184]	; (1091c <test_RSA+0x394>)
   10864:	e7f8      	b.n	10858 <test_RSA+0x2d0>
   10866:	482e      	ldr	r0, [pc, #184]	; (10920 <test_RSA+0x398>)
   10868:	e7f6      	b.n	10858 <test_RSA+0x2d0>
   1086a:	482e      	ldr	r0, [pc, #184]	; (10924 <test_RSA+0x39c>)
   1086c:	e7f4      	b.n	10858 <test_RSA+0x2d0>
   1086e:	482e      	ldr	r0, [pc, #184]	; (10928 <test_RSA+0x3a0>)
   10870:	f7ff edca 	blx	10408 <printf@plt>
   10874:	e6c1      	b.n	105fa <test_RSA+0x72>
   10876:	4827      	ldr	r0, [pc, #156]	; (10914 <test_RSA+0x38c>)
   10878:	e7fa      	b.n	10870 <test_RSA+0x2e8>
   1087a:	f100 0378 	add.w	r3, r0, #120	; 0x78
   1087e:	2b0a      	cmp	r3, #10
   10880:	f63f aedc 	bhi.w	1063c <test_RSA+0xb4>
   10884:	a201      	add	r2, pc, #4	; (adr r2, 1088c <test_RSA+0x304>)
   10886:	f852 f023 	ldr.w	pc, [r2, r3, lsl #2]
   1088a:	bf00      	nop
   1088c:	000108cd 	.word	0x000108cd
   10890:	000108d1 	.word	0x000108d1
   10894:	0001063d 	.word	0x0001063d
   10898:	0001063d 	.word	0x0001063d
   1089c:	0001063d 	.word	0x0001063d
   108a0:	0001063d 	.word	0x0001063d
   108a4:	0001063d 	.word	0x0001063d
   108a8:	0001063d 	.word	0x0001063d
   108ac:	000108d5 	.word	0x000108d5
   108b0:	000108c9 	.word	0x000108c9
   108b4:	000108c5 	.word	0x000108c5
   108b8:	481b      	ldr	r0, [pc, #108]	; (10928 <test_RSA+0x3a0>)
   108ba:	f7ff eda6 	blx	10408 <printf@plt>
   108be:	e6bd      	b.n	1063c <test_RSA+0xb4>
   108c0:	4818      	ldr	r0, [pc, #96]	; (10924 <test_RSA+0x39c>)
   108c2:	e7fa      	b.n	108ba <test_RSA+0x332>
   108c4:	4819      	ldr	r0, [pc, #100]	; (1092c <test_RSA+0x3a4>)
   108c6:	e7f8      	b.n	108ba <test_RSA+0x332>
   108c8:	4819      	ldr	r0, [pc, #100]	; (10930 <test_RSA+0x3a8>)
   108ca:	e7f6      	b.n	108ba <test_RSA+0x332>
   108cc:	4819      	ldr	r0, [pc, #100]	; (10934 <test_RSA+0x3ac>)
   108ce:	e7f4      	b.n	108ba <test_RSA+0x332>
   108d0:	4819      	ldr	r0, [pc, #100]	; (10938 <test_RSA+0x3b0>)
   108d2:	e7f2      	b.n	108ba <test_RSA+0x332>
   108d4:	4819      	ldr	r0, [pc, #100]	; (1093c <test_RSA+0x3b4>)
   108d6:	e7f0      	b.n	108ba <test_RSA+0x332>
   108d8:	00000000 	.word	0x00000000
   108dc:	41cdcd65 	.word	0x41cdcd65
   108e0:	e826d695 	.word	0xe826d695
   108e4:	3e112e0b 	.word	0x3e112e0b
   108e8:	0001c907 	.word	0x0001c907
   108ec:	0001c952 	.word	0x0001c952
   108f0:	0001c974 	.word	0x0001c974
   108f4:	0001c97e 	.word	0x0001c97e
   108f8:	0001c99b 	.word	0x0001c99b
   108fc:	0001c9a5 	.word	0x0001c9a5
   10900:	0001c9c4 	.word	0x0001c9c4
   10904:	0001c9ce 	.word	0x0001c9ce
   10908:	0001c9f3 	.word	0x0001c9f3
   1090c:	0001c9fd 	.word	0x0001c9fd
   10910:	0001c8b2 	.word	0x0001c8b2
   10914:	0001c8a8 	.word	0x0001c8a8
   10918:	0001c8be 	.word	0x0001c8be
   1091c:	0001c8ca 	.word	0x0001c8ca
   10920:	0001c8d8 	.word	0x0001c8d8
   10924:	0001c8ea 	.word	0x0001c8ea
   10928:	0001c8f9 	.word	0x0001c8f9
   1092c:	0001c917 	.word	0x0001c917
   10930:	0001c922 	.word	0x0001c922
   10934:	0001c92d 	.word	0x0001c92d
   10938:	0001c937 	.word	0x0001c937
   1093c:	0001c944 	.word	0x0001c944

00010940 <hw_rand>:
   10940:	4b02      	ldr	r3, [pc, #8]	; (1094c <hw_rand+0xc>)
   10942:	6818      	ldr	r0, [r3, #0]
   10944:	3001      	adds	r0, #1
   10946:	6018      	str	r0, [r3, #0]
   10948:	4770      	bx	lr
   1094a:	bf00      	nop
   1094c:	0002e04c 	.word	0x0002e04c

00010950 <my_rng_seed_gen>:
   10950:	f7ff bff6 	b.w	10940 <hw_rand>

00010954 <reset_handler>:
   10954:	b508      	push	{r3, lr}
   10956:	f7ff fd8f 	bl	10478 <main>
   1095a:	e7fe      	b.n	1095a <reset_handler+0x6>

0001095c <ForceZero>:
   1095c:	4401      	add	r1, r0
   1095e:	2300      	movs	r3, #0
   10960:	4288      	cmp	r0, r1
   10962:	d100      	bne.n	10966 <ForceZero+0xa>
   10964:	4770      	bx	lr
   10966:	f800 3b01 	strb.w	r3, [r0], #1
   1096a:	e7f9      	b.n	10960 <ForceZero+0x4>

0001096c <ConstantCompare>:
   1096c:	b570      	push	{r4, r5, r6, lr}
   1096e:	4604      	mov	r4, r0
   10970:	2000      	movs	r0, #0
   10972:	4603      	mov	r3, r0
   10974:	4293      	cmp	r3, r2
   10976:	db00      	blt.n	1097a <ConstantCompare+0xe>
   10978:	bd70      	pop	{r4, r5, r6, pc}
   1097a:	5ce5      	ldrb	r5, [r4, r3]
   1097c:	5cce      	ldrb	r6, [r1, r3]
   1097e:	3301      	adds	r3, #1
   10980:	4075      	eors	r5, r6
   10982:	4328      	orrs	r0, r5
   10984:	e7f6      	b.n	10974 <ConstantCompare+0x8>

00010986 <Hash_DRBG_Uninstantiate>:
   10986:	4602      	mov	r2, r0
   10988:	b508      	push	{r3, lr}
   1098a:	2178      	movs	r1, #120	; 0x78
   1098c:	f7ff ffe6 	bl	1095c <ForceZero>
   10990:	1e53      	subs	r3, r2, #1
   10992:	2000      	movs	r0, #0
   10994:	3277      	adds	r2, #119	; 0x77
   10996:	f813 1f01 	ldrb.w	r1, [r3, #1]!
   1099a:	4293      	cmp	r3, r2
   1099c:	ea40 0001 	orr.w	r0, r0, r1
   109a0:	d1f9      	bne.n	10996 <Hash_DRBG_Uninstantiate+0x10>
   109a2:	3800      	subs	r0, #0
   109a4:	bf18      	it	ne
   109a6:	2001      	movne	r0, #1
   109a8:	bd08      	pop	{r3, pc}

000109aa <array_add.part.0.constprop.0>:
   109aa:	b5f0      	push	{r4, r5, r6, r7, lr}
   109ac:	2300      	movs	r3, #0
   109ae:	1e54      	subs	r4, r2, #1
   109b0:	f100 0537 	add.w	r5, r0, #55	; 0x37
   109b4:	5d0f      	ldrb	r7, [r1, r4]
   109b6:	3c01      	subs	r4, #1
   109b8:	f815 6d01 	ldrb.w	r6, [r5, #-1]!
   109bc:	443e      	add	r6, r7
   109be:	4433      	add	r3, r6
   109c0:	1c66      	adds	r6, r4, #1
   109c2:	702b      	strb	r3, [r5, #0]
   109c4:	f3c3 230f 	ubfx	r3, r3, #8, #16
   109c8:	d1f4      	bne.n	109b4 <array_add.part.0.constprop.0+0xa>
   109ca:	f1c2 0136 	rsb	r1, r2, #54	; 0x36
   109ce:	3a02      	subs	r2, #2
   109d0:	3201      	adds	r2, #1
   109d2:	bfb8      	it	lt
   109d4:	2135      	movlt	r1, #53	; 0x35
   109d6:	1842      	adds	r2, r0, r1
   109d8:	b113      	cbz	r3, 109e0 <array_add.part.0.constprop.0+0x36>
   109da:	1a13      	subs	r3, r2, r0
   109dc:	2b00      	cmp	r3, #0
   109de:	da00      	bge.n	109e2 <array_add.part.0.constprop.0+0x38>
   109e0:	bdf0      	pop	{r4, r5, r6, r7, pc}
   109e2:	7813      	ldrb	r3, [r2, #0]
   109e4:	1c59      	adds	r1, r3, #1
   109e6:	0a0b      	lsrs	r3, r1, #8
   109e8:	f802 1901 	strb.w	r1, [r2], #-1
   109ec:	e7f4      	b.n	109d8 <array_add.part.0.constprop.0+0x2e>
	...

000109f0 <Hash_DRBG_Generate>:
   109f0:	e92d 4ff0 	stmdb	sp!, {r4, r5, r6, r7, r8, r9, sl, fp, lr}
   109f4:	468a      	mov	sl, r1
   109f6:	b0b7      	sub	sp, #220	; 0xdc
   109f8:	4605      	mov	r5, r0
   109fa:	2800      	cmp	r0, #0
   109fc:	f000 80c2 	beq.w	10b84 <Hash_DRBG_Generate+0x194>
   10a00:	4963      	ldr	r1, [pc, #396]	; (10b90 <Hash_DRBG_Generate+0x1a0>)
   10a02:	6803      	ldr	r3, [r0, #0]
   10a04:	428b      	cmp	r3, r1
   10a06:	f000 80bf 	beq.w	10b88 <Hash_DRBG_Generate+0x198>
   10a0a:	2a01      	cmp	r2, #1
   10a0c:	f04f 0103 	mov.w	r1, #3
   10a10:	bf38      	it	cc
   10a12:	2201      	movcc	r2, #1
   10a14:	f100 0708 	add.w	r7, r0, #8
   10a18:	f012 091f 	ands.w	r9, r2, #31
   10a1c:	ae0c      	add	r6, sp, #48	; 0x30
   10a1e:	f88d 1007 	strb.w	r1, [sp, #7]
   10a22:	bf18      	it	ne
   10a24:	f04f 0901 	movne.w	r9, #1
   10a28:	4690      	mov	r8, r2
   10a2a:	9302      	str	r3, [sp, #8]
   10a2c:	eb09 1952 	add.w	r9, r9, r2, lsr #5
   10a30:	4630      	mov	r0, r6
   10a32:	2237      	movs	r2, #55	; 0x37
   10a34:	4639      	mov	r1, r7
   10a36:	f04f 0b00 	mov.w	fp, #0
   10a3a:	2401      	movs	r4, #1
   10a3c:	f7ff ecf6 	blx	1042c <memcpy@plt>
   10a40:	45d9      	cmp	r9, fp
   10a42:	dc41      	bgt.n	10ac8 <Hash_DRBG_Generate+0xd8>
   10a44:	2137      	movs	r1, #55	; 0x37
   10a46:	4630      	mov	r0, r6
   10a48:	f7ff ff88 	bl	1095c <ForceZero>
   10a4c:	2c00      	cmp	r4, #0
   10a4e:	f040 8097 	bne.w	10b80 <Hash_DRBG_Generate+0x190>
   10a52:	a81a      	add	r0, sp, #104	; 0x68
   10a54:	f003 f8b0 	bl	13bb8 <wc_InitSha256>
   10a58:	4604      	mov	r4, r0
   10a5a:	b998      	cbnz	r0, 10a84 <Hash_DRBG_Generate+0x94>
   10a5c:	2201      	movs	r2, #1
   10a5e:	f10d 0107 	add.w	r1, sp, #7
   10a62:	a81a      	add	r0, sp, #104	; 0x68
   10a64:	f002 ffd4 	bl	13a10 <wc_Sha256Update>
   10a68:	4604      	mov	r4, r0
   10a6a:	b958      	cbnz	r0, 10a84 <Hash_DRBG_Generate+0x94>
   10a6c:	2237      	movs	r2, #55	; 0x37
   10a6e:	4639      	mov	r1, r7
   10a70:	a81a      	add	r0, sp, #104	; 0x68
   10a72:	f002 ffcd 	bl	13a10 <wc_Sha256Update>
   10a76:	4604      	mov	r4, r0
   10a78:	b920      	cbnz	r0, 10a84 <Hash_DRBG_Generate+0x94>
   10a7a:	4631      	mov	r1, r6
   10a7c:	a81a      	add	r0, sp, #104	; 0x68
   10a7e:	f002 ffd9 	bl	13a34 <wc_Sha256Final>
   10a82:	4604      	mov	r4, r0
   10a84:	a81a      	add	r0, sp, #104	; 0x68
   10a86:	f003 f89c 	bl	13bc2 <wc_Sha256Free>
   10a8a:	b984      	cbnz	r4, 10aae <Hash_DRBG_Generate+0xbe>
   10a8c:	2220      	movs	r2, #32
   10a8e:	4631      	mov	r1, r6
   10a90:	4638      	mov	r0, r7
   10a92:	f7ff ff8a 	bl	109aa <array_add.part.0.constprop.0>
   10a96:	2237      	movs	r2, #55	; 0x37
   10a98:	f105 013f 	add.w	r1, r5, #63	; 0x3f
   10a9c:	f7ff ff85 	bl	109aa <array_add.part.0.constprop.0>
   10aa0:	9b02      	ldr	r3, [sp, #8]
   10aa2:	2204      	movs	r2, #4
   10aa4:	a902      	add	r1, sp, #8
   10aa6:	ba1b      	rev	r3, r3
   10aa8:	9302      	str	r3, [sp, #8]
   10aaa:	f7ff ff7e 	bl	109aa <array_add.part.0.constprop.0>
   10aae:	682b      	ldr	r3, [r5, #0]
   10ab0:	3301      	adds	r3, #1
   10ab2:	602b      	str	r3, [r5, #0]
   10ab4:	4630      	mov	r0, r6
   10ab6:	2120      	movs	r1, #32
   10ab8:	f7ff ff50 	bl	1095c <ForceZero>
   10abc:	1e20      	subs	r0, r4, #0
   10abe:	bf18      	it	ne
   10ac0:	2001      	movne	r0, #1
   10ac2:	b037      	add	sp, #220	; 0xdc
   10ac4:	e8bd 8ff0 	ldmia.w	sp!, {r4, r5, r6, r7, r8, r9, sl, fp, pc}
   10ac8:	a81a      	add	r0, sp, #104	; 0x68
   10aca:	f003 f875 	bl	13bb8 <wc_InitSha256>
   10ace:	4604      	mov	r4, r0
   10ad0:	b958      	cbnz	r0, 10aea <Hash_DRBG_Generate+0xfa>
   10ad2:	2237      	movs	r2, #55	; 0x37
   10ad4:	4631      	mov	r1, r6
   10ad6:	a81a      	add	r0, sp, #104	; 0x68
   10ad8:	f002 ff9a 	bl	13a10 <wc_Sha256Update>
   10adc:	4604      	mov	r4, r0
   10ade:	b920      	cbnz	r0, 10aea <Hash_DRBG_Generate+0xfa>
   10ae0:	a904      	add	r1, sp, #16
   10ae2:	a81a      	add	r0, sp, #104	; 0x68
   10ae4:	f002 ffa6 	bl	13a34 <wc_Sha256Final>
   10ae8:	4604      	mov	r4, r0
   10aea:	a81a      	add	r0, sp, #104	; 0x68
   10aec:	f003 f869 	bl	13bc2 <wc_Sha256Free>
   10af0:	2c00      	cmp	r4, #0
   10af2:	d1a7      	bne.n	10a44 <Hash_DRBG_Generate+0x54>
   10af4:	2204      	movs	r2, #4
   10af6:	a904      	add	r1, sp, #16
   10af8:	a803      	add	r0, sp, #12
   10afa:	f7ff ec98 	blx	1042c <memcpy@plt>
   10afe:	682b      	ldr	r3, [r5, #0]
   10b00:	2b01      	cmp	r3, #1
   10b02:	9b03      	ldr	r3, [sp, #12]
   10b04:	d92f      	bls.n	10b66 <Hash_DRBG_Generate+0x176>
   10b06:	686a      	ldr	r2, [r5, #4]
   10b08:	429a      	cmp	r2, r3
   10b0a:	d12c      	bne.n	10b66 <Hash_DRBG_Generate+0x176>
   10b0c:	f895 3076 	ldrb.w	r3, [r5, #118]	; 0x76
   10b10:	2b01      	cmp	r3, #1
   10b12:	d03b      	beq.n	10b8c <Hash_DRBG_Generate+0x19c>
   10b14:	f109 33ff 	add.w	r3, r9, #4294967295
   10b18:	455b      	cmp	r3, fp
   10b1a:	f04f 0301 	mov.w	r3, #1
   10b1e:	bf08      	it	eq
   10b20:	f109 0901 	addeq.w	r9, r9, #1
   10b24:	f885 3076 	strb.w	r3, [r5, #118]	; 0x76
   10b28:	f1ba 0f00 	cmp.w	sl, #0
   10b2c:	d018      	beq.n	10b60 <Hash_DRBG_Generate+0x170>
   10b2e:	f1b8 0f00 	cmp.w	r8, #0
   10b32:	d015      	beq.n	10b60 <Hash_DRBG_Generate+0x170>
   10b34:	f1b8 0f1f 	cmp.w	r8, #31
   10b38:	d91a      	bls.n	10b70 <Hash_DRBG_Generate+0x180>
   10b3a:	2220      	movs	r2, #32
   10b3c:	4650      	mov	r0, sl
   10b3e:	a904      	add	r1, sp, #16
   10b40:	f1a8 0820 	sub.w	r8, r8, #32
   10b44:	f7ff ec72 	blx	1042c <memcpy@plt>
   10b48:	f10a 0a20 	add.w	sl, sl, #32
   10b4c:	f10d 0267 	add.w	r2, sp, #103	; 0x67
   10b50:	f812 3d01 	ldrb.w	r3, [r2, #-1]!
   10b54:	3301      	adds	r3, #1
   10b56:	b2db      	uxtb	r3, r3
   10b58:	7013      	strb	r3, [r2, #0]
   10b5a:	b90b      	cbnz	r3, 10b60 <Hash_DRBG_Generate+0x170>
   10b5c:	42b2      	cmp	r2, r6
   10b5e:	d1f7      	bne.n	10b50 <Hash_DRBG_Generate+0x160>
   10b60:	f10b 0b01 	add.w	fp, fp, #1
   10b64:	e76c      	b.n	10a40 <Hash_DRBG_Generate+0x50>
   10b66:	2200      	movs	r2, #0
   10b68:	606b      	str	r3, [r5, #4]
   10b6a:	f885 2076 	strb.w	r2, [r5, #118]	; 0x76
   10b6e:	e7db      	b.n	10b28 <Hash_DRBG_Generate+0x138>
   10b70:	4642      	mov	r2, r8
   10b72:	a904      	add	r1, sp, #16
   10b74:	4650      	mov	r0, sl
   10b76:	f04f 0800 	mov.w	r8, #0
   10b7a:	f7ff ec58 	blx	1042c <memcpy@plt>
   10b7e:	e7ef      	b.n	10b60 <Hash_DRBG_Generate+0x170>
   10b80:	2401      	movs	r4, #1
   10b82:	e797      	b.n	10ab4 <Hash_DRBG_Generate+0xc4>
   10b84:	2001      	movs	r0, #1
   10b86:	e79c      	b.n	10ac2 <Hash_DRBG_Generate+0xd2>
   10b88:	2002      	movs	r0, #2
   10b8a:	e79a      	b.n	10ac2 <Hash_DRBG_Generate+0xd2>
   10b8c:	2403      	movs	r4, #3
   10b8e:	e791      	b.n	10ab4 <Hash_DRBG_Generate+0xc4>
   10b90:	000f4240 	.word	0x000f4240

00010b94 <Hash_df.constprop.0>:
   10b94:	e92d 4ff0 	stmdb	sp!, {r4, r5, r6, r7, r8, r9, sl, fp, lr}
   10b98:	4698      	mov	r8, r3
   10b9a:	b0a9      	sub	sp, #164	; 0xa4
   10b9c:	4605      	mov	r5, r0
   10b9e:	4617      	mov	r7, r2
   10ba0:	f04f 0902 	mov.w	r9, #2
   10ba4:	2637      	movs	r6, #55	; 0x37
   10ba6:	4b37      	ldr	r3, [pc, #220]	; (10c84 <Hash_df.constprop.0+0xf0>)
   10ba8:	f88d 1007 	strb.w	r1, [sp, #7]
   10bac:	e9dd ab32 	ldrd	sl, fp, [sp, #200]	; 0xc8
   10bb0:	9303      	str	r3, [sp, #12]
   10bb2:	2301      	movs	r3, #1
   10bb4:	f88d 300b 	strb.w	r3, [sp, #11]
   10bb8:	a80c      	add	r0, sp, #48	; 0x30
   10bba:	f002 fffd 	bl	13bb8 <wc_InitSha256>
   10bbe:	4604      	mov	r4, r0
   10bc0:	bb70      	cbnz	r0, 10c20 <Hash_df.constprop.0+0x8c>
   10bc2:	2201      	movs	r2, #1
   10bc4:	f10d 010b 	add.w	r1, sp, #11
   10bc8:	a80c      	add	r0, sp, #48	; 0x30
   10bca:	f002 ff21 	bl	13a10 <wc_Sha256Update>
   10bce:	4604      	mov	r4, r0
   10bd0:	b9b0      	cbnz	r0, 10c00 <Hash_df.constprop.0+0x6c>
   10bd2:	f89d 300b 	ldrb.w	r3, [sp, #11]
   10bd6:	2204      	movs	r2, #4
   10bd8:	a903      	add	r1, sp, #12
   10bda:	a80c      	add	r0, sp, #48	; 0x30
   10bdc:	3301      	adds	r3, #1
   10bde:	f88d 300b 	strb.w	r3, [sp, #11]
   10be2:	f002 ff15 	bl	13a10 <wc_Sha256Update>
   10be6:	4604      	mov	r4, r0
   10be8:	b950      	cbnz	r0, 10c00 <Hash_df.constprop.0+0x6c>
   10bea:	f89d 3007 	ldrb.w	r3, [sp, #7]
   10bee:	2b04      	cmp	r3, #4
   10bf0:	d123      	bne.n	10c3a <Hash_df.constprop.0+0xa6>
   10bf2:	4642      	mov	r2, r8
   10bf4:	4639      	mov	r1, r7
   10bf6:	a80c      	add	r0, sp, #48	; 0x30
   10bf8:	f002 ff0a 	bl	13a10 <wc_Sha256Update>
   10bfc:	4604      	mov	r4, r0
   10bfe:	b330      	cbz	r0, 10c4e <Hash_df.constprop.0+0xba>
   10c00:	a80c      	add	r0, sp, #48	; 0x30
   10c02:	f002 ffde 	bl	13bc2 <wc_Sha256Free>
   10c06:	b944      	cbnz	r4, 10c1a <Hash_df.constprop.0+0x86>
   10c08:	2e20      	cmp	r6, #32
   10c0a:	d935      	bls.n	10c78 <Hash_df.constprop.0+0xe4>
   10c0c:	4628      	mov	r0, r5
   10c0e:	2220      	movs	r2, #32
   10c10:	a904      	add	r1, sp, #16
   10c12:	3520      	adds	r5, #32
   10c14:	2617      	movs	r6, #23
   10c16:	f7ff ec0a 	blx	1042c <memcpy@plt>
   10c1a:	f1b9 0f01 	cmp.w	r9, #1
   10c1e:	d109      	bne.n	10c34 <Hash_df.constprop.0+0xa0>
   10c20:	a804      	add	r0, sp, #16
   10c22:	2120      	movs	r1, #32
   10c24:	f7ff fe9a 	bl	1095c <ForceZero>
   10c28:	1e20      	subs	r0, r4, #0
   10c2a:	bf18      	it	ne
   10c2c:	2001      	movne	r0, #1
   10c2e:	b029      	add	sp, #164	; 0xa4
   10c30:	e8bd 8ff0 	ldmia.w	sp!, {r4, r5, r6, r7, r8, r9, sl, fp, pc}
   10c34:	f04f 0901 	mov.w	r9, #1
   10c38:	e7be      	b.n	10bb8 <Hash_df.constprop.0+0x24>
   10c3a:	2201      	movs	r2, #1
   10c3c:	f10d 0107 	add.w	r1, sp, #7
   10c40:	a80c      	add	r0, sp, #48	; 0x30
   10c42:	f002 fee5 	bl	13a10 <wc_Sha256Update>
   10c46:	4604      	mov	r4, r0
   10c48:	2800      	cmp	r0, #0
   10c4a:	d1d9      	bne.n	10c00 <Hash_df.constprop.0+0x6c>
   10c4c:	e7d1      	b.n	10bf2 <Hash_df.constprop.0+0x5e>
   10c4e:	f1ba 0f00 	cmp.w	sl, #0
   10c52:	d105      	bne.n	10c60 <Hash_df.constprop.0+0xcc>
   10c54:	a904      	add	r1, sp, #16
   10c56:	a80c      	add	r0, sp, #48	; 0x30
   10c58:	f002 feec 	bl	13a34 <wc_Sha256Final>
   10c5c:	4604      	mov	r4, r0
   10c5e:	e7cf      	b.n	10c00 <Hash_df.constprop.0+0x6c>
   10c60:	f1bb 0f00 	cmp.w	fp, #0
   10c64:	d0f6      	beq.n	10c54 <Hash_df.constprop.0+0xc0>
   10c66:	465a      	mov	r2, fp
   10c68:	4651      	mov	r1, sl
   10c6a:	a80c      	add	r0, sp, #48	; 0x30
   10c6c:	f002 fed0 	bl	13a10 <wc_Sha256Update>
   10c70:	4604      	mov	r4, r0
   10c72:	2800      	cmp	r0, #0
   10c74:	d1c4      	bne.n	10c00 <Hash_df.constprop.0+0x6c>
   10c76:	e7ed      	b.n	10c54 <Hash_df.constprop.0+0xc0>
   10c78:	4632      	mov	r2, r6
   10c7a:	a904      	add	r1, sp, #16
   10c7c:	4628      	mov	r0, r5
   10c7e:	f7ff ebd6 	blx	1042c <memcpy@plt>
   10c82:	e7ca      	b.n	10c1a <Hash_df.constprop.0+0x86>
   10c84:	b8010000 	.word	0xb8010000

00010c88 <Hash_DRBG_Instantiate.constprop.0>:
   10c88:	e92d 41f3 	stmdb	sp!, {r0, r1, r4, r5, r6, r7, r8, lr}
   10c8c:	460d      	mov	r5, r1
   10c8e:	4616      	mov	r6, r2
   10c90:	2100      	movs	r1, #0
   10c92:	2278      	movs	r2, #120	; 0x78
   10c94:	461f      	mov	r7, r3
   10c96:	4604      	mov	r4, r0
   10c98:	f7ff ebe6 	blx	10468 <memset@plt>
   10c9c:	9b08      	ldr	r3, [sp, #32]
   10c9e:	f104 0808 	add.w	r8, r4, #8
   10ca2:	2104      	movs	r1, #4
   10ca4:	462a      	mov	r2, r5
   10ca6:	4640      	mov	r0, r8
   10ca8:	e9cd 7300 	strd	r7, r3, [sp]
   10cac:	4633      	mov	r3, r6
   10cae:	f7ff ff71 	bl	10b94 <Hash_df.constprop.0>
   10cb2:	4601      	mov	r1, r0
   10cb4:	b118      	cbz	r0, 10cbe <Hash_DRBG_Instantiate.constprop.0+0x36>
   10cb6:	2001      	movs	r0, #1
   10cb8:	b002      	add	sp, #8
   10cba:	e8bd 81f0 	ldmia.w	sp!, {r4, r5, r6, r7, r8, pc}
   10cbe:	2337      	movs	r3, #55	; 0x37
   10cc0:	4642      	mov	r2, r8
   10cc2:	e9cd 1100 	strd	r1, r1, [sp]
   10cc6:	f104 003f 	add.w	r0, r4, #63	; 0x3f
   10cca:	f7ff ff63 	bl	10b94 <Hash_df.constprop.0>
   10cce:	2800      	cmp	r0, #0
   10cd0:	d1f1      	bne.n	10cb6 <Hash_DRBG_Instantiate.constprop.0+0x2e>
   10cd2:	2301      	movs	r3, #1
   10cd4:	e9c4 3000 	strd	r3, r0, [r4]
   10cd8:	f884 0076 	strb.w	r0, [r4, #118]	; 0x76
   10cdc:	e7ec      	b.n	10cb8 <Hash_DRBG_Instantiate.constprop.0+0x30>

00010cde <Hash_DRBG_Reseed>:
   10cde:	b5f0      	push	{r4, r5, r6, r7, lr}
   10ce0:	460d      	mov	r5, r1
   10ce2:	b091      	sub	sp, #68	; 0x44
   10ce4:	4617      	mov	r7, r2
   10ce6:	4604      	mov	r4, r0
   10ce8:	b180      	cbz	r0, 10d0c <Hash_DRBG_Reseed+0x2e>
   10cea:	2237      	movs	r2, #55	; 0x37
   10cec:	2100      	movs	r1, #0
   10cee:	a802      	add	r0, sp, #8
   10cf0:	f104 0608 	add.w	r6, r4, #8
   10cf4:	f7ff ebb8 	blx	10468 <memset@plt>
   10cf8:	2337      	movs	r3, #55	; 0x37
   10cfa:	4632      	mov	r2, r6
   10cfc:	e9cd 5700 	strd	r5, r7, [sp]
   10d00:	2101      	movs	r1, #1
   10d02:	a802      	add	r0, sp, #8
   10d04:	f7ff ff46 	bl	10b94 <Hash_df.constprop.0>
   10d08:	4605      	mov	r5, r0
   10d0a:	b108      	cbz	r0, 10d10 <Hash_DRBG_Reseed+0x32>
   10d0c:	2001      	movs	r0, #1
   10d0e:	e018      	b.n	10d42 <Hash_DRBG_Reseed+0x64>
   10d10:	2237      	movs	r2, #55	; 0x37
   10d12:	a902      	add	r1, sp, #8
   10d14:	4630      	mov	r0, r6
   10d16:	f7ff eb8a 	blx	1042c <memcpy@plt>
   10d1a:	2137      	movs	r1, #55	; 0x37
   10d1c:	a802      	add	r0, sp, #8
   10d1e:	f7ff fe1d 	bl	1095c <ForceZero>
   10d22:	4632      	mov	r2, r6
   10d24:	2337      	movs	r3, #55	; 0x37
   10d26:	e9cd 5500 	strd	r5, r5, [sp]
   10d2a:	4629      	mov	r1, r5
   10d2c:	f104 003f 	add.w	r0, r4, #63	; 0x3f
   10d30:	f7ff ff30 	bl	10b94 <Hash_df.constprop.0>
   10d34:	2800      	cmp	r0, #0
   10d36:	d1e9      	bne.n	10d0c <Hash_DRBG_Reseed+0x2e>
   10d38:	2301      	movs	r3, #1
   10d3a:	e9c4 3000 	strd	r3, r0, [r4]
   10d3e:	f884 0076 	strb.w	r0, [r4, #118]	; 0x76
   10d42:	b011      	add	sp, #68	; 0x44
   10d44:	bdf0      	pop	{r4, r5, r6, r7, pc}

00010d46 <wc_RNG_TestSeed>:
   10d46:	e92d 41f0 	stmdb	sp!, {r4, r5, r6, r7, r8, lr}
   10d4a:	f1a1 0804 	sub.w	r8, r1, #4
   10d4e:	2400      	movs	r4, #0
   10d50:	4642      	mov	r2, r8
   10d52:	4605      	mov	r5, r0
   10d54:	2a04      	cmp	r2, #4
   10d56:	460e      	mov	r6, r1
   10d58:	bf28      	it	cs
   10d5a:	2204      	movcs	r2, #4
   10d5c:	4627      	mov	r7, r4
   10d5e:	45a0      	cmp	r8, r4
   10d60:	d802      	bhi.n	10d68 <wc_RNG_TestSeed+0x22>
   10d62:	4638      	mov	r0, r7
   10d64:	e8bd 81f0 	ldmia.w	sp!, {r4, r5, r6, r7, r8, pc}
   10d68:	18a1      	adds	r1, r4, r2
   10d6a:	1928      	adds	r0, r5, r4
   10d6c:	4429      	add	r1, r5
   10d6e:	3404      	adds	r4, #4
   10d70:	f7ff fdfc 	bl	1096c <ConstantCompare>
   10d74:	2800      	cmp	r0, #0
   10d76:	eba6 0204 	sub.w	r2, r6, r4
   10d7a:	bf08      	it	eq
   10d7c:	2703      	moveq	r7, #3
   10d7e:	2a04      	cmp	r2, #4
   10d80:	bf28      	it	cs
   10d82:	2204      	movcs	r2, #4
   10d84:	e7eb      	b.n	10d5e <wc_RNG_TestSeed+0x18>

00010d86 <wc_RNG_HealthTest_ex>:
   10d86:	e92d 47f3 	stmdb	sp!, {r0, r1, r4, r5, r6, r7, r8, r9, sl, lr}
   10d8a:	4604      	mov	r4, r0
   10d8c:	4688      	mov	r8, r1
   10d8e:	4691      	mov	r9, r2
   10d90:	461e      	mov	r6, r3
   10d92:	f8dd a02c 	ldr.w	sl, [sp, #44]	; 0x2c
   10d96:	9f0d      	ldr	r7, [sp, #52]	; 0x34
   10d98:	2b00      	cmp	r3, #0
   10d9a:	d040      	beq.n	10e1e <wc_RNG_HealthTest_ex+0x98>
   10d9c:	2f00      	cmp	r7, #0
   10d9e:	d03e      	beq.n	10e1e <wc_RNG_HealthTest_ex+0x98>
   10da0:	b110      	cbz	r0, 10da8 <wc_RNG_HealthTest_ex+0x22>
   10da2:	f1ba 0f00 	cmp.w	sl, #0
   10da6:	d03a      	beq.n	10e1e <wc_RNG_HealthTest_ex+0x98>
   10da8:	9b0e      	ldr	r3, [sp, #56]	; 0x38
   10daa:	2b80      	cmp	r3, #128	; 0x80
   10dac:	d13a      	bne.n	10e24 <wc_RNG_HealthTest_ex+0x9e>
   10dae:	2078      	movs	r0, #120	; 0x78
   10db0:	f7ff eb48 	blx	10444 <malloc@plt>
   10db4:	4605      	mov	r5, r0
   10db6:	2800      	cmp	r0, #0
   10db8:	d037      	beq.n	10e2a <wc_RNG_HealthTest_ex+0xa4>
   10dba:	4643      	mov	r3, r8
   10dbc:	4631      	mov	r1, r6
   10dbe:	f8cd 9000 	str.w	r9, [sp]
   10dc2:	9a0a      	ldr	r2, [sp, #40]	; 0x28
   10dc4:	f7ff ff60 	bl	10c88 <Hash_DRBG_Instantiate.constprop.0>
   10dc8:	b178      	cbz	r0, 10dea <wc_RNG_HealthTest_ex+0x64>
   10dca:	f04f 34ff 	mov.w	r4, #4294967295
   10dce:	4628      	mov	r0, r5
   10dd0:	f7ff fdd9 	bl	10986 <Hash_DRBG_Uninstantiate>
   10dd4:	2800      	cmp	r0, #0
   10dd6:	4628      	mov	r0, r5
   10dd8:	bf18      	it	ne
   10dda:	f04f 34ff 	movne.w	r4, #4294967295
   10dde:	f7ff eb1a 	blx	10414 <free@plt>
   10de2:	4620      	mov	r0, r4
   10de4:	b002      	add	sp, #8
   10de6:	e8bd 87f0 	ldmia.w	sp!, {r4, r5, r6, r7, r8, r9, sl, pc}
   10dea:	b984      	cbnz	r4, 10e0e <wc_RNG_HealthTest_ex+0x88>
   10dec:	2280      	movs	r2, #128	; 0x80
   10dee:	4639      	mov	r1, r7
   10df0:	4628      	mov	r0, r5
   10df2:	f7ff fdfd 	bl	109f0 <Hash_DRBG_Generate>
   10df6:	2800      	cmp	r0, #0
   10df8:	d1e7      	bne.n	10dca <wc_RNG_HealthTest_ex+0x44>
   10dfa:	2280      	movs	r2, #128	; 0x80
   10dfc:	4639      	mov	r1, r7
   10dfe:	4628      	mov	r0, r5
   10e00:	f7ff fdf6 	bl	109f0 <Hash_DRBG_Generate>
   10e04:	1e04      	subs	r4, r0, #0
   10e06:	bf18      	it	ne
   10e08:	2401      	movne	r4, #1
   10e0a:	4264      	negs	r4, r4
   10e0c:	e7df      	b.n	10dce <wc_RNG_HealthTest_ex+0x48>
   10e0e:	4651      	mov	r1, sl
   10e10:	4628      	mov	r0, r5
   10e12:	9a0c      	ldr	r2, [sp, #48]	; 0x30
   10e14:	f7ff ff63 	bl	10cde <Hash_DRBG_Reseed>
   10e18:	2800      	cmp	r0, #0
   10e1a:	d0e7      	beq.n	10dec <wc_RNG_HealthTest_ex+0x66>
   10e1c:	e7d5      	b.n	10dca <wc_RNG_HealthTest_ex+0x44>
   10e1e:	f06f 04ac 	mvn.w	r4, #172	; 0xac
   10e22:	e7de      	b.n	10de2 <wc_RNG_HealthTest_ex+0x5c>
   10e24:	f04f 34ff 	mov.w	r4, #4294967295
   10e28:	e7db      	b.n	10de2 <wc_RNG_HealthTest_ex+0x5c>
   10e2a:	f06f 047c 	mvn.w	r4, #124	; 0x7c
   10e2e:	e7d8      	b.n	10de2 <wc_RNG_HealthTest_ex+0x5c>

00010e30 <wc_RNG_HealthTest>:
   10e30:	b530      	push	{r4, r5, lr}
   10e32:	b089      	sub	sp, #36	; 0x24
   10e34:	f06f 0401 	mvn.w	r4, #1
   10e38:	9d0e      	ldr	r5, [sp, #56]	; 0x38
   10e3a:	e9cd 2300 	strd	r2, r3, [sp]
   10e3e:	460b      	mov	r3, r1
   10e40:	9406      	str	r4, [sp, #24]
   10e42:	2400      	movs	r4, #0
   10e44:	4622      	mov	r2, r4
   10e46:	4621      	mov	r1, r4
   10e48:	9504      	str	r5, [sp, #16]
   10e4a:	9d0d      	ldr	r5, [sp, #52]	; 0x34
   10e4c:	9405      	str	r4, [sp, #20]
   10e4e:	9503      	str	r5, [sp, #12]
   10e50:	9d0c      	ldr	r5, [sp, #48]	; 0x30
   10e52:	9502      	str	r5, [sp, #8]
   10e54:	f7ff ff97 	bl	10d86 <wc_RNG_HealthTest_ex>
   10e58:	b009      	add	sp, #36	; 0x24
   10e5a:	bd30      	pop	{r4, r5, pc}

00010e5c <wc_GenerateSeed>:
   10e5c:	e92d 41f0 	stmdb	sp!, {r4, r5, r6, r7, r8, lr}
   10e60:	460e      	mov	r6, r1
   10e62:	4615      	mov	r5, r2
   10e64:	2400      	movs	r4, #0
   10e66:	42ac      	cmp	r4, r5
   10e68:	d302      	bcc.n	10e70 <wc_GenerateSeed+0x14>
   10e6a:	2000      	movs	r0, #0
   10e6c:	e8bd 81f0 	ldmia.w	sp!, {r4, r5, r6, r7, r8, pc}
   10e70:	1d27      	adds	r7, r4, #4
   10e72:	eb06 0804 	add.w	r8, r6, r4
   10e76:	42af      	cmp	r7, r5
   10e78:	d802      	bhi.n	10e80 <wc_GenerateSeed+0x24>
   10e7a:	f018 0f03 	tst.w	r8, #3
   10e7e:	d006      	beq.n	10e8e <wc_GenerateSeed+0x32>
   10e80:	1c67      	adds	r7, r4, #1
   10e82:	f7ff fd65 	bl	10950 <my_rng_seed_gen>
   10e86:	f888 0000 	strb.w	r0, [r8]
   10e8a:	463c      	mov	r4, r7
   10e8c:	e7eb      	b.n	10e66 <wc_GenerateSeed+0xa>
   10e8e:	f7ff fd5f 	bl	10950 <my_rng_seed_gen>
   10e92:	f8c8 0000 	str.w	r0, [r8]
   10e96:	e7f8      	b.n	10e8a <wc_GenerateSeed+0x2e>

00010e98 <wc_RNG_GenerateBlock>:
   10e98:	e92d 47f0 	stmdb	sp!, {r4, r5, r6, r7, r8, r9, sl, lr}
   10e9c:	460f      	mov	r7, r1
   10e9e:	b08e      	sub	sp, #56	; 0x38
   10ea0:	4616      	mov	r6, r2
   10ea2:	4605      	mov	r5, r0
   10ea4:	2800      	cmp	r0, #0
   10ea6:	d063      	beq.n	10f70 <wc_RNG_GenerateBlock+0xd8>
   10ea8:	2900      	cmp	r1, #0
   10eaa:	d061      	beq.n	10f70 <wc_RNG_GenerateBlock+0xd8>
   10eac:	b91a      	cbnz	r2, 10eb6 <wc_RNG_GenerateBlock+0x1e>
   10eae:	2000      	movs	r0, #0
   10eb0:	b00e      	add	sp, #56	; 0x38
   10eb2:	e8bd 87f0 	ldmia.w	sp!, {r4, r5, r6, r7, r8, r9, sl, pc}
   10eb6:	f5b2 3f80 	cmp.w	r2, #65536	; 0x10000
   10eba:	d859      	bhi.n	10f70 <wc_RNG_GenerateBlock+0xd8>
   10ebc:	f890 a00c 	ldrb.w	sl, [r0, #12]
   10ec0:	f1ba 0f01 	cmp.w	sl, #1
   10ec4:	d14f      	bne.n	10f66 <wc_RNG_GenerateBlock+0xce>
   10ec6:	6880      	ldr	r0, [r0, #8]
   10ec8:	f7ff fd92 	bl	109f0 <Hash_DRBG_Generate>
   10ecc:	2802      	cmp	r0, #2
   10ece:	4604      	mov	r4, r0
   10ed0:	d143      	bne.n	10f5a <wc_RNG_GenerateBlock+0xc2>
   10ed2:	2080      	movs	r0, #128	; 0x80
   10ed4:	f7ff eab6 	blx	10444 <malloc@plt>
   10ed8:	4680      	mov	r8, r0
   10eda:	b920      	cbnz	r0, 10ee6 <wc_RNG_GenerateBlock+0x4e>
   10edc:	2303      	movs	r3, #3
   10ede:	f06f 00d0 	mvn.w	r0, #208	; 0xd0
   10ee2:	732b      	strb	r3, [r5, #12]
   10ee4:	e7e4      	b.n	10eb0 <wc_RNG_GenerateBlock+0x18>
   10ee6:	2320      	movs	r3, #32
   10ee8:	f04f 0980 	mov.w	r9, #128	; 0x80
   10eec:	4922      	ldr	r1, [pc, #136]	; (10f78 <wc_RNG_GenerateBlock+0xe0>)
   10eee:	2230      	movs	r2, #48	; 0x30
   10ef0:	4650      	mov	r0, sl
   10ef2:	e9cd 3800 	strd	r3, r8, [sp]
   10ef6:	4b21      	ldr	r3, [pc, #132]	; (10f7c <wc_RNG_GenerateBlock+0xe4>)
   10ef8:	f8cd 9008 	str.w	r9, [sp, #8]
   10efc:	f7ff ff98 	bl	10e30 <wc_RNG_HealthTest>
   10f00:	4604      	mov	r4, r0
   10f02:	b940      	cbnz	r0, 10f16 <wc_RNG_GenerateBlock+0x7e>
   10f04:	491e      	ldr	r1, [pc, #120]	; (10f80 <wc_RNG_GenerateBlock+0xe8>)
   10f06:	464a      	mov	r2, r9
   10f08:	4640      	mov	r0, r8
   10f0a:	f7ff fd2f 	bl	1096c <ConstantCompare>
   10f0e:	1e04      	subs	r4, r0, #0
   10f10:	bf18      	it	ne
   10f12:	2401      	movne	r4, #1
   10f14:	4264      	negs	r4, r4
   10f16:	4640      	mov	r0, r8
   10f18:	f7ff ea7c 	blx	10414 <free@plt>
   10f1c:	2c00      	cmp	r4, #0
   10f1e:	d1dd      	bne.n	10edc <wc_RNG_GenerateBlock+0x44>
   10f20:	2224      	movs	r2, #36	; 0x24
   10f22:	a905      	add	r1, sp, #20
   10f24:	4628      	mov	r0, r5
   10f26:	f7ff ff99 	bl	10e5c <wc_GenerateSeed>
   10f2a:	b9f8      	cbnz	r0, 10f6c <wc_RNG_GenerateBlock+0xd4>
   10f2c:	2124      	movs	r1, #36	; 0x24
   10f2e:	a805      	add	r0, sp, #20
   10f30:	f7ff ff09 	bl	10d46 <wc_RNG_TestSeed>
   10f34:	4604      	mov	r4, r0
   10f36:	b960      	cbnz	r0, 10f52 <wc_RNG_GenerateBlock+0xba>
   10f38:	2220      	movs	r2, #32
   10f3a:	a906      	add	r1, sp, #24
   10f3c:	68a8      	ldr	r0, [r5, #8]
   10f3e:	f7ff fece 	bl	10cde <Hash_DRBG_Reseed>
   10f42:	4604      	mov	r4, r0
   10f44:	b928      	cbnz	r0, 10f52 <wc_RNG_GenerateBlock+0xba>
   10f46:	4632      	mov	r2, r6
   10f48:	4639      	mov	r1, r7
   10f4a:	68a8      	ldr	r0, [r5, #8]
   10f4c:	f7ff fd50 	bl	109f0 <Hash_DRBG_Generate>
   10f50:	4604      	mov	r4, r0
   10f52:	2124      	movs	r1, #36	; 0x24
   10f54:	a805      	add	r0, sp, #20
   10f56:	f7ff fd01 	bl	1095c <ForceZero>
   10f5a:	2c00      	cmp	r4, #0
   10f5c:	d0a7      	beq.n	10eae <wc_RNG_GenerateBlock+0x16>
   10f5e:	2c03      	cmp	r4, #3
   10f60:	d0bc      	beq.n	10edc <wc_RNG_GenerateBlock+0x44>
   10f62:	2302      	movs	r3, #2
   10f64:	732b      	strb	r3, [r5, #12]
   10f66:	f06f 00c6 	mvn.w	r0, #198	; 0xc6
   10f6a:	e7a1      	b.n	10eb0 <wc_RNG_GenerateBlock+0x18>
   10f6c:	2401      	movs	r4, #1
   10f6e:	e7f0      	b.n	10f52 <wc_RNG_GenerateBlock+0xba>
   10f70:	f06f 00ac 	mvn.w	r0, #172	; 0xac
   10f74:	e79c      	b.n	10eb0 <wc_RNG_GenerateBlock+0x18>
   10f76:	bf00      	nop
   10f78:	0001cbc4 	.word	0x0001cbc4
   10f7c:	0001cba4 	.word	0x0001cba4
   10f80:	0001caa4 	.word	0x0001caa4

00010f84 <_InitRng.isra.0>:
   10f84:	e92d 47f0 	stmdb	sp!, {r4, r5, r6, r7, r8, r9, sl, lr}
   10f88:	4688      	mov	r8, r1
   10f8a:	b096      	sub	sp, #88	; 0x58
   10f8c:	4616      	mov	r6, r2
   10f8e:	4605      	mov	r5, r0
   10f90:	2800      	cmp	r0, #0
   10f92:	f000 808c 	beq.w	110ae <_InitRng.isra.0+0x12a>
   10f96:	b911      	cbnz	r1, 10f9e <_InitRng.isra.0+0x1a>
   10f98:	2a00      	cmp	r2, #0
   10f9a:	f040 8088 	bne.w	110ae <_InitRng.isra.0+0x12a>
   10f9e:	2400      	movs	r4, #0
   10fa0:	2080      	movs	r0, #128	; 0x80
   10fa2:	42a6      	cmp	r6, r4
   10fa4:	e9c5 3401 	strd	r3, r4, [r5, #4]
   10fa8:	bf14      	ite	ne
   10faa:	2724      	movne	r7, #36	; 0x24
   10fac:	2734      	moveq	r7, #52	; 0x34
   10fae:	732c      	strb	r4, [r5, #12]
   10fb0:	f7ff ea48 	blx	10444 <malloc@plt>
   10fb4:	4681      	mov	r9, r0
   10fb6:	b938      	cbnz	r0, 10fc8 <_InitRng.isra.0+0x44>
   10fb8:	2303      	movs	r3, #3
   10fba:	f06f 04d0 	mvn.w	r4, #208	; 0xd0
   10fbe:	732b      	strb	r3, [r5, #12]
   10fc0:	4620      	mov	r0, r4
   10fc2:	b016      	add	sp, #88	; 0x58
   10fc4:	e8bd 87f0 	ldmia.w	sp!, {r4, r5, r6, r7, r8, r9, sl, pc}
   10fc8:	f04f 0a80 	mov.w	sl, #128	; 0x80
   10fcc:	4623      	mov	r3, r4
   10fce:	4939      	ldr	r1, [pc, #228]	; (110b4 <_InitRng.isra.0+0x130>)
   10fd0:	4620      	mov	r0, r4
   10fd2:	2230      	movs	r2, #48	; 0x30
   10fd4:	e9cd 4900 	strd	r4, r9, [sp]
   10fd8:	f8cd a008 	str.w	sl, [sp, #8]
   10fdc:	f7ff ff28 	bl	10e30 <wc_RNG_HealthTest>
   10fe0:	4604      	mov	r4, r0
   10fe2:	bb00      	cbnz	r0, 11026 <_InitRng.isra.0+0xa2>
   10fe4:	4934      	ldr	r1, [pc, #208]	; (110b8 <_InitRng.isra.0+0x134>)
   10fe6:	4652      	mov	r2, sl
   10fe8:	4648      	mov	r0, r9
   10fea:	f7ff fcbf 	bl	1096c <ConstantCompare>
   10fee:	bba0      	cbnz	r0, 1105a <_InitRng.isra.0+0xd6>
   10ff0:	f06f 0301 	mvn.w	r3, #1
   10ff4:	2210      	movs	r2, #16
   10ff6:	e9cd 4401 	strd	r4, r4, [sp, #4]
   10ffa:	e9cd 9a03 	strd	r9, sl, [sp, #12]
   10ffe:	e9cd 4305 	strd	r4, r3, [sp, #20]
   11002:	2320      	movs	r3, #32
   11004:	9300      	str	r3, [sp, #0]
   11006:	4b2b      	ldr	r3, [pc, #172]	; (110b4 <_InitRng.isra.0+0x130>)
   11008:	f103 0120 	add.w	r1, r3, #32
   1100c:	f7ff febb 	bl	10d86 <wc_RNG_HealthTest_ex>
   11010:	4604      	mov	r4, r0
   11012:	b940      	cbnz	r0, 11026 <_InitRng.isra.0+0xa2>
   11014:	4928      	ldr	r1, [pc, #160]	; (110b8 <_InitRng.isra.0+0x134>)
   11016:	4652      	mov	r2, sl
   11018:	4648      	mov	r0, r9
   1101a:	f7ff fca7 	bl	1096c <ConstantCompare>
   1101e:	1e04      	subs	r4, r0, #0
   11020:	bf18      	it	ne
   11022:	2401      	movne	r4, #1
   11024:	4264      	negs	r4, r4
   11026:	4648      	mov	r0, r9
   11028:	f7ff e9f4 	blx	10414 <free@plt>
   1102c:	2c00      	cmp	r4, #0
   1102e:	d1c3      	bne.n	10fb8 <_InitRng.isra.0+0x34>
   11030:	2078      	movs	r0, #120	; 0x78
   11032:	f7ff ea08 	blx	10444 <malloc@plt>
   11036:	60a8      	str	r0, [r5, #8]
   11038:	b190      	cbz	r0, 11060 <_InitRng.isra.0+0xdc>
   1103a:	463a      	mov	r2, r7
   1103c:	a909      	add	r1, sp, #36	; 0x24
   1103e:	4628      	mov	r0, r5
   11040:	f7ff ff0c 	bl	10e5c <wc_GenerateSeed>
   11044:	b1c0      	cbz	r0, 11078 <_InitRng.isra.0+0xf4>
   11046:	2302      	movs	r3, #2
   11048:	2401      	movs	r4, #1
   1104a:	732b      	strb	r3, [r5, #12]
   1104c:	68a8      	ldr	r0, [r5, #8]
   1104e:	b108      	cbz	r0, 11054 <_InitRng.isra.0+0xd0>
   11050:	f7ff e9e0 	blx	10414 <free@plt>
   11054:	2300      	movs	r3, #0
   11056:	60ab      	str	r3, [r5, #8]
   11058:	e006      	b.n	11068 <_InitRng.isra.0+0xe4>
   1105a:	f04f 34ff 	mov.w	r4, #4294967295
   1105e:	e7e2      	b.n	11026 <_InitRng.isra.0+0xa2>
   11060:	2302      	movs	r3, #2
   11062:	f06f 047c 	mvn.w	r4, #124	; 0x7c
   11066:	732b      	strb	r3, [r5, #12]
   11068:	4639      	mov	r1, r7
   1106a:	a809      	add	r0, sp, #36	; 0x24
   1106c:	f7ff fc76 	bl	1095c <ForceZero>
   11070:	b9a4      	cbnz	r4, 1109c <_InitRng.isra.0+0x118>
   11072:	2301      	movs	r3, #1
   11074:	732b      	strb	r3, [r5, #12]
   11076:	e7a3      	b.n	10fc0 <_InitRng.isra.0+0x3c>
   11078:	4639      	mov	r1, r7
   1107a:	a809      	add	r0, sp, #36	; 0x24
   1107c:	f7ff fe63 	bl	10d46 <wc_RNG_TestSeed>
   11080:	4604      	mov	r4, r0
   11082:	2800      	cmp	r0, #0
   11084:	d1e2      	bne.n	1104c <_InitRng.isra.0+0xc8>
   11086:	4643      	mov	r3, r8
   11088:	1f3a      	subs	r2, r7, #4
   1108a:	9600      	str	r6, [sp, #0]
   1108c:	a90a      	add	r1, sp, #40	; 0x28
   1108e:	68a8      	ldr	r0, [r5, #8]
   11090:	f7ff fdfa 	bl	10c88 <Hash_DRBG_Instantiate.constprop.0>
   11094:	4604      	mov	r4, r0
   11096:	2800      	cmp	r0, #0
   11098:	d0e6      	beq.n	11068 <_InitRng.isra.0+0xe4>
   1109a:	e7d7      	b.n	1104c <_InitRng.isra.0+0xc8>
   1109c:	2c03      	cmp	r4, #3
   1109e:	d08b      	beq.n	10fb8 <_InitRng.isra.0+0x34>
   110a0:	2302      	movs	r3, #2
   110a2:	2c01      	cmp	r4, #1
   110a4:	732b      	strb	r3, [r5, #12]
   110a6:	d18b      	bne.n	10fc0 <_InitRng.isra.0+0x3c>
   110a8:	f06f 04c6 	mvn.w	r4, #198	; 0xc6
   110ac:	e788      	b.n	10fc0 <_InitRng.isra.0+0x3c>
   110ae:	f06f 04ac 	mvn.w	r4, #172	; 0xac
   110b2:	e785      	b.n	10fc0 <_InitRng.isra.0+0x3c>
   110b4:	0001cbf4 	.word	0x0001cbf4
   110b8:	0001cb24 	.word	0x0001cb24

000110bc <wc_InitRng>:
   110bc:	2300      	movs	r3, #0
   110be:	461a      	mov	r2, r3
   110c0:	4619      	mov	r1, r3
   110c2:	f7ff bf5f 	b.w	10f84 <_InitRng.isra.0>

000110c6 <ctMaskNotEq>:
   110c6:	1e4b      	subs	r3, r1, #1
   110c8:	1a1b      	subs	r3, r3, r0
   110ca:	1a40      	subs	r0, r0, r1
   110cc:	3801      	subs	r0, #1
   110ce:	0fdb      	lsrs	r3, r3, #31
   110d0:	0fc0      	lsrs	r0, r0, #31
   110d2:	3b01      	subs	r3, #1
   110d4:	3801      	subs	r0, #1
   110d6:	4318      	orrs	r0, r3
   110d8:	b2c0      	uxtb	r0, r0
   110da:	4770      	bx	lr

000110dc <wc_RsaCleanup>:
   110dc:	b510      	push	{r4, lr}
   110de:	b1b8      	cbz	r0, 11110 <wc_RsaCleanup+0x34>
   110e0:	f500 5480 	add.w	r4, r0, #4096	; 0x1000
   110e4:	f8d4 3884 	ldr.w	r3, [r4, #2180]	; 0x884
   110e8:	b193      	cbz	r3, 11110 <wc_RsaCleanup+0x34>
   110ea:	f894 2898 	ldrb.w	r2, [r4, #2200]	; 0x898
   110ee:	b152      	cbz	r2, 11106 <wc_RsaCleanup+0x2a>
   110f0:	f8d4 2888 	ldr.w	r2, [r4, #2184]	; 0x888
   110f4:	3a02      	subs	r2, #2
   110f6:	2a01      	cmp	r2, #1
   110f8:	d90b      	bls.n	11112 <wc_RsaCleanup+0x36>
   110fa:	f8d4 0884 	ldr.w	r0, [r4, #2180]	; 0x884
   110fe:	b988      	cbnz	r0, 11124 <wc_RsaCleanup+0x48>
   11100:	2300      	movs	r3, #0
   11102:	f884 3898 	strb.w	r3, [r4, #2200]	; 0x898
   11106:	2300      	movs	r3, #0
   11108:	f8c4 3884 	str.w	r3, [r4, #2180]	; 0x884
   1110c:	f8c4 3890 	str.w	r3, [r4, #2192]	; 0x890
   11110:	bd10      	pop	{r4, pc}
   11112:	f8d4 2890 	ldr.w	r2, [r4, #2192]	; 0x890
   11116:	2100      	movs	r1, #0
   11118:	441a      	add	r2, r3
   1111a:	429a      	cmp	r2, r3
   1111c:	d0ed      	beq.n	110fa <wc_RsaCleanup+0x1e>
   1111e:	f803 1b01 	strb.w	r1, [r3], #1
   11122:	e7fa      	b.n	1111a <wc_RsaCleanup+0x3e>
   11124:	f7ff e976 	blx	10414 <free@plt>
   11128:	e7ea      	b.n	11100 <wc_RsaCleanup+0x24>
	...

0001112c <_CheckProbablePrime>:
   1112c:	e92d 4ff7 	stmdb	sp!, {r0, r1, r2, r4, r5, r6, r7, r8, r9, sl, fp, lr}
   11130:	4688      	mov	r8, r1
   11132:	4692      	mov	sl, r2
   11134:	461f      	mov	r7, r3
   11136:	4604      	mov	r4, r0
   11138:	f8dd 9030 	ldr.w	r9, [sp, #48]	; 0x30
   1113c:	2800      	cmp	r0, #0
   1113e:	f000 80ac 	beq.w	1129a <_CheckProbablePrime+0x16e>
   11142:	2a00      	cmp	r2, #0
   11144:	f000 80a9 	beq.w	1129a <_CheckProbablePrime+0x16e>
   11148:	f1b9 0f00 	cmp.w	r9, #0
   1114c:	f000 80a5 	beq.w	1129a <_CheckProbablePrime+0x16e>
   11150:	f5a3 7300 	sub.w	r3, r3, #512	; 0x200
   11154:	f5b3 6f60 	cmp.w	r3, #3584	; 0xe00
   11158:	f200 809f 	bhi.w	1129a <_CheckProbablePrime+0x16e>
   1115c:	f04f 0b00 	mov.w	fp, #0
   11160:	f8c9 b000 	str.w	fp, [r9]
   11164:	2900      	cmp	r1, #0
   11166:	d041      	beq.n	111ec <_CheckProbablePrime+0xc0>
   11168:	f44f 7044 	mov.w	r0, #784	; 0x310
   1116c:	f7ff e96a 	blx	10444 <malloc@plt>
   11170:	4605      	mov	r5, r0
   11172:	2800      	cmp	r0, #0
   11174:	f000 8094 	beq.w	112a0 <_CheckProbablePrime+0x174>
   11178:	f44f 7044 	mov.w	r0, #784	; 0x310
   1117c:	f7ff e962 	blx	10444 <malloc@plt>
   11180:	4606      	mov	r6, r0
   11182:	2800      	cmp	r0, #0
   11184:	f000 8083 	beq.w	1128e <_CheckProbablePrime+0x162>
   11188:	465b      	mov	r3, fp
   1118a:	465a      	mov	r2, fp
   1118c:	e9cd bb00 	strd	fp, fp, [sp]
   11190:	4601      	mov	r1, r0
   11192:	4628      	mov	r0, r5
   11194:	f009 ff9d 	bl	1b0d2 <sp_init_multi>
   11198:	4683      	mov	fp, r0
   1119a:	b990      	cbnz	r0, 111c2 <_CheckProbablePrime+0x96>
   1119c:	1079      	asrs	r1, r7, #1
   1119e:	4628      	mov	r0, r5
   111a0:	3964      	subs	r1, #100	; 0x64
   111a2:	f00a f85b 	bl	1b25c <sp_2expt>
   111a6:	4683      	mov	fp, r0
   111a8:	b958      	cbnz	r0, 111c2 <_CheckProbablePrime+0x96>
   111aa:	4632      	mov	r2, r6
   111ac:	4641      	mov	r1, r8
   111ae:	4620      	mov	r0, r4
   111b0:	f00a f8e5 	bl	1b37e <sp_sub>
   111b4:	4683      	mov	fp, r0
   111b6:	b920      	cbnz	r0, 111c2 <_CheckProbablePrime+0x96>
   111b8:	4629      	mov	r1, r5
   111ba:	4630      	mov	r0, r6
   111bc:	f009 fffe 	bl	1b1bc <sp_cmp>
   111c0:	4683      	mov	fp, r0
   111c2:	f1bb 0f01 	cmp.w	fp, #1
   111c6:	4630      	mov	r0, r6
   111c8:	bf08      	it	eq
   111ca:	f04f 0b00 	moveq.w	fp, #0
   111ce:	f009 ffbe 	bl	1b14e <sp_clear>
   111d2:	4630      	mov	r0, r6
   111d4:	f7ff e91e 	blx	10414 <free@plt>
   111d8:	4628      	mov	r0, r5
   111da:	f009 ffb8 	bl	1b14e <sp_clear>
   111de:	4628      	mov	r0, r5
   111e0:	f7ff e918 	blx	10414 <free@plt>
   111e4:	f1bb 0f00 	cmp.w	fp, #0
   111e8:	d14d      	bne.n	11286 <_CheckProbablePrime+0x15a>
   111ea:	4644      	mov	r4, r8
   111ec:	f44f 7044 	mov.w	r0, #784	; 0x310
   111f0:	f7ff e928 	blx	10444 <malloc@plt>
   111f4:	4605      	mov	r5, r0
   111f6:	2800      	cmp	r0, #0
   111f8:	d052      	beq.n	112a0 <_CheckProbablePrime+0x174>
   111fa:	f44f 7044 	mov.w	r0, #784	; 0x310
   111fe:	f7ff e922 	blx	10444 <malloc@plt>
   11202:	4606      	mov	r6, r0
   11204:	2800      	cmp	r0, #0
   11206:	d04e      	beq.n	112a6 <_CheckProbablePrime+0x17a>
   11208:	2300      	movs	r3, #0
   1120a:	4601      	mov	r1, r0
   1120c:	461a      	mov	r2, r3
   1120e:	4628      	mov	r0, r5
   11210:	e9cd 3300 	strd	r3, r3, [sp]
   11214:	f009 ff5d 	bl	1b0d2 <sp_init_multi>
   11218:	4683      	mov	fp, r0
   1121a:	bb38      	cbnz	r0, 1126c <_CheckProbablePrime+0x140>
   1121c:	4923      	ldr	r1, [pc, #140]	; (112ac <_CheckProbablePrime+0x180>)
   1121e:	113a      	asrs	r2, r7, #4
   11220:	4628      	mov	r0, r5
   11222:	f00a fefb 	bl	1c01c <sp_read_unsigned_bin>
   11226:	4683      	mov	fp, r0
   11228:	bb00      	cbnz	r0, 1126c <_CheckProbablePrime+0x140>
   1122a:	4629      	mov	r1, r5
   1122c:	4620      	mov	r0, r4
   1122e:	f009 ffc5 	bl	1b1bc <sp_cmp>
   11232:	3001      	adds	r0, #1
   11234:	d01a      	beq.n	1126c <_CheckProbablePrime+0x140>
   11236:	462a      	mov	r2, r5
   11238:	2101      	movs	r1, #1
   1123a:	4620      	mov	r0, r4
   1123c:	f00a f884 	bl	1b348 <sp_sub_d>
   11240:	4683      	mov	fp, r0
   11242:	b998      	cbnz	r0, 1126c <_CheckProbablePrime+0x140>
   11244:	4632      	mov	r2, r6
   11246:	4651      	mov	r1, sl
   11248:	4628      	mov	r0, r5
   1124a:	f00b f907 	bl	1c45c <sp_gcd>
   1124e:	4683      	mov	fp, r0
   11250:	b960      	cbnz	r0, 1126c <_CheckProbablePrime+0x140>
   11252:	2101      	movs	r1, #1
   11254:	4630      	mov	r0, r6
   11256:	f00a f820 	bl	1b29a <sp_cmp_d>
   1125a:	b938      	cbnz	r0, 1126c <_CheckProbablePrime+0x140>
   1125c:	9b0d      	ldr	r3, [sp, #52]	; 0x34
   1125e:	464a      	mov	r2, r9
   11260:	2108      	movs	r1, #8
   11262:	4620      	mov	r0, r4
   11264:	b1b3      	cbz	r3, 11294 <_CheckProbablePrime+0x168>
   11266:	f00a ffe7 	bl	1c238 <sp_prime_is_prime_ex>
   1126a:	4683      	mov	fp, r0
   1126c:	4628      	mov	r0, r5
   1126e:	f009 ff6e 	bl	1b14e <sp_clear>
   11272:	4628      	mov	r0, r5
   11274:	f7ff e8ce 	blx	10414 <free@plt>
   11278:	b12e      	cbz	r6, 11286 <_CheckProbablePrime+0x15a>
   1127a:	4630      	mov	r0, r6
   1127c:	f009 ff67 	bl	1b14e <sp_clear>
   11280:	4630      	mov	r0, r6
   11282:	f7ff e8c8 	blx	10414 <free@plt>
   11286:	4658      	mov	r0, fp
   11288:	b003      	add	sp, #12
   1128a:	e8bd 8ff0 	ldmia.w	sp!, {r4, r5, r6, r7, r8, r9, sl, fp, pc}
   1128e:	f06f 0b7c 	mvn.w	fp, #124	; 0x7c
   11292:	e7a1      	b.n	111d8 <_CheckProbablePrime+0xac>
   11294:	f00a ff14 	bl	1c0c0 <sp_prime_is_prime>
   11298:	e7e7      	b.n	1126a <_CheckProbablePrime+0x13e>
   1129a:	f06f 0bac 	mvn.w	fp, #172	; 0xac
   1129e:	e7f2      	b.n	11286 <_CheckProbablePrime+0x15a>
   112a0:	f06f 0b7c 	mvn.w	fp, #124	; 0x7c
   112a4:	e7ef      	b.n	11286 <_CheckProbablePrime+0x15a>
   112a6:	f06f 0b7c 	mvn.w	fp, #124	; 0x7c
   112aa:	e7df      	b.n	1126c <_CheckProbablePrime+0x140>
   112ac:	0001cc43 	.word	0x0001cc43

000112b0 <RsaMGF1.constprop.0>:
   112b0:	e92d 4ff0 	stmdb	sp!, {r4, r5, r6, r7, r8, r9, sl, fp, lr}
   112b4:	4617      	mov	r7, r2
   112b6:	ed2d 8b02 	vpush	{d8}
   112ba:	b097      	sub	sp, #92	; 0x5c
   112bc:	ee08 0a10 	vmov	s16, r0
   112c0:	ee08 1a90 	vmov	s17, r1
   112c4:	9302      	str	r3, [sp, #8]
   112c6:	f006 f869 	bl	1739c <wc_HashGetDigestSize>
   112ca:	1e05      	subs	r5, r0, #0
   112cc:	db5a      	blt.n	11384 <RsaMGF1.constprop.0+0xd4>
   112ce:	f107 0904 	add.w	r9, r7, #4
   112d2:	f1b9 0f44 	cmp.w	r9, #68	; 0x44
   112d6:	d801      	bhi.n	112dc <RsaMGF1.constprop.0+0x2c>
   112d8:	2d44      	cmp	r5, #68	; 0x44
   112da:	dd43      	ble.n	11364 <RsaMGF1.constprop.0+0xb4>
   112dc:	454d      	cmp	r5, r9
   112de:	46aa      	mov	sl, r5
   112e0:	bf38      	it	cc
   112e2:	46ca      	movcc	sl, r9
   112e4:	4650      	mov	r0, sl
   112e6:	f7ff e8ae 	blx	10444 <malloc@plt>
   112ea:	4603      	mov	r3, r0
   112ec:	2800      	cmp	r0, #0
   112ee:	d04b      	beq.n	11388 <RsaMGF1.constprop.0+0xd8>
   112f0:	f04f 0801 	mov.w	r8, #1
   112f4:	2400      	movs	r4, #0
   112f6:	eb03 0b07 	add.w	fp, r3, r7
   112fa:	4626      	mov	r6, r4
   112fc:	ee18 1a90 	vmov	r1, s17
   11300:	463a      	mov	r2, r7
   11302:	4618      	mov	r0, r3
   11304:	9303      	str	r3, [sp, #12]
   11306:	f7ff e892 	blx	1042c <memcpy@plt>
   1130a:	9b03      	ldr	r3, [sp, #12]
   1130c:	0e32      	lsrs	r2, r6, #24
   1130e:	ee18 0a10 	vmov	r0, s16
   11312:	55da      	strb	r2, [r3, r7]
   11314:	0c32      	lsrs	r2, r6, #16
   11316:	4619      	mov	r1, r3
   11318:	f88b 2001 	strb.w	r2, [fp, #1]
   1131c:	0a32      	lsrs	r2, r6, #8
   1131e:	f88b 6003 	strb.w	r6, [fp, #3]
   11322:	f88b 2002 	strb.w	r2, [fp, #2]
   11326:	464a      	mov	r2, r9
   11328:	f8cd a000 	str.w	sl, [sp]
   1132c:	f006 fa20 	bl	17770 <wc_Hash>
   11330:	4602      	mov	r2, r0
   11332:	9b03      	ldr	r3, [sp, #12]
   11334:	b940      	cbnz	r0, 11348 <RsaMGF1.constprop.0+0x98>
   11336:	f103 3eff 	add.w	lr, r3, #4294967295
   1133a:	1928      	adds	r0, r5, r4
   1133c:	42a0      	cmp	r0, r4
   1133e:	d117      	bne.n	11370 <RsaMGF1.constprop.0+0xc0>
   11340:	9922      	ldr	r1, [sp, #136]	; 0x88
   11342:	3601      	adds	r6, #1
   11344:	42a1      	cmp	r1, r4
   11346:	d8d9      	bhi.n	112fc <RsaMGF1.constprop.0+0x4c>
   11348:	f1b8 0f00 	cmp.w	r8, #0
   1134c:	d004      	beq.n	11358 <RsaMGF1.constprop.0+0xa8>
   1134e:	4618      	mov	r0, r3
   11350:	9202      	str	r2, [sp, #8]
   11352:	f7ff e860 	blx	10414 <free@plt>
   11356:	9a02      	ldr	r2, [sp, #8]
   11358:	4610      	mov	r0, r2
   1135a:	b017      	add	sp, #92	; 0x5c
   1135c:	ecbd 8b02 	vpop	{d8}
   11360:	e8bd 8ff0 	ldmia.w	sp!, {r4, r5, r6, r7, r8, r9, sl, fp, pc}
   11364:	f04f 0a44 	mov.w	sl, #68	; 0x44
   11368:	f04f 0800 	mov.w	r8, #0
   1136c:	ab05      	add	r3, sp, #20
   1136e:	e7c1      	b.n	112f4 <RsaMGF1.constprop.0+0x44>
   11370:	9922      	ldr	r1, [sp, #136]	; 0x88
   11372:	42a1      	cmp	r1, r4
   11374:	d9e4      	bls.n	11340 <RsaMGF1.constprop.0+0x90>
   11376:	f81e cf01 	ldrb.w	ip, [lr, #1]!
   1137a:	9902      	ldr	r1, [sp, #8]
   1137c:	f801 c004 	strb.w	ip, [r1, r4]
   11380:	3401      	adds	r4, #1
   11382:	e7db      	b.n	1133c <RsaMGF1.constprop.0+0x8c>
   11384:	462a      	mov	r2, r5
   11386:	e7e7      	b.n	11358 <RsaMGF1.constprop.0+0xa8>
   11388:	f06f 027c 	mvn.w	r2, #124	; 0x7c
   1138c:	e7e4      	b.n	11358 <RsaMGF1.constprop.0+0xa8>

0001138e <RsaMGF.isra.0>:
   1138e:	b4f0      	push	{r4, r5, r6, r7}
   11390:	2806      	cmp	r0, #6
   11392:	461e      	mov	r6, r3
   11394:	9f04      	ldr	r7, [sp, #16]
   11396:	dc0a      	bgt.n	113ae <RsaMGF.isra.0+0x20>
   11398:	2800      	cmp	r0, #0
   1139a:	dd21      	ble.n	113e0 <RsaMGF.isra.0+0x52>
   1139c:	3802      	subs	r0, #2
   1139e:	9704      	str	r7, [sp, #16]
   113a0:	2804      	cmp	r0, #4
   113a2:	d80e      	bhi.n	113c2 <RsaMGF.isra.0+0x34>
   113a4:	e8df f000 	tbb	[pc, r0]
   113a8:	160a1310 	.word	0x160a1310
   113ac:	19          	.byte	0x19
   113ad:	00          	.byte	0x00
   113ae:	281a      	cmp	r0, #26
   113b0:	d116      	bne.n	113e0 <RsaMGF.isra.0+0x52>
   113b2:	2004      	movs	r0, #4
   113b4:	9704      	str	r7, [sp, #16]
   113b6:	bcf0      	pop	{r4, r5, r6, r7}
   113b8:	f7ff bf7a 	b.w	112b0 <RsaMGF1.constprop.0>
   113bc:	4633      	mov	r3, r6
   113be:	2005      	movs	r0, #5
   113c0:	e7f9      	b.n	113b6 <RsaMGF.isra.0+0x28>
   113c2:	4633      	mov	r3, r6
   113c4:	2006      	movs	r0, #6
   113c6:	e7f6      	b.n	113b6 <RsaMGF.isra.0+0x28>
   113c8:	4633      	mov	r3, r6
   113ca:	2007      	movs	r0, #7
   113cc:	e7f3      	b.n	113b6 <RsaMGF.isra.0+0x28>
   113ce:	4633      	mov	r3, r6
   113d0:	2008      	movs	r0, #8
   113d2:	e7f0      	b.n	113b6 <RsaMGF.isra.0+0x28>
   113d4:	4633      	mov	r3, r6
   113d6:	2010      	movs	r0, #16
   113d8:	e7ed      	b.n	113b6 <RsaMGF.isra.0+0x28>
   113da:	4633      	mov	r3, r6
   113dc:	2011      	movs	r0, #17
   113de:	e7ea      	b.n	113b6 <RsaMGF.isra.0+0x28>
   113e0:	f06f 00ac 	mvn.w	r0, #172	; 0xac
   113e4:	bcf0      	pop	{r4, r5, r6, r7}
   113e6:	4770      	bx	lr

000113e8 <wc_InitRsaKey_ex>:
   113e8:	b573      	push	{r0, r1, r4, r5, r6, lr}
   113ea:	460d      	mov	r5, r1
   113ec:	4604      	mov	r4, r0
   113ee:	2800      	cmp	r0, #0
   113f0:	d03e      	beq.n	11470 <wc_InitRsaKey_ex+0x88>
   113f2:	f641 029c 	movw	r2, #6300	; 0x189c
   113f6:	2100      	movs	r1, #0
   113f8:	f7ff e836 	blx	10468 <memset@plt>
   113fc:	f504 5280 	add.w	r2, r4, #4096	; 0x1000
   11400:	f04f 33ff 	mov.w	r3, #4294967295
   11404:	f504 7644 	add.w	r6, r4, #784	; 0x310
   11408:	4620      	mov	r0, r4
   1140a:	4631      	mov	r1, r6
   1140c:	f8c2 5880 	str.w	r5, [r2, #2176]	; 0x880
   11410:	f8c2 3888 	str.w	r3, [r2, #2184]	; 0x888
   11414:	2300      	movs	r3, #0
   11416:	f8c2 3884 	str.w	r3, [r2, #2180]	; 0x884
   1141a:	f8c2 388c 	str.w	r3, [r2, #2188]	; 0x88c
   1141e:	f8c2 3890 	str.w	r3, [r2, #2192]	; 0x890
   11422:	f8c2 3894 	str.w	r3, [r2, #2196]	; 0x894
   11426:	f882 3898 	strb.w	r3, [r2, #2200]	; 0x898
   1142a:	461a      	mov	r2, r3
   1142c:	e9cd 3300 	strd	r3, r3, [sp]
   11430:	f009 fe4f 	bl	1b0d2 <sp_init_multi>
   11434:	4605      	mov	r5, r0
   11436:	b9c0      	cbnz	r0, 1146a <wc_InitRsaKey_ex+0x82>
   11438:	f504 53ab 	add.w	r3, r4, #5472	; 0x1560
   1143c:	f504 6244 	add.w	r2, r4, #3136	; 0xc40
   11440:	3310      	adds	r3, #16
   11442:	f504 6113 	add.w	r1, r4, #2352	; 0x930
   11446:	f504 60c4 	add.w	r0, r4, #1568	; 0x620
   1144a:	9301      	str	r3, [sp, #4]
   1144c:	f504 5393 	add.w	r3, r4, #4704	; 0x1260
   11450:	9300      	str	r3, [sp, #0]
   11452:	f504 6375 	add.w	r3, r4, #3920	; 0xf50
   11456:	f009 fe3c 	bl	1b0d2 <sp_init_multi>
   1145a:	4605      	mov	r5, r0
   1145c:	b128      	cbz	r0, 1146a <wc_InitRsaKey_ex+0x82>
   1145e:	4620      	mov	r0, r4
   11460:	f009 fe75 	bl	1b14e <sp_clear>
   11464:	4630      	mov	r0, r6
   11466:	f009 fe72 	bl	1b14e <sp_clear>
   1146a:	4628      	mov	r0, r5
   1146c:	b002      	add	sp, #8
   1146e:	bd70      	pop	{r4, r5, r6, pc}
   11470:	f06f 05ac 	mvn.w	r5, #172	; 0xac
   11474:	e7f9      	b.n	1146a <wc_InitRsaKey_ex+0x82>

00011476 <wc_InitRsaKey>:
   11476:	f06f 0201 	mvn.w	r2, #1
   1147a:	f7ff bfb5 	b.w	113e8 <wc_InitRsaKey_ex>

0001147e <wc_FreeRsaKey>:
   1147e:	e92d 47f0 	stmdb	sp!, {r4, r5, r6, r7, r8, r9, sl, lr}
   11482:	4604      	mov	r4, r0
   11484:	2800      	cmp	r0, #0
   11486:	d042      	beq.n	1150e <wc_FreeRsaKey+0x90>
   11488:	f504 55ab 	add.w	r5, r4, #5472	; 0x1560
   1148c:	f504 5a93 	add.w	sl, r4, #4704	; 0x1260
   11490:	3510      	adds	r5, #16
   11492:	f504 6975 	add.w	r9, r4, #3920	; 0xf50
   11496:	f7ff fe21 	bl	110dc <wc_RsaCleanup>
   1149a:	f504 5380 	add.w	r3, r4, #4096	; 0x1000
   1149e:	f504 6844 	add.w	r8, r4, #3136	; 0xc40
   114a2:	f8d3 3888 	ldr.w	r3, [r3, #2184]	; 0x888
   114a6:	f504 6713 	add.w	r7, r4, #2352	; 0x930
   114aa:	f504 66c4 	add.w	r6, r4, #1568	; 0x620
   114ae:	2b01      	cmp	r3, #1
   114b0:	d111      	bne.n	114d6 <wc_FreeRsaKey+0x58>
   114b2:	4628      	mov	r0, r5
   114b4:	f009 fe5b 	bl	1b16e <sp_forcezero>
   114b8:	4650      	mov	r0, sl
   114ba:	f009 fe58 	bl	1b16e <sp_forcezero>
   114be:	4648      	mov	r0, r9
   114c0:	f009 fe55 	bl	1b16e <sp_forcezero>
   114c4:	4640      	mov	r0, r8
   114c6:	f009 fe52 	bl	1b16e <sp_forcezero>
   114ca:	4638      	mov	r0, r7
   114cc:	f009 fe4f 	bl	1b16e <sp_forcezero>
   114d0:	4630      	mov	r0, r6
   114d2:	f009 fe4c 	bl	1b16e <sp_forcezero>
   114d6:	4628      	mov	r0, r5
   114d8:	f009 fe39 	bl	1b14e <sp_clear>
   114dc:	4650      	mov	r0, sl
   114de:	f009 fe36 	bl	1b14e <sp_clear>
   114e2:	4648      	mov	r0, r9
   114e4:	f009 fe33 	bl	1b14e <sp_clear>
   114e8:	4640      	mov	r0, r8
   114ea:	f009 fe30 	bl	1b14e <sp_clear>
   114ee:	4638      	mov	r0, r7
   114f0:	f009 fe2d 	bl	1b14e <sp_clear>
   114f4:	4630      	mov	r0, r6
   114f6:	f009 fe2a 	bl	1b14e <sp_clear>
   114fa:	f504 7044 	add.w	r0, r4, #784	; 0x310
   114fe:	f009 fe26 	bl	1b14e <sp_clear>
   11502:	4620      	mov	r0, r4
   11504:	f009 fe23 	bl	1b14e <sp_clear>
   11508:	2000      	movs	r0, #0
   1150a:	e8bd 87f0 	ldmia.w	sp!, {r4, r5, r6, r7, r8, r9, sl, pc}
   1150e:	f06f 00ac 	mvn.w	r0, #172	; 0xac
   11512:	e7fa      	b.n	1150a <wc_FreeRsaKey+0x8c>

00011514 <wc_RsaPad_ex>:
   11514:	e92d 4ff0 	stmdb	sp!, {r4, r5, r6, r7, r8, r9, sl, fp, lr}
   11518:	4698      	mov	r8, r3
   1151a:	4693      	mov	fp, r2
   1151c:	460f      	mov	r7, r1
   1151e:	ed2d 8b02 	vpush	{d8}
   11522:	b087      	sub	sp, #28
   11524:	9b14      	ldr	r3, [sp, #80]	; 0x50
   11526:	ee08 0a10 	vmov	s16, r0
   1152a:	f89d 2048 	ldrb.w	r2, [sp, #72]	; 0x48
   1152e:	f89d 9054 	ldrb.w	r9, [sp, #84]	; 0x54
   11532:	f8dd a05c 	ldr.w	sl, [sp, #92]	; 0x5c
   11536:	b123      	cbz	r3, 11542 <wc_RsaPad_ex+0x2e>
   11538:	2b01      	cmp	r3, #1
   1153a:	d04b      	beq.n	115d4 <wc_RsaPad_ex+0xc0>
   1153c:	f06f 09c8 	mvn.w	r9, #200	; 0xc8
   11540:	e02b      	b.n	1159a <wc_RsaPad_ex+0x86>
   11542:	2800      	cmp	r0, #0
   11544:	d07f      	beq.n	11646 <wc_RsaPad_ex+0x132>
   11546:	2f00      	cmp	r7, #0
   11548:	d07d      	beq.n	11646 <wc_RsaPad_ex+0x132>
   1154a:	f1bb 0f00 	cmp.w	fp, #0
   1154e:	d07a      	beq.n	11646 <wc_RsaPad_ex+0x132>
   11550:	f1b8 0f00 	cmp.w	r8, #0
   11554:	d077      	beq.n	11646 <wc_RsaPad_ex+0x132>
   11556:	f1a8 010b 	sub.w	r1, r8, #11
   1155a:	428f      	cmp	r7, r1
   1155c:	d8ee      	bhi.n	1153c <wc_RsaPad_ex+0x28>
   1155e:	2a01      	cmp	r2, #1
   11560:	f108 34ff 	add.w	r4, r8, #4294967295
   11564:	f88b 3000 	strb.w	r3, [fp]
   11568:	f10b 0502 	add.w	r5, fp, #2
   1156c:	f88b 2001 	strb.w	r2, [fp, #1]
   11570:	d119      	bne.n	115a6 <wc_RsaPad_ex+0x92>
   11572:	f1a8 0203 	sub.w	r2, r8, #3
   11576:	21ff      	movs	r1, #255	; 0xff
   11578:	1bd2      	subs	r2, r2, r7
   1157a:	4628      	mov	r0, r5
   1157c:	f7fe ef74 	blx	10468 <memset@plt>
   11580:	1be4      	subs	r4, r4, r7
   11582:	f04f 0900 	mov.w	r9, #0
   11586:	ee18 1a10 	vmov	r1, s16
   1158a:	463a      	mov	r2, r7
   1158c:	f80b 9004 	strb.w	r9, [fp, r4]
   11590:	3401      	adds	r4, #1
   11592:	eb0b 0004 	add.w	r0, fp, r4
   11596:	f7fe ef4a 	blx	1042c <memcpy@plt>
   1159a:	4648      	mov	r0, r9
   1159c:	b007      	add	sp, #28
   1159e:	ecbd 8b02 	vpop	{d8}
   115a2:	e8bd 8ff0 	ldmia.w	sp!, {r4, r5, r6, r7, r8, r9, sl, fp, pc}
   115a6:	f1a8 0602 	sub.w	r6, r8, #2
   115aa:	4629      	mov	r1, r5
   115ac:	9813      	ldr	r0, [sp, #76]	; 0x4c
   115ae:	1bf6      	subs	r6, r6, r7
   115b0:	4632      	mov	r2, r6
   115b2:	f7ff fc71 	bl	10e98 <wc_RNG_GenerateBlock>
   115b6:	4681      	mov	r9, r0
   115b8:	2800      	cmp	r0, #0
   115ba:	d1ee      	bne.n	1159a <wc_RsaPad_ex+0x86>
   115bc:	4628      	mov	r0, r5
   115be:	ea6f 020b 	mvn.w	r2, fp
   115c2:	2101      	movs	r1, #1
   115c4:	1813      	adds	r3, r2, r0
   115c6:	429e      	cmp	r6, r3
   115c8:	d9da      	bls.n	11580 <wc_RsaPad_ex+0x6c>
   115ca:	7803      	ldrb	r3, [r0, #0]
   115cc:	b903      	cbnz	r3, 115d0 <wc_RsaPad_ex+0xbc>
   115ce:	7001      	strb	r1, [r0, #0]
   115d0:	3001      	adds	r0, #1
   115d2:	e7f7      	b.n	115c4 <wc_RsaPad_ex+0xb0>
   115d4:	f1ba 0f00 	cmp.w	sl, #0
   115d8:	d102      	bne.n	115e0 <wc_RsaPad_ex+0xcc>
   115da:	9b18      	ldr	r3, [sp, #96]	; 0x60
   115dc:	2b00      	cmp	r3, #0
   115de:	d14b      	bne.n	11678 <wc_RsaPad_ex+0x164>
   115e0:	4648      	mov	r0, r9
   115e2:	f005 fedb 	bl	1739c <wc_HashGetDigestSize>
   115e6:	1e04      	subs	r4, r0, #0
   115e8:	f2c0 80cd 	blt.w	11786 <wc_RsaPad_ex+0x272>
   115ec:	f7fe ef2a 	blx	10444 <malloc@plt>
   115f0:	4606      	mov	r6, r0
   115f2:	b138      	cbz	r0, 11604 <wc_RsaPad_ex+0xf0>
   115f4:	4620      	mov	r0, r4
   115f6:	f7fe ef26 	blx	10444 <malloc@plt>
   115fa:	4605      	mov	r5, r0
   115fc:	b928      	cbnz	r0, 1160a <wc_RsaPad_ex+0xf6>
   115fe:	4630      	mov	r0, r6
   11600:	f7fe ef08 	blx	10414 <free@plt>
   11604:	f06f 097c 	mvn.w	r9, #124	; 0x7c
   11608:	e7c7      	b.n	1159a <wc_RsaPad_ex+0x86>
   1160a:	4648      	mov	r0, r9
   1160c:	4633      	mov	r3, r6
   1160e:	9400      	str	r4, [sp, #0]
   11610:	4651      	mov	r1, sl
   11612:	9a18      	ldr	r2, [sp, #96]	; 0x60
   11614:	f006 f8ac 	bl	17770 <wc_Hash>
   11618:	4681      	mov	r9, r0
   1161a:	b130      	cbz	r0, 1162a <wc_RsaPad_ex+0x116>
   1161c:	4630      	mov	r0, r6
   1161e:	f7fe eefa 	blx	10414 <free@plt>
   11622:	4628      	mov	r0, r5
   11624:	f7fe eef6 	blx	10414 <free@plt>
   11628:	e7b7      	b.n	1159a <wc_RsaPad_ex+0x86>
   1162a:	1c63      	adds	r3, r4, #1
   1162c:	1c62      	adds	r2, r4, #1
   1162e:	ebb8 0f42 	cmp.w	r8, r2, lsl #1
   11632:	9304      	str	r3, [sp, #16]
   11634:	ea4f 0343 	mov.w	r3, r3, lsl #1
   11638:	d208      	bcs.n	1164c <wc_RsaPad_ex+0x138>
   1163a:	4630      	mov	r0, r6
   1163c:	f7fe eeea 	blx	10414 <free@plt>
   11640:	4628      	mov	r0, r5
   11642:	f7fe eee8 	blx	10414 <free@plt>
   11646:	f06f 09ac 	mvn.w	r9, #172	; 0xac
   1164a:	e7a6      	b.n	1159a <wc_RsaPad_ex+0x86>
   1164c:	1e9a      	subs	r2, r3, #2
   1164e:	eba8 0303 	sub.w	r3, r8, r3
   11652:	429f      	cmp	r7, r3
   11654:	d8f1      	bhi.n	1163a <wc_RsaPad_ex+0x126>
   11656:	eba8 0007 	sub.w	r0, r8, r7
   1165a:	4547      	cmp	r7, r8
   1165c:	f100 33ff 	add.w	r3, r0, #4294967295
   11660:	f1a0 0a02 	sub.w	sl, r0, #2
   11664:	9303      	str	r3, [sp, #12]
   11666:	ebaa 0302 	sub.w	r3, sl, r2
   1166a:	d908      	bls.n	1167e <wc_RsaPad_ex+0x16a>
   1166c:	4630      	mov	r0, r6
   1166e:	f7fe eed2 	blx	10414 <free@plt>
   11672:	4628      	mov	r0, r5
   11674:	f7fe eece 	blx	10414 <free@plt>
   11678:	f06f 0983 	mvn.w	r9, #131	; 0x83
   1167c:	e78d      	b.n	1159a <wc_RsaPad_ex+0x86>
   1167e:	463a      	mov	r2, r7
   11680:	ee18 1a10 	vmov	r1, s16
   11684:	4458      	add	r0, fp
   11686:	9305      	str	r3, [sp, #20]
   11688:	f7fe eed0 	blx	1042c <memcpy@plt>
   1168c:	9b03      	ldr	r3, [sp, #12]
   1168e:	2201      	movs	r2, #1
   11690:	4648      	mov	r0, r9
   11692:	f80b 2003 	strb.w	r2, [fp, r3]
   11696:	9b05      	ldr	r3, [sp, #20]
   11698:	2b00      	cmp	r3, #0
   1169a:	dd02      	ble.n	116a2 <wc_RsaPad_ex+0x18e>
   1169c:	f1ba 0f00 	cmp.w	sl, #0
   116a0:	d11c      	bne.n	116dc <wc_RsaPad_ex+0x1c8>
   116a2:	f1c4 0001 	rsb	r0, r4, #1
   116a6:	4622      	mov	r2, r4
   116a8:	4450      	add	r0, sl
   116aa:	4631      	mov	r1, r6
   116ac:	4458      	add	r0, fp
   116ae:	f7fe eebe 	blx	1042c <memcpy@plt>
   116b2:	4622      	mov	r2, r4
   116b4:	4629      	mov	r1, r5
   116b6:	9813      	ldr	r0, [sp, #76]	; 0x4c
   116b8:	f7ff fbee 	bl	10e98 <wc_RNG_GenerateBlock>
   116bc:	4681      	mov	r9, r0
   116be:	2800      	cmp	r0, #0
   116c0:	d1ac      	bne.n	1161c <wc_RsaPad_ex+0x108>
   116c2:	f108 37ff 	add.w	r7, r8, #4294967295
   116c6:	1b3f      	subs	r7, r7, r4
   116c8:	4638      	mov	r0, r7
   116ca:	f7fe eebc 	blx	10444 <malloc@plt>
   116ce:	4682      	mov	sl, r0
   116d0:	b950      	cbnz	r0, 116e8 <wc_RsaPad_ex+0x1d4>
   116d2:	4630      	mov	r0, r6
   116d4:	f7fe ee9e 	blx	10414 <free@plt>
   116d8:	4628      	mov	r0, r5
   116da:	e791      	b.n	11600 <wc_RsaPad_ex+0xec>
   116dc:	3b01      	subs	r3, #1
   116de:	f80b 000a 	strb.w	r0, [fp, sl]
   116e2:	f10a 3aff 	add.w	sl, sl, #4294967295
   116e6:	e7d7      	b.n	11698 <wc_RsaPad_ex+0x184>
   116e8:	4649      	mov	r1, r9
   116ea:	463a      	mov	r2, r7
   116ec:	f7fe eebc 	blx	10468 <memset@plt>
   116f0:	4653      	mov	r3, sl
   116f2:	4622      	mov	r2, r4
   116f4:	9700      	str	r7, [sp, #0]
   116f6:	4629      	mov	r1, r5
   116f8:	9816      	ldr	r0, [sp, #88]	; 0x58
   116fa:	f7ff fe48 	bl	1138e <RsaMGF.isra.0>
   116fe:	4681      	mov	r9, r0
   11700:	b118      	cbz	r0, 1170a <wc_RsaPad_ex+0x1f6>
   11702:	4650      	mov	r0, sl
   11704:	f7fe ee86 	blx	10414 <free@plt>
   11708:	e788      	b.n	1161c <wc_RsaPad_ex+0x108>
   1170a:	4652      	mov	r2, sl
   1170c:	eb0b 0304 	add.w	r3, fp, r4
   11710:	eb07 000a 	add.w	r0, r7, sl
   11714:	f1cb 0c01 	rsb	ip, fp, #1
   11718:	eb0c 0103 	add.w	r1, ip, r3
   1171c:	f8cd b00c 	str.w	fp, [sp, #12]
   11720:	4588      	cmp	r8, r1
   11722:	d901      	bls.n	11728 <wc_RsaPad_ex+0x214>
   11724:	4282      	cmp	r2, r0
   11726:	d126      	bne.n	11776 <wc_RsaPad_ex+0x262>
   11728:	4650      	mov	r0, sl
   1172a:	f7fe ee74 	blx	10414 <free@plt>
   1172e:	465b      	mov	r3, fp
   11730:	2200      	movs	r2, #0
   11732:	9816      	ldr	r0, [sp, #88]	; 0x58
   11734:	1c61      	adds	r1, r4, #1
   11736:	4459      	add	r1, fp
   11738:	f803 2b01 	strb.w	r2, [r3], #1
   1173c:	463a      	mov	r2, r7
   1173e:	9400      	str	r4, [sp, #0]
   11740:	f7ff fe25 	bl	1138e <RsaMGF.isra.0>
   11744:	4681      	mov	r9, r0
   11746:	2800      	cmp	r0, #0
   11748:	f47f af68 	bne.w	1161c <wc_RsaPad_ex+0x108>
   1174c:	1e69      	subs	r1, r5, #1
   1174e:	2301      	movs	r3, #1
   11750:	9a04      	ldr	r2, [sp, #16]
   11752:	429a      	cmp	r2, r3
   11754:	f67f af62 	bls.w	1161c <wc_RsaPad_ex+0x108>
   11758:	1e5a      	subs	r2, r3, #1
   1175a:	4294      	cmp	r4, r2
   1175c:	f77f af5e 	ble.w	1161c <wc_RsaPad_ex+0x108>
   11760:	9803      	ldr	r0, [sp, #12]
   11762:	3301      	adds	r3, #1
   11764:	f810 2f01 	ldrb.w	r2, [r0, #1]!
   11768:	9003      	str	r0, [sp, #12]
   1176a:	f811 0f01 	ldrb.w	r0, [r1, #1]!
   1176e:	4042      	eors	r2, r0
   11770:	9803      	ldr	r0, [sp, #12]
   11772:	7002      	strb	r2, [r0, #0]
   11774:	e7ec      	b.n	11750 <wc_RsaPad_ex+0x23c>
   11776:	f813 ef01 	ldrb.w	lr, [r3, #1]!
   1177a:	f812 1b01 	ldrb.w	r1, [r2], #1
   1177e:	ea81 010e 	eor.w	r1, r1, lr
   11782:	7019      	strb	r1, [r3, #0]
   11784:	e7c8      	b.n	11718 <wc_RsaPad_ex+0x204>
   11786:	46a1      	mov	r9, r4
   11788:	e707      	b.n	1159a <wc_RsaPad_ex+0x86>

0001178a <wc_RsaUnPad_ex>:
   1178a:	e92d 4ff0 	stmdb	sp!, {r4, r5, r6, r7, r8, r9, sl, fp, lr}
   1178e:	b095      	sub	sp, #84	; 0x54
   11790:	460e      	mov	r6, r1
   11792:	4604      	mov	r4, r0
   11794:	4691      	mov	r9, r2
   11796:	461f      	mov	r7, r3
   11798:	991e      	ldr	r1, [sp, #120]	; 0x78
   1179a:	f89d b07c 	ldrb.w	fp, [sp, #124]	; 0x7c
   1179e:	b121      	cbz	r1, 117aa <wc_RsaUnPad_ex+0x20>
   117a0:	2901      	cmp	r1, #1
   117a2:	d05b      	beq.n	1185c <wc_RsaUnPad_ex+0xd2>
   117a4:	f06f 01c8 	mvn.w	r1, #200	; 0xc8
   117a8:	e050      	b.n	1184c <wc_RsaUnPad_ex+0xc2>
   117aa:	2a00      	cmp	r2, #0
   117ac:	f000 80df 	beq.w	1196e <wc_RsaUnPad_ex+0x1e4>
   117b0:	1eb2      	subs	r2, r6, #2
   117b2:	f64f 73fd 	movw	r3, #65533	; 0xfffd
   117b6:	429a      	cmp	r2, r3
   117b8:	f200 80d9 	bhi.w	1196e <wc_RsaUnPad_ex+0x1e4>
   117bc:	2f01      	cmp	r7, #1
   117be:	7800      	ldrb	r0, [r0, #0]
   117c0:	d148      	bne.n	11854 <wc_RsaUnPad_ex+0xca>
   117c2:	2800      	cmp	r0, #0
   117c4:	d1ee      	bne.n	117a4 <wc_RsaUnPad_ex+0x1a>
   117c6:	7863      	ldrb	r3, [r4, #1]
   117c8:	2b01      	cmp	r3, #1
   117ca:	d1eb      	bne.n	117a4 <wc_RsaUnPad_ex+0x1a>
   117cc:	2102      	movs	r1, #2
   117ce:	428e      	cmp	r6, r1
   117d0:	460b      	mov	r3, r1
   117d2:	d904      	bls.n	117de <wc_RsaUnPad_ex+0x54>
   117d4:	5ce3      	ldrb	r3, [r4, r3]
   117d6:	3101      	adds	r1, #1
   117d8:	b289      	uxth	r1, r1
   117da:	2bff      	cmp	r3, #255	; 0xff
   117dc:	d0f7      	beq.n	117ce <wc_RsaUnPad_ex+0x44>
   117de:	290a      	cmp	r1, #10
   117e0:	d9e0      	bls.n	117a4 <wc_RsaUnPad_ex+0x1a>
   117e2:	440c      	add	r4, r1
   117e4:	f814 3c01 	ldrb.w	r3, [r4, #-1]
   117e8:	2b00      	cmp	r3, #0
   117ea:	d1db      	bne.n	117a4 <wc_RsaUnPad_ex+0x1a>
   117ec:	1a71      	subs	r1, r6, r1
   117ee:	f8c9 4000 	str.w	r4, [r9]
   117f2:	e02b      	b.n	1184c <wc_RsaUnPad_ex+0xc2>
   117f4:	f814 500c 	ldrb.w	r5, [r4, ip]
   117f8:	f10c 0c01 	add.w	ip, ip, #1
   117fc:	3d01      	subs	r5, #1
   117fe:	17ed      	asrs	r5, r5, #31
   11800:	b2ad      	uxth	r5, r5
   11802:	ea03 0205 	and.w	r2, r3, r5
   11806:	4329      	orrs	r1, r5
   11808:	ea02 020c 	and.w	r2, r2, ip
   1180c:	ea48 0802 	orr.w	r8, r8, r2
   11810:	4566      	cmp	r6, ip
   11812:	ea6f 0301 	mvn.w	r3, r1
   11816:	d1ed      	bne.n	117f4 <wc_RsaUnPad_ex+0x6a>
   11818:	f1c8 020a 	rsb	r2, r8, #10
   1181c:	2100      	movs	r1, #0
   1181e:	0fd2      	lsrs	r2, r2, #31
   11820:	eba6 0608 	sub.w	r6, r6, r8
   11824:	3a01      	subs	r2, #1
   11826:	431a      	orrs	r2, r3
   11828:	f7ff fc4d 	bl	110c6 <ctMaskNotEq>
   1182c:	4605      	mov	r5, r0
   1182e:	4639      	mov	r1, r7
   11830:	7860      	ldrb	r0, [r4, #1]
   11832:	f7ff fc48 	bl	110c6 <ctMaskNotEq>
   11836:	b2d2      	uxtb	r2, r2
   11838:	ea45 0100 	orr.w	r1, r5, r0
   1183c:	4311      	orrs	r1, r2
   1183e:	4444      	add	r4, r8
   11840:	f3c1 11c0 	ubfx	r1, r1, #7, #1
   11844:	f8c9 4000 	str.w	r4, [r9]
   11848:	3901      	subs	r1, #1
   1184a:	4031      	ands	r1, r6
   1184c:	4608      	mov	r0, r1
   1184e:	b015      	add	sp, #84	; 0x54
   11850:	e8bd 8ff0 	ldmia.w	sp!, {r4, r5, r6, r7, r8, r9, sl, fp, pc}
   11854:	f04f 0c02 	mov.w	ip, #2
   11858:	4688      	mov	r8, r1
   1185a:	e7d9      	b.n	11810 <wc_RsaUnPad_ex+0x86>
   1185c:	9b21      	ldr	r3, [sp, #132]	; 0x84
   1185e:	b913      	cbnz	r3, 11866 <wc_RsaUnPad_ex+0xdc>
   11860:	9b22      	ldr	r3, [sp, #136]	; 0x88
   11862:	2b00      	cmp	r3, #0
   11864:	d17d      	bne.n	11962 <wc_RsaUnPad_ex+0x1d8>
   11866:	4658      	mov	r0, fp
   11868:	f005 fd98 	bl	1739c <wc_HashGetDigestSize>
   1186c:	1e05      	subs	r5, r0, #0
   1186e:	db7e      	blt.n	1196e <wc_RsaUnPad_ex+0x1e4>
   11870:	f105 0801 	add.w	r8, r5, #1
   11874:	ebb6 0f48 	cmp.w	r6, r8, lsl #1
   11878:	d379      	bcc.n	1196e <wc_RsaUnPad_ex+0x1e4>
   1187a:	4630      	mov	r0, r6
   1187c:	f7fe ede2 	blx	10444 <malloc@plt>
   11880:	4607      	mov	r7, r0
   11882:	2800      	cmp	r0, #0
   11884:	d070      	beq.n	11968 <wc_RsaUnPad_ex+0x1de>
   11886:	4632      	mov	r2, r6
   11888:	2100      	movs	r1, #0
   1188a:	f106 3aff 	add.w	sl, r6, #4294967295
   1188e:	44a0      	add	r8, r4
   11890:	f7fe edea 	blx	10468 <memset@plt>
   11894:	ebaa 0205 	sub.w	r2, sl, r5
   11898:	4641      	mov	r1, r8
   1189a:	9500      	str	r5, [sp, #0]
   1189c:	463b      	mov	r3, r7
   1189e:	9820      	ldr	r0, [sp, #128]	; 0x80
   118a0:	9203      	str	r2, [sp, #12]
   118a2:	f7ff fd74 	bl	1138e <RsaMGF.isra.0>
   118a6:	4601      	mov	r1, r0
   118a8:	2800      	cmp	r0, #0
   118aa:	d143      	bne.n	11934 <wc_RsaUnPad_ex+0x1aa>
   118ac:	9a03      	ldr	r2, [sp, #12]
   118ae:	463b      	mov	r3, r7
   118b0:	eb07 0c05 	add.w	ip, r7, r5
   118b4:	4620      	mov	r0, r4
   118b6:	459c      	cmp	ip, r3
   118b8:	d134      	bne.n	11924 <wc_RsaUnPad_ex+0x19a>
   118ba:	197b      	adds	r3, r7, r5
   118bc:	4639      	mov	r1, r7
   118be:	9200      	str	r2, [sp, #0]
   118c0:	462a      	mov	r2, r5
   118c2:	9820      	ldr	r0, [sp, #128]	; 0x80
   118c4:	9303      	str	r3, [sp, #12]
   118c6:	f7ff fd62 	bl	1138e <RsaMGF.isra.0>
   118ca:	4601      	mov	r1, r0
   118cc:	bb90      	cbnz	r0, 11934 <wc_RsaUnPad_ex+0x1aa>
   118ce:	9b03      	ldr	r3, [sp, #12]
   118d0:	1962      	adds	r2, r4, r5
   118d2:	eb04 000a 	add.w	r0, r4, sl
   118d6:	4290      	cmp	r0, r2
   118d8:	d132      	bne.n	11940 <wc_RsaUnPad_ex+0x1b6>
   118da:	4638      	mov	r0, r7
   118dc:	1c6f      	adds	r7, r5, #1
   118de:	442f      	add	r7, r5
   118e0:	f7fe ed98 	blx	10414 <free@plt>
   118e4:	4557      	cmp	r7, sl
   118e6:	d201      	bcs.n	118ec <wc_RsaUnPad_ex+0x162>
   118e8:	5de3      	ldrb	r3, [r4, r7]
   118ea:	b38b      	cbz	r3, 11950 <wc_RsaUnPad_ex+0x1c6>
   118ec:	ab04      	add	r3, sp, #16
   118ee:	4658      	mov	r0, fp
   118f0:	9500      	str	r5, [sp, #0]
   118f2:	e9dd 1221 	ldrd	r1, r2, [sp, #132]	; 0x84
   118f6:	f005 ff3b 	bl	17770 <wc_Hash>
   118fa:	4601      	mov	r1, r0
   118fc:	2800      	cmp	r0, #0
   118fe:	d1a5      	bne.n	1184c <wc_RsaUnPad_ex+0xc2>
   11900:	ab04      	add	r3, sp, #16
   11902:	4445      	add	r5, r8
   11904:	4545      	cmp	r5, r8
   11906:	d125      	bne.n	11954 <wc_RsaUnPad_ex+0x1ca>
   11908:	5de0      	ldrb	r0, [r4, r7]
   1190a:	f080 0001 	eor.w	r0, r0, #1
   1190e:	4408      	add	r0, r1
   11910:	7821      	ldrb	r1, [r4, #0]
   11912:	4401      	add	r1, r0
   11914:	1e48      	subs	r0, r1, #1
   11916:	1c79      	adds	r1, r7, #1
   11918:	4071      	eors	r1, r6
   1191a:	ea01 71e0 	and.w	r1, r1, r0, asr #31
   1191e:	4071      	eors	r1, r6
   11920:	440c      	add	r4, r1
   11922:	e763      	b.n	117ec <wc_RsaUnPad_ex+0x62>
   11924:	7819      	ldrb	r1, [r3, #0]
   11926:	f810 ef01 	ldrb.w	lr, [r0, #1]!
   1192a:	ea81 010e 	eor.w	r1, r1, lr
   1192e:	f803 1b01 	strb.w	r1, [r3], #1
   11932:	e7c0      	b.n	118b6 <wc_RsaUnPad_ex+0x12c>
   11934:	4638      	mov	r0, r7
   11936:	9103      	str	r1, [sp, #12]
   11938:	f7fe ed6c 	blx	10414 <free@plt>
   1193c:	9903      	ldr	r1, [sp, #12]
   1193e:	e785      	b.n	1184c <wc_RsaUnPad_ex+0xc2>
   11940:	f812 cf01 	ldrb.w	ip, [r2, #1]!
   11944:	f813 1b01 	ldrb.w	r1, [r3], #1
   11948:	ea81 010c 	eor.w	r1, r1, ip
   1194c:	7011      	strb	r1, [r2, #0]
   1194e:	e7c2      	b.n	118d6 <wc_RsaUnPad_ex+0x14c>
   11950:	3701      	adds	r7, #1
   11952:	e7c7      	b.n	118e4 <wc_RsaUnPad_ex+0x15a>
   11954:	f818 2b01 	ldrb.w	r2, [r8], #1
   11958:	f813 0b01 	ldrb.w	r0, [r3], #1
   1195c:	4042      	eors	r2, r0
   1195e:	4311      	orrs	r1, r2
   11960:	e7d0      	b.n	11904 <wc_RsaUnPad_ex+0x17a>
   11962:	f06f 0183 	mvn.w	r1, #131	; 0x83
   11966:	e771      	b.n	1184c <wc_RsaUnPad_ex+0xc2>
   11968:	f06f 017c 	mvn.w	r1, #124	; 0x7c
   1196c:	e76e      	b.n	1184c <wc_RsaUnPad_ex+0xc2>
   1196e:	f06f 01ac 	mvn.w	r1, #172	; 0xac
   11972:	e76b      	b.n	1184c <wc_RsaUnPad_ex+0xc2>

00011974 <wc_hash2mgf>:
   11974:	3804      	subs	r0, #4
   11976:	b2c0      	uxtb	r0, r0
   11978:	2804      	cmp	r0, #4
   1197a:	bf9a      	itte	ls
   1197c:	4b01      	ldrls	r3, [pc, #4]	; (11984 <wc_hash2mgf+0x10>)
   1197e:	5618      	ldrsbls	r0, [r3, r0]
   11980:	2000      	movhi	r0, #0
   11982:	4770      	bx	lr
   11984:	0001cc3e 	.word	0x0001cc3e

00011988 <wc_RsaEncryptSize>:
   11988:	b108      	cbz	r0, 1198e <wc_RsaEncryptSize+0x6>
   1198a:	f00a bb3d 	b.w	1c008 <sp_unsigned_bin_size>
   1198e:	f06f 00ac 	mvn.w	r0, #172	; 0xac
   11992:	4770      	bx	lr

00011994 <wc_RsaFunction_ex>:
   11994:	e92d 4ff0 	stmdb	sp!, {r4, r5, r6, r7, r8, r9, sl, fp, lr}
   11998:	b089      	sub	sp, #36	; 0x24
   1199a:	4680      	mov	r8, r0
   1199c:	460e      	mov	r6, r1
   1199e:	4692      	mov	sl, r2
   119a0:	4699      	mov	r9, r3
   119a2:	e9dd 5412 	ldrd	r5, r4, [sp, #72]	; 0x48
   119a6:	9f15      	ldr	r7, [sp, #84]	; 0x54
   119a8:	2c00      	cmp	r4, #0
   119aa:	f000 8102 	beq.w	11bb2 <wc_RsaFunction_ex+0x21e>
   119ae:	2800      	cmp	r0, #0
   119b0:	f000 80ff 	beq.w	11bb2 <wc_RsaFunction_ex+0x21e>
   119b4:	2900      	cmp	r1, #0
   119b6:	f000 80fc 	beq.w	11bb2 <wc_RsaFunction_ex+0x21e>
   119ba:	2a00      	cmp	r2, #0
   119bc:	f000 80f9 	beq.w	11bb2 <wc_RsaFunction_ex+0x21e>
   119c0:	2b00      	cmp	r3, #0
   119c2:	f000 80f6 	beq.w	11bb2 <wc_RsaFunction_ex+0x21e>
   119c6:	681b      	ldr	r3, [r3, #0]
   119c8:	2b00      	cmp	r3, #0
   119ca:	f000 80f2 	beq.w	11bb2 <wc_RsaFunction_ex+0x21e>
   119ce:	1c6a      	adds	r2, r5, #1
   119d0:	f000 80ef 	beq.w	11bb2 <wc_RsaFunction_ex+0x21e>
   119d4:	2d03      	cmp	r5, #3
   119d6:	d007      	beq.n	119e8 <wc_RsaFunction_ex+0x54>
   119d8:	4620      	mov	r0, r4
   119da:	f7ff ffd5 	bl	11988 <wc_RsaEncryptSize>
   119de:	4286      	cmp	r6, r0
   119e0:	d949      	bls.n	11a76 <wc_RsaFunction_ex+0xe2>
   119e2:	f06f 07ac 	mvn.w	r7, #172	; 0xac
   119e6:	e067      	b.n	11ab8 <wc_RsaFunction_ex+0x124>
   119e8:	f504 5380 	add.w	r3, r4, #4096	; 0x1000
   119ec:	f8d3 388c 	ldr.w	r3, [r3, #2188]	; 0x88c
   119f0:	2b04      	cmp	r3, #4
   119f2:	d1f1      	bne.n	119d8 <wc_RsaFunction_ex+0x44>
   119f4:	f44f 7044 	mov.w	r0, #784	; 0x310
   119f8:	f7fe ed24 	blx	10444 <malloc@plt>
   119fc:	4683      	mov	fp, r0
   119fe:	b370      	cbz	r0, 11a5e <wc_RsaFunction_ex+0xca>
   11a00:	f009 fb55 	bl	1b0ae <sp_init>
   11a04:	bb70      	cbnz	r0, 11a64 <wc_RsaFunction_ex+0xd0>
   11a06:	4632      	mov	r2, r6
   11a08:	4641      	mov	r1, r8
   11a0a:	4658      	mov	r0, fp
   11a0c:	f00a fb06 	bl	1c01c <sp_read_unsigned_bin>
   11a10:	bb58      	cbnz	r0, 11a6a <wc_RsaFunction_ex+0xd6>
   11a12:	b9df      	cbnz	r7, 11a4c <wc_RsaFunction_ex+0xb8>
   11a14:	465a      	mov	r2, fp
   11a16:	2101      	movs	r1, #1
   11a18:	4658      	mov	r0, fp
   11a1a:	f009 fc55 	bl	1b2c8 <sp_add_d>
   11a1e:	4607      	mov	r7, r0
   11a20:	bb30      	cbnz	r0, 11a70 <wc_RsaFunction_ex+0xdc>
   11a22:	4621      	mov	r1, r4
   11a24:	4658      	mov	r0, fp
   11a26:	f009 fbc9 	bl	1b1bc <sp_cmp>
   11a2a:	3001      	adds	r0, #1
   11a2c:	d114      	bne.n	11a58 <wc_RsaFunction_ex+0xc4>
   11a2e:	4658      	mov	r0, fp
   11a30:	f009 fb8d 	bl	1b14e <sp_clear>
   11a34:	f1bb 0f00 	cmp.w	fp, #0
   11a38:	d002      	beq.n	11a40 <wc_RsaFunction_ex+0xac>
   11a3a:	4658      	mov	r0, fp
   11a3c:	f7fe ecea 	blx	10414 <free@plt>
   11a40:	2f00      	cmp	r7, #0
   11a42:	d0c9      	beq.n	119d8 <wc_RsaFunction_ex+0x44>
   11a44:	4638      	mov	r0, r7
   11a46:	b009      	add	sp, #36	; 0x24
   11a48:	e8bd 8ff0 	ldmia.w	sp!, {r4, r5, r6, r7, r8, r9, sl, fp, pc}
   11a4c:	2101      	movs	r1, #1
   11a4e:	4658      	mov	r0, fp
   11a50:	f009 fc23 	bl	1b29a <sp_cmp_d>
   11a54:	2801      	cmp	r0, #1
   11a56:	d0dd      	beq.n	11a14 <wc_RsaFunction_ex+0x80>
   11a58:	f06f 07fc 	mvn.w	r7, #252	; 0xfc
   11a5c:	e7e7      	b.n	11a2e <wc_RsaFunction_ex+0x9a>
   11a5e:	f06f 077c 	mvn.w	r7, #124	; 0x7c
   11a62:	e7e4      	b.n	11a2e <wc_RsaFunction_ex+0x9a>
   11a64:	f06f 076d 	mvn.w	r7, #109	; 0x6d
   11a68:	e7e1      	b.n	11a2e <wc_RsaFunction_ex+0x9a>
   11a6a:	f06f 076e 	mvn.w	r7, #110	; 0x6e
   11a6e:	e7de      	b.n	11a2e <wc_RsaFunction_ex+0x9a>
   11a70:	f06f 0772 	mvn.w	r7, #114	; 0x72
   11a74:	e7db      	b.n	11a2e <wc_RsaFunction_ex+0x9a>
   11a76:	6823      	ldr	r3, [r4, #0]
   11a78:	b11b      	cbz	r3, 11a82 <wc_RsaFunction_ex+0xee>
   11a7a:	68a3      	ldr	r3, [r4, #8]
   11a7c:	07db      	lsls	r3, r3, #31
   11a7e:	f140 8095 	bpl.w	11bac <wc_RsaFunction_ex+0x218>
   11a82:	4620      	mov	r0, r4
   11a84:	f009 fba7 	bl	1b1d6 <sp_count_bits>
   11a88:	f5b0 6f00 	cmp.w	r0, #2048	; 0x800
   11a8c:	d14a      	bne.n	11b24 <wc_RsaFunction_ex+0x190>
   11a8e:	2d01      	cmp	r5, #1
   11a90:	dc0b      	bgt.n	11aaa <wc_RsaFunction_ex+0x116>
   11a92:	2d00      	cmp	r5, #0
   11a94:	db46      	blt.n	11b24 <wc_RsaFunction_ex+0x190>
   11a96:	4623      	mov	r3, r4
   11a98:	f504 7244 	add.w	r2, r4, #784	; 0x310
   11a9c:	e9cd a900 	strd	sl, r9, [sp]
   11aa0:	4631      	mov	r1, r6
   11aa2:	4640      	mov	r0, r8
   11aa4:	f008 fc1b 	bl	1a2de <sp_RsaPublic_2048>
   11aa8:	e035      	b.n	11b16 <wc_RsaFunction_ex+0x182>
   11aaa:	1eab      	subs	r3, r5, #2
   11aac:	2b01      	cmp	r3, #1
   11aae:	d839      	bhi.n	11b24 <wc_RsaFunction_ex+0x190>
   11ab0:	9b14      	ldr	r3, [sp, #80]	; 0x50
   11ab2:	b953      	cbnz	r3, 11aca <wc_RsaFunction_ex+0x136>
   11ab4:	f06f 07eb 	mvn.w	r7, #235	; 0xeb
   11ab8:	f504 5380 	add.w	r3, r4, #4096	; 0x1000
   11abc:	2200      	movs	r2, #0
   11abe:	4620      	mov	r0, r4
   11ac0:	f8c3 288c 	str.w	r2, [r3, #2188]	; 0x88c
   11ac4:	f7ff fb0a 	bl	110dc <wc_RsaCleanup>
   11ac8:	e7bc      	b.n	11a44 <wc_RsaFunction_ex+0xb0>
   11aca:	f504 6713 	add.w	r7, r4, #2352	; 0x930
   11ace:	4638      	mov	r0, r7
   11ad0:	f009 fb81 	bl	1b1d6 <sp_count_bits>
   11ad4:	f5b0 6f80 	cmp.w	r0, #1024	; 0x400
   11ad8:	d124      	bne.n	11b24 <wc_RsaFunction_ex+0x190>
   11ada:	f504 6b44 	add.w	fp, r4, #3136	; 0xc40
   11ade:	4658      	mov	r0, fp
   11ae0:	f009 fb79 	bl	1b1d6 <sp_count_bits>
   11ae4:	f5b0 6f80 	cmp.w	r0, #1024	; 0x400
   11ae8:	d11c      	bne.n	11b24 <wc_RsaFunction_ex+0x190>
   11aea:	f504 52ab 	add.w	r2, r4, #5472	; 0x1560
   11aee:	463b      	mov	r3, r7
   11af0:	f8cd b000 	str.w	fp, [sp]
   11af4:	3210      	adds	r2, #16
   11af6:	4631      	mov	r1, r6
   11af8:	4640      	mov	r0, r8
   11afa:	e9cd 2403 	strd	r2, r4, [sp, #12]
   11afe:	f504 5293 	add.w	r2, r4, #4704	; 0x1260
   11b02:	9202      	str	r2, [sp, #8]
   11b04:	f504 6275 	add.w	r2, r4, #3920	; 0xf50
   11b08:	e9cd a905 	strd	sl, r9, [sp, #20]
   11b0c:	9201      	str	r2, [sp, #4]
   11b0e:	f504 62c4 	add.w	r2, r4, #1568	; 0x620
   11b12:	f008 fceb 	bl	1a4ec <sp_RsaPrivate_2048>
   11b16:	2800      	cmp	r0, #0
   11b18:	4607      	mov	r7, r0
   11b1a:	da93      	bge.n	11a44 <wc_RsaFunction_ex+0xb0>
   11b1c:	f110 0f6c 	cmn.w	r0, #108	; 0x6c
   11b20:	d090      	beq.n	11a44 <wc_RsaFunction_ex+0xb0>
   11b22:	e7c9      	b.n	11ab8 <wc_RsaFunction_ex+0x124>
   11b24:	4620      	mov	r0, r4
   11b26:	f009 fb56 	bl	1b1d6 <sp_count_bits>
   11b2a:	f5b0 6f40 	cmp.w	r0, #3072	; 0xc00
   11b2e:	d002      	beq.n	11b36 <wc_RsaFunction_ex+0x1a2>
   11b30:	f06f 07e9 	mvn.w	r7, #233	; 0xe9
   11b34:	e7c0      	b.n	11ab8 <wc_RsaFunction_ex+0x124>
   11b36:	2d01      	cmp	r5, #1
   11b38:	dc0b      	bgt.n	11b52 <wc_RsaFunction_ex+0x1be>
   11b3a:	2d00      	cmp	r5, #0
   11b3c:	dbf8      	blt.n	11b30 <wc_RsaFunction_ex+0x19c>
   11b3e:	4623      	mov	r3, r4
   11b40:	f504 7244 	add.w	r2, r4, #784	; 0x310
   11b44:	e9cd a900 	strd	sl, r9, [sp]
   11b48:	4631      	mov	r1, r6
   11b4a:	4640      	mov	r0, r8
   11b4c:	f008 fe33 	bl	1a7b6 <sp_RsaPublic_3072>
   11b50:	e7e1      	b.n	11b16 <wc_RsaFunction_ex+0x182>
   11b52:	3d02      	subs	r5, #2
   11b54:	2d01      	cmp	r5, #1
   11b56:	d8eb      	bhi.n	11b30 <wc_RsaFunction_ex+0x19c>
   11b58:	9b14      	ldr	r3, [sp, #80]	; 0x50
   11b5a:	2b00      	cmp	r3, #0
   11b5c:	d0aa      	beq.n	11ab4 <wc_RsaFunction_ex+0x120>
   11b5e:	f504 6513 	add.w	r5, r4, #2352	; 0x930
   11b62:	4628      	mov	r0, r5
   11b64:	f009 fb37 	bl	1b1d6 <sp_count_bits>
   11b68:	f5b0 6fc0 	cmp.w	r0, #1536	; 0x600
   11b6c:	d1e0      	bne.n	11b30 <wc_RsaFunction_ex+0x19c>
   11b6e:	f504 6744 	add.w	r7, r4, #3136	; 0xc40
   11b72:	4638      	mov	r0, r7
   11b74:	f009 fb2f 	bl	1b1d6 <sp_count_bits>
   11b78:	f5b0 6fc0 	cmp.w	r0, #1536	; 0x600
   11b7c:	d1d8      	bne.n	11b30 <wc_RsaFunction_ex+0x19c>
   11b7e:	f504 52ab 	add.w	r2, r4, #5472	; 0x1560
   11b82:	f504 5393 	add.w	r3, r4, #4704	; 0x1260
   11b86:	9700      	str	r7, [sp, #0]
   11b88:	3210      	adds	r2, #16
   11b8a:	4631      	mov	r1, r6
   11b8c:	4640      	mov	r0, r8
   11b8e:	e9cd 3202 	strd	r3, r2, [sp, #8]
   11b92:	f504 6375 	add.w	r3, r4, #3920	; 0xf50
   11b96:	f504 62c4 	add.w	r2, r4, #1568	; 0x620
   11b9a:	9301      	str	r3, [sp, #4]
   11b9c:	462b      	mov	r3, r5
   11b9e:	e9cd 4a04 	strd	r4, sl, [sp, #16]
   11ba2:	f8cd 9018 	str.w	r9, [sp, #24]
   11ba6:	f008 ff0e 	bl	1a9c6 <sp_RsaPrivate_3072>
   11baa:	e7b4      	b.n	11b16 <wc_RsaFunction_ex+0x182>
   11bac:	f06f 0702 	mvn.w	r7, #2
   11bb0:	e782      	b.n	11ab8 <wc_RsaFunction_ex+0x124>
   11bb2:	f06f 07ac 	mvn.w	r7, #172	; 0xac
   11bb6:	e745      	b.n	11a44 <wc_RsaFunction_ex+0xb0>

00011bb8 <wc_RsaFunction>:
   11bb8:	b51f      	push	{r0, r1, r2, r3, r4, lr}
   11bba:	2401      	movs	r4, #1
   11bbc:	9403      	str	r4, [sp, #12]
   11bbe:	9c08      	ldr	r4, [sp, #32]
   11bc0:	9402      	str	r4, [sp, #8]
   11bc2:	9c07      	ldr	r4, [sp, #28]
   11bc4:	9401      	str	r4, [sp, #4]
   11bc6:	9c06      	ldr	r4, [sp, #24]
   11bc8:	9400      	str	r4, [sp, #0]
   11bca:	f7ff fee3 	bl	11994 <wc_RsaFunction_ex>
   11bce:	b004      	add	sp, #16
   11bd0:	bd10      	pop	{r4, pc}

00011bd2 <RsaPrivateDecryptEx>:
   11bd2:	e92d 4ff0 	stmdb	sp!, {r4, r5, r6, r7, r8, r9, sl, fp, lr}
   11bd6:	461d      	mov	r5, r3
   11bd8:	b08d      	sub	sp, #52	; 0x34
   11bda:	2300      	movs	r3, #0
   11bdc:	460c      	mov	r4, r1
   11bde:	4690      	mov	r8, r2
   11be0:	4683      	mov	fp, r0
   11be2:	930b      	str	r3, [sp, #44]	; 0x2c
   11be4:	e9dd 9616 	ldrd	r9, r6, [sp, #88]	; 0x58
   11be8:	f8dd a060 	ldr.w	sl, [sp, #96]	; 0x60
   11bec:	2800      	cmp	r0, #0
   11bee:	f000 80e0 	beq.w	11db2 <RsaPrivateDecryptEx+0x1e0>
   11bf2:	2900      	cmp	r1, #0
   11bf4:	f000 80dd 	beq.w	11db2 <RsaPrivateDecryptEx+0x1e0>
   11bf8:	2a00      	cmp	r2, #0
   11bfa:	f000 80da 	beq.w	11db2 <RsaPrivateDecryptEx+0x1e0>
   11bfe:	2e00      	cmp	r6, #0
   11c00:	f000 80d7 	beq.w	11db2 <RsaPrivateDecryptEx+0x1e0>
   11c04:	f506 5780 	add.w	r7, r6, #4096	; 0x1000
   11c08:	f8d7 388c 	ldr.w	r3, [r7, #2188]	; 0x88c
   11c0c:	2b06      	cmp	r3, #6
   11c0e:	f200 80c7 	bhi.w	11da0 <RsaPrivateDecryptEx+0x1ce>
   11c12:	e8df f003 	tbb	[pc, r3]
   11c16:	c50f      	.short	0xc50f
   11c18:	4c2ec5c5 	.word	0x4c2ec5c5
   11c1c:	04          	.byte	0x04
   11c1d:	00          	.byte	0x00
   11c1e:	f06f 0481 	mvn.w	r4, #129	; 0x81
   11c22:	f506 5380 	add.w	r3, r6, #4096	; 0x1000
   11c26:	2200      	movs	r2, #0
   11c28:	4630      	mov	r0, r6
   11c2a:	f8c3 288c 	str.w	r2, [r3, #2188]	; 0x88c
   11c2e:	f7ff fa55 	bl	110dc <wc_RsaCleanup>
   11c32:	e08f      	b.n	11d54 <RsaPrivateDecryptEx+0x182>
   11c34:	f8d7 3884 	ldr.w	r3, [r7, #2180]	; 0x884
   11c38:	f8c7 1890 	str.w	r1, [r7, #2192]	; 0x890
   11c3c:	2b00      	cmp	r3, #0
   11c3e:	f040 80af 	bne.w	11da0 <RsaPrivateDecryptEx+0x1ce>
   11c42:	f1b9 0f00 	cmp.w	r9, #0
   11c46:	f040 8089 	bne.w	11d5c <RsaPrivateDecryptEx+0x18a>
   11c4a:	4608      	mov	r0, r1
   11c4c:	f7fe ebfa 	blx	10444 <malloc@plt>
   11c50:	2201      	movs	r2, #1
   11c52:	f8c7 0884 	str.w	r0, [r7, #2180]	; 0x884
   11c56:	f887 2898 	strb.w	r2, [r7, #2200]	; 0x898
   11c5a:	2800      	cmp	r0, #0
   11c5c:	f000 80a3 	beq.w	11da6 <RsaPrivateDecryptEx+0x1d4>
   11c60:	4622      	mov	r2, r4
   11c62:	4659      	mov	r1, fp
   11c64:	f7fe ebe2 	blx	1042c <memcpy@plt>
   11c68:	f506 5380 	add.w	r3, r6, #4096	; 0x1000
   11c6c:	2204      	movs	r2, #4
   11c6e:	f8c3 288c 	str.w	r2, [r3, #2188]	; 0x88c
   11c72:	9b1a      	ldr	r3, [sp, #104]	; 0x68
   11c74:	f506 5780 	add.w	r7, r6, #4096	; 0x1000
   11c78:	4621      	mov	r1, r4
   11c7a:	e9cd a600 	strd	sl, r6, [sp]
   11c7e:	3b01      	subs	r3, #1
   11c80:	bf18      	it	ne
   11c82:	2301      	movne	r3, #1
   11c84:	9303      	str	r3, [sp, #12]
   11c86:	9b20      	ldr	r3, [sp, #128]	; 0x80
   11c88:	9302      	str	r3, [sp, #8]
   11c8a:	f506 53c4 	add.w	r3, r6, #6272	; 0x1880
   11c8e:	f8d7 2884 	ldr.w	r2, [r7, #2180]	; 0x884
   11c92:	3310      	adds	r3, #16
   11c94:	4610      	mov	r0, r2
   11c96:	f7ff fe7d 	bl	11994 <wc_RsaFunction_ex>
   11c9a:	1e04      	subs	r4, r0, #0
   11c9c:	da02      	bge.n	11ca4 <RsaPrivateDecryptEx+0xd2>
   11c9e:	f114 0f6c 	cmn.w	r4, #108	; 0x6c
   11ca2:	d1be      	bne.n	11c22 <RsaPrivateDecryptEx+0x50>
   11ca4:	2305      	movs	r3, #5
   11ca6:	2c00      	cmp	r4, #0
   11ca8:	f8c7 388c 	str.w	r3, [r7, #2188]	; 0x88c
   11cac:	db4e      	blt.n	11d4c <RsaPrivateDecryptEx+0x17a>
   11cae:	f506 5780 	add.w	r7, r6, #4096	; 0x1000
   11cb2:	4630      	mov	r0, r6
   11cb4:	f8d7 4884 	ldr.w	r4, [r7, #2180]	; 0x884
   11cb8:	f8d7 1890 	ldr.w	r1, [r7, #2192]	; 0x890
   11cbc:	9109      	str	r1, [sp, #36]	; 0x24
   11cbe:	f009 fa8a 	bl	1b1d6 <sp_count_bits>
   11cc2:	f8d7 3880 	ldr.w	r3, [r7, #2176]	; 0x880
   11cc6:	aa0b      	add	r2, sp, #44	; 0x2c
   11cc8:	9909      	ldr	r1, [sp, #36]	; 0x24
   11cca:	e9cd 0306 	strd	r0, r3, [sp, #24]
   11cce:	4620      	mov	r0, r4
   11cd0:	9b1f      	ldr	r3, [sp, #124]	; 0x7c
   11cd2:	9305      	str	r3, [sp, #20]
   11cd4:	9b1e      	ldr	r3, [sp, #120]	; 0x78
   11cd6:	9304      	str	r3, [sp, #16]
   11cd8:	9b1d      	ldr	r3, [sp, #116]	; 0x74
   11cda:	9303      	str	r3, [sp, #12]
   11cdc:	9b1c      	ldr	r3, [sp, #112]	; 0x70
   11cde:	9302      	str	r3, [sp, #8]
   11ce0:	f89d 306c 	ldrb.w	r3, [sp, #108]	; 0x6c
   11ce4:	9301      	str	r3, [sp, #4]
   11ce6:	9b1a      	ldr	r3, [sp, #104]	; 0x68
   11ce8:	9300      	str	r3, [sp, #0]
   11cea:	f89d 3064 	ldrb.w	r3, [sp, #100]	; 0x64
   11cee:	f7ff fd4c 	bl	1178a <wc_RsaUnPad_ex>
   11cf2:	f1ba 0f01 	cmp.w	sl, #1
   11cf6:	4604      	mov	r4, r0
   11cf8:	d101      	bne.n	11cfe <RsaPrivateDecryptEx+0x12c>
   11cfa:	4285      	cmp	r5, r0
   11cfc:	db56      	blt.n	11dac <RsaPrivateDecryptEx+0x1da>
   11cfe:	2c00      	cmp	r4, #0
   11d00:	db21      	blt.n	11d46 <RsaPrivateDecryptEx+0x174>
   11d02:	990b      	ldr	r1, [sp, #44]	; 0x2c
   11d04:	b1f9      	cbz	r1, 11d46 <RsaPrivateDecryptEx+0x174>
   11d06:	f1b9 0f00 	cmp.w	r9, #0
   11d0a:	d146      	bne.n	11d9a <RsaPrivateDecryptEx+0x1c8>
   11d0c:	f1ba 0f03 	cmp.w	sl, #3
   11d10:	d13e      	bne.n	11d90 <RsaPrivateDecryptEx+0x1be>
   11d12:	f8d7 2884 	ldr.w	r2, [r7, #2180]	; 0x884
   11d16:	464b      	mov	r3, r9
   11d18:	4648      	mov	r0, r9
   11d1a:	f105 3eff 	add.w	lr, r5, #4294967295
   11d1e:	1a51      	subs	r1, r2, r1
   11d20:	f8d7 2890 	ldr.w	r2, [r7, #2192]	; 0x890
   11d24:	429a      	cmp	r2, r3
   11d26:	d81e      	bhi.n	11d66 <RsaPrivateDecryptEx+0x194>
   11d28:	1b2a      	subs	r2, r5, r4
   11d2a:	f06f 0582 	mvn.w	r5, #130	; 0x82
   11d2e:	0fd2      	lsrs	r2, r2, #31
   11d30:	406c      	eors	r4, r5
   11d32:	2100      	movs	r1, #0
   11d34:	3a01      	subs	r2, #1
   11d36:	4014      	ands	r4, r2
   11d38:	ea84 0005 	eor.w	r0, r4, r5
   11d3c:	f7ff f9c3 	bl	110c6 <ctMaskNotEq>
   11d40:	b240      	sxtb	r0, r0
   11d42:	4004      	ands	r4, r0
   11d44:	406c      	eors	r4, r5
   11d46:	2306      	movs	r3, #6
   11d48:	f8c7 388c 	str.w	r3, [r7, #2188]	; 0x88c
   11d4c:	f114 0f6c 	cmn.w	r4, #108	; 0x6c
   11d50:	f47f af67 	bne.w	11c22 <RsaPrivateDecryptEx+0x50>
   11d54:	4620      	mov	r0, r4
   11d56:	b00d      	add	sp, #52	; 0x34
   11d58:	e8bd 8ff0 	ldmia.w	sp!, {r4, r5, r6, r7, r8, r9, sl, fp, pc}
   11d5c:	f8c7 8884 	str.w	r8, [r7, #2180]	; 0x884
   11d60:	f887 3898 	strb.w	r3, [r7, #2200]	; 0x898
   11d64:	e780      	b.n	11c68 <RsaPrivateDecryptEx+0x96>
   11d66:	f8d7 2884 	ldr.w	r2, [r7, #2180]	; 0x884
   11d6a:	eb01 0c03 	add.w	ip, r1, r3
   11d6e:	ea4f 7cdc 	mov.w	ip, ip, lsr #31
   11d72:	f10c 3cff 	add.w	ip, ip, #4294967295
   11d76:	5cd2      	ldrb	r2, [r2, r3]
   11d78:	3301      	adds	r3, #1
   11d7a:	f808 2000 	strb.w	r2, [r8, r0]
   11d7e:	ebae 0200 	sub.w	r2, lr, r0
   11d82:	0fd2      	lsrs	r2, r2, #31
   11d84:	3a01      	subs	r2, #1
   11d86:	ea0c 0c02 	and.w	ip, ip, r2
   11d8a:	eba0 000c 	sub.w	r0, r0, ip
   11d8e:	e7c7      	b.n	11d20 <RsaPrivateDecryptEx+0x14e>
   11d90:	4622      	mov	r2, r4
   11d92:	4640      	mov	r0, r8
   11d94:	f7fe eb4a 	blx	1042c <memcpy@plt>
   11d98:	e7c6      	b.n	11d28 <RsaPrivateDecryptEx+0x156>
   11d9a:	f8c9 1000 	str.w	r1, [r9]
   11d9e:	e7c3      	b.n	11d28 <RsaPrivateDecryptEx+0x156>
   11da0:	f06f 04bf 	mvn.w	r4, #191	; 0xbf
   11da4:	e73d      	b.n	11c22 <RsaPrivateDecryptEx+0x50>
   11da6:	f06f 047c 	mvn.w	r4, #124	; 0x7c
   11daa:	e73a      	b.n	11c22 <RsaPrivateDecryptEx+0x50>
   11dac:	f06f 0482 	mvn.w	r4, #130	; 0x82
   11db0:	e737      	b.n	11c22 <RsaPrivateDecryptEx+0x50>
   11db2:	f06f 04ac 	mvn.w	r4, #172	; 0xac
   11db6:	e7cd      	b.n	11d54 <RsaPrivateDecryptEx+0x182>

00011db8 <wc_RsaPrivateDecrypt>:
   11db8:	b570      	push	{r4, r5, r6, lr}
   11dba:	b08c      	sub	sp, #48	; 0x30
   11dbc:	2602      	movs	r6, #2
   11dbe:	9d10      	ldr	r5, [sp, #64]	; 0x40
   11dc0:	f505 5480 	add.w	r4, r5, #4096	; 0x1000
   11dc4:	f8d4 4894 	ldr.w	r4, [r4, #2196]	; 0x894
   11dc8:	9501      	str	r5, [sp, #4]
   11dca:	9603      	str	r6, [sp, #12]
   11dcc:	2603      	movs	r6, #3
   11dce:	9602      	str	r6, [sp, #8]
   11dd0:	940a      	str	r4, [sp, #40]	; 0x28
   11dd2:	2400      	movs	r4, #0
   11dd4:	9400      	str	r4, [sp, #0]
   11dd6:	e9cd 4404 	strd	r4, r4, [sp, #16]
   11dda:	e9cd 4406 	strd	r4, r4, [sp, #24]
   11dde:	e9cd 4408 	strd	r4, r4, [sp, #32]
   11de2:	f7ff fef6 	bl	11bd2 <RsaPrivateDecryptEx>
   11de6:	b00c      	add	sp, #48	; 0x30
   11de8:	bd70      	pop	{r4, r5, r6, pc}

00011dea <wc_RsaSSL_VerifyInline>:
   11dea:	b510      	push	{r4, lr}
   11dec:	f503 5480 	add.w	r4, r3, #4096	; 0x1000
   11df0:	b08c      	sub	sp, #48	; 0x30
   11df2:	f8d4 4894 	ldr.w	r4, [r4, #2196]	; 0x894
   11df6:	e9cd 2300 	strd	r2, r3, [sp]
   11dfa:	460b      	mov	r3, r1
   11dfc:	4602      	mov	r2, r0
   11dfe:	940a      	str	r4, [sp, #40]	; 0x28
   11e00:	2400      	movs	r4, #0
   11e02:	e9cd 4404 	strd	r4, r4, [sp, #16]
   11e06:	e9cd 4406 	strd	r4, r4, [sp, #24]
   11e0a:	e9cd 4408 	strd	r4, r4, [sp, #32]
   11e0e:	2401      	movs	r4, #1
   11e10:	e9cd 4402 	strd	r4, r4, [sp, #8]
   11e14:	f7ff fedd 	bl	11bd2 <RsaPrivateDecryptEx>
   11e18:	b00c      	add	sp, #48	; 0x30
   11e1a:	bd10      	pop	{r4, pc}

00011e1c <wc_RsaSSL_Verify_ex2>:
   11e1c:	b5f0      	push	{r4, r5, r6, r7, lr}
   11e1e:	b08f      	sub	sp, #60	; 0x3c
   11e20:	4604      	mov	r4, r0
   11e22:	9e14      	ldr	r6, [sp, #80]	; 0x50
   11e24:	930d      	str	r3, [sp, #52]	; 0x34
   11e26:	f89d 7058 	ldrb.w	r7, [sp, #88]	; 0x58
   11e2a:	b1e6      	cbz	r6, 11e66 <wc_RsaSSL_Verify_ex2+0x4a>
   11e2c:	4638      	mov	r0, r7
   11e2e:	f506 5580 	add.w	r5, r6, #4096	; 0x1000
   11e32:	f7ff fd9f 	bl	11974 <wc_hash2mgf>
   11e36:	f8d5 5894 	ldr.w	r5, [r5, #2196]	; 0x894
   11e3a:	9601      	str	r6, [sp, #4]
   11e3c:	e9cd 7005 	strd	r7, r0, [sp, #20]
   11e40:	9b0d      	ldr	r3, [sp, #52]	; 0x34
   11e42:	9815      	ldr	r0, [sp, #84]	; 0x54
   11e44:	950a      	str	r5, [sp, #40]	; 0x28
   11e46:	f04f 35ff 	mov.w	r5, #4294967295
   11e4a:	9004      	str	r0, [sp, #16]
   11e4c:	2001      	movs	r0, #1
   11e4e:	9509      	str	r5, [sp, #36]	; 0x24
   11e50:	2500      	movs	r5, #0
   11e52:	9500      	str	r5, [sp, #0]
   11e54:	e9cd 0002 	strd	r0, r0, [sp, #8]
   11e58:	4620      	mov	r0, r4
   11e5a:	e9cd 5507 	strd	r5, r5, [sp, #28]
   11e5e:	f7ff feb8 	bl	11bd2 <RsaPrivateDecryptEx>
   11e62:	b00f      	add	sp, #60	; 0x3c
   11e64:	bdf0      	pop	{r4, r5, r6, r7, pc}
   11e66:	f06f 00ac 	mvn.w	r0, #172	; 0xac
   11e6a:	e7fa      	b.n	11e62 <wc_RsaSSL_Verify_ex2+0x46>

00011e6c <wc_RsaSSL_Verify_ex>:
   11e6c:	b51f      	push	{r0, r1, r2, r3, r4, lr}
   11e6e:	2400      	movs	r4, #0
   11e70:	9402      	str	r4, [sp, #8]
   11e72:	9c07      	ldr	r4, [sp, #28]
   11e74:	9401      	str	r4, [sp, #4]
   11e76:	9c06      	ldr	r4, [sp, #24]
   11e78:	9400      	str	r4, [sp, #0]
   11e7a:	f7ff ffcf 	bl	11e1c <wc_RsaSSL_Verify_ex2>
   11e7e:	b004      	add	sp, #16
   11e80:	bd10      	pop	{r4, pc}

00011e82 <wc_RsaSSL_Verify>:
   11e82:	b513      	push	{r0, r1, r4, lr}
   11e84:	2400      	movs	r4, #0
   11e86:	9401      	str	r4, [sp, #4]
   11e88:	9c04      	ldr	r4, [sp, #16]
   11e8a:	9400      	str	r4, [sp, #0]
   11e8c:	f7ff ffee 	bl	11e6c <wc_RsaSSL_Verify_ex>
   11e90:	b002      	add	sp, #8
   11e92:	bd10      	pop	{r4, pc}

00011e94 <RsaPublicEncryptEx.constprop.0>:
   11e94:	e92d 4ff0 	stmdb	sp!, {r4, r5, r6, r7, r8, r9, sl, fp, lr}
   11e98:	b08b      	sub	sp, #44	; 0x2c
   11e9a:	460c      	mov	r4, r1
   11e9c:	4617      	mov	r7, r2
   11e9e:	4698      	mov	r8, r3
   11ea0:	4683      	mov	fp, r0
   11ea2:	9d14      	ldr	r5, [sp, #80]	; 0x50
   11ea4:	f8dd a070 	ldr.w	sl, [sp, #112]	; 0x70
   11ea8:	2800      	cmp	r0, #0
   11eaa:	d075      	beq.n	11f98 <RsaPublicEncryptEx.constprop.0+0x104>
   11eac:	2900      	cmp	r1, #0
   11eae:	d073      	beq.n	11f98 <RsaPublicEncryptEx.constprop.0+0x104>
   11eb0:	2a00      	cmp	r2, #0
   11eb2:	d071      	beq.n	11f98 <RsaPublicEncryptEx.constprop.0+0x104>
   11eb4:	2d00      	cmp	r5, #0
   11eb6:	d06f      	beq.n	11f98 <RsaPublicEncryptEx.constprop.0+0x104>
   11eb8:	4628      	mov	r0, r5
   11eba:	f7ff fd65 	bl	11988 <wc_RsaEncryptSize>
   11ebe:	4540      	cmp	r0, r8
   11ec0:	4606      	mov	r6, r0
   11ec2:	dc6f      	bgt.n	11fa4 <RsaPublicEncryptEx.constprop.0+0x110>
   11ec4:	280a      	cmp	r0, #10
   11ec6:	dd6a      	ble.n	11f9e <RsaPublicEncryptEx.constprop.0+0x10a>
   11ec8:	f1a0 030b 	sub.w	r3, r0, #11
   11ecc:	429c      	cmp	r4, r3
   11ece:	d869      	bhi.n	11fa4 <RsaPublicEncryptEx.constprop.0+0x110>
   11ed0:	f505 5980 	add.w	r9, r5, #4096	; 0x1000
   11ed4:	f8d9 388c 	ldr.w	r3, [r9, #2188]	; 0x88c
   11ed8:	2b02      	cmp	r3, #2
   11eda:	d03b      	beq.n	11f54 <RsaPublicEncryptEx.constprop.0+0xc0>
   11edc:	dc0c      	bgt.n	11ef8 <RsaPublicEncryptEx.constprop.0+0x64>
   11ede:	2b01      	cmp	r3, #1
   11ee0:	d911      	bls.n	11f06 <RsaPublicEncryptEx.constprop.0+0x72>
   11ee2:	f06f 04bf 	mvn.w	r4, #191	; 0xbf
   11ee6:	f505 5380 	add.w	r3, r5, #4096	; 0x1000
   11eea:	2200      	movs	r2, #0
   11eec:	4628      	mov	r0, r5
   11eee:	f8c3 288c 	str.w	r2, [r3, #2188]	; 0x88c
   11ef2:	f7ff f8f3 	bl	110dc <wc_RsaCleanup>
   11ef6:	e04b      	b.n	11f90 <RsaPublicEncryptEx.constprop.0+0xfc>
   11ef8:	2b03      	cmp	r3, #3
   11efa:	d1f2      	bne.n	11ee2 <RsaPublicEncryptEx.constprop.0+0x4e>
   11efc:	f505 5380 	add.w	r3, r5, #4096	; 0x1000
   11f00:	f8d3 4890 	ldr.w	r4, [r3, #2192]	; 0x890
   11f04:	e041      	b.n	11f8a <RsaPublicEncryptEx.constprop.0+0xf6>
   11f06:	2301      	movs	r3, #1
   11f08:	4628      	mov	r0, r5
   11f0a:	f8c9 388c 	str.w	r3, [r9, #2188]	; 0x88c
   11f0e:	f009 f962 	bl	1b1d6 <sp_count_bits>
   11f12:	f8d9 3880 	ldr.w	r3, [r9, #2176]	; 0x880
   11f16:	4621      	mov	r1, r4
   11f18:	463a      	mov	r2, r7
   11f1a:	f8cd a004 	str.w	sl, [sp, #4]
   11f1e:	e9cd 0308 	strd	r0, r3, [sp, #32]
   11f22:	2300      	movs	r3, #0
   11f24:	4658      	mov	r0, fp
   11f26:	9307      	str	r3, [sp, #28]
   11f28:	9b1b      	ldr	r3, [sp, #108]	; 0x6c
   11f2a:	9306      	str	r3, [sp, #24]
   11f2c:	9b1a      	ldr	r3, [sp, #104]	; 0x68
   11f2e:	9305      	str	r3, [sp, #20]
   11f30:	9b19      	ldr	r3, [sp, #100]	; 0x64
   11f32:	9304      	str	r3, [sp, #16]
   11f34:	f89d 3060 	ldrb.w	r3, [sp, #96]	; 0x60
   11f38:	9303      	str	r3, [sp, #12]
   11f3a:	9b17      	ldr	r3, [sp, #92]	; 0x5c
   11f3c:	9302      	str	r3, [sp, #8]
   11f3e:	f89d 3058 	ldrb.w	r3, [sp, #88]	; 0x58
   11f42:	9300      	str	r3, [sp, #0]
   11f44:	4633      	mov	r3, r6
   11f46:	f7ff fae5 	bl	11514 <wc_RsaPad_ex>
   11f4a:	1e04      	subs	r4, r0, #0
   11f4c:	db1d      	blt.n	11f8a <RsaPublicEncryptEx.constprop.0+0xf6>
   11f4e:	2302      	movs	r3, #2
   11f50:	f8c9 388c 	str.w	r3, [r9, #2188]	; 0x88c
   11f54:	9b15      	ldr	r3, [sp, #84]	; 0x54
   11f56:	f505 5980 	add.w	r9, r5, #4096	; 0x1000
   11f5a:	463a      	mov	r2, r7
   11f5c:	4631      	mov	r1, r6
   11f5e:	4638      	mov	r0, r7
   11f60:	f8c9 8890 	str.w	r8, [r9, #2192]	; 0x890
   11f64:	e9cd 3500 	strd	r3, r5, [sp]
   11f68:	f505 53c4 	add.w	r3, r5, #6272	; 0x1880
   11f6c:	3310      	adds	r3, #16
   11f6e:	f8cd a008 	str.w	sl, [sp, #8]
   11f72:	f7ff fe21 	bl	11bb8 <wc_RsaFunction>
   11f76:	1e04      	subs	r4, r0, #0
   11f78:	da02      	bge.n	11f80 <RsaPublicEncryptEx.constprop.0+0xec>
   11f7a:	f114 0f6c 	cmn.w	r4, #108	; 0x6c
   11f7e:	d1b2      	bne.n	11ee6 <RsaPublicEncryptEx.constprop.0+0x52>
   11f80:	2303      	movs	r3, #3
   11f82:	2c00      	cmp	r4, #0
   11f84:	f8c9 388c 	str.w	r3, [r9, #2188]	; 0x88c
   11f88:	dab8      	bge.n	11efc <RsaPublicEncryptEx.constprop.0+0x68>
   11f8a:	f114 0f6c 	cmn.w	r4, #108	; 0x6c
   11f8e:	d1aa      	bne.n	11ee6 <RsaPublicEncryptEx.constprop.0+0x52>
   11f90:	4620      	mov	r0, r4
   11f92:	b00b      	add	sp, #44	; 0x2c
   11f94:	e8bd 8ff0 	ldmia.w	sp!, {r4, r5, r6, r7, r8, r9, sl, fp, pc}
   11f98:	f06f 04ac 	mvn.w	r4, #172	; 0xac
   11f9c:	e7f8      	b.n	11f90 <RsaPublicEncryptEx.constprop.0+0xfc>
   11f9e:	f06f 04e9 	mvn.w	r4, #233	; 0xe9
   11fa2:	e7f5      	b.n	11f90 <RsaPublicEncryptEx.constprop.0+0xfc>
   11fa4:	f06f 0482 	mvn.w	r4, #130	; 0x82
   11fa8:	e7f2      	b.n	11f90 <RsaPublicEncryptEx.constprop.0+0xfc>

00011faa <wc_RsaSSL_Sign>:
   11faa:	b510      	push	{r4, lr}
   11fac:	b08a      	sub	sp, #40	; 0x28
   11fae:	f04f 0c01 	mov.w	ip, #1
   11fb2:	9c0d      	ldr	r4, [sp, #52]	; 0x34
   11fb4:	9408      	str	r4, [sp, #32]
   11fb6:	2400      	movs	r4, #0
   11fb8:	e9cd 4403 	strd	r4, r4, [sp, #12]
   11fbc:	e9cd 4405 	strd	r4, r4, [sp, #20]
   11fc0:	9407      	str	r4, [sp, #28]
   11fc2:	2402      	movs	r4, #2
   11fc4:	e9cd 4c01 	strd	r4, ip, [sp, #4]
   11fc8:	9c0c      	ldr	r4, [sp, #48]	; 0x30
   11fca:	9400      	str	r4, [sp, #0]
   11fcc:	f7ff ff62 	bl	11e94 <RsaPublicEncryptEx.constprop.0>
   11fd0:	b00a      	add	sp, #40	; 0x28
   11fd2:	bd10      	pop	{r4, pc}

00011fd4 <_ifc_pairwise_consistency_test>:
   11fd4:	e92d 41ff 	stmdb	sp!, {r0, r1, r2, r3, r4, r5, r6, r7, r8, lr}
   11fd8:	4607      	mov	r7, r0
   11fda:	460c      	mov	r4, r1
   11fdc:	4822      	ldr	r0, [pc, #136]	; (12068 <_ifc_pairwise_consistency_test+0x94>)
   11fde:	f7fe ea3e 	blx	1045c <strlen@plt>
   11fe2:	4680      	mov	r8, r0
   11fe4:	4638      	mov	r0, r7
   11fe6:	f7ff fccf 	bl	11988 <wc_RsaEncryptSize>
   11fea:	4606      	mov	r6, r0
   11fec:	f7fe ea2a 	blx	10444 <malloc@plt>
   11ff0:	4605      	mov	r5, r0
   11ff2:	b3a8      	cbz	r0, 12060 <_ifc_pairwise_consistency_test+0x8c>
   11ff4:	4632      	mov	r2, r6
   11ff6:	2100      	movs	r1, #0
   11ff8:	f7fe ea36 	blx	10468 <memset@plt>
   11ffc:	481a      	ldr	r0, [pc, #104]	; (12068 <_ifc_pairwise_consistency_test+0x94>)
   11ffe:	4633      	mov	r3, r6
   12000:	462a      	mov	r2, r5
   12002:	4641      	mov	r1, r8
   12004:	e9cd 7400 	strd	r7, r4, [sp]
   12008:	9503      	str	r5, [sp, #12]
   1200a:	f7ff ffce 	bl	11faa <wc_RsaSSL_Sign>
   1200e:	1e04      	subs	r4, r0, #0
   12010:	dd1f      	ble.n	12052 <_ifc_pairwise_consistency_test+0x7e>
   12012:	4621      	mov	r1, r4
   12014:	463b      	mov	r3, r7
   12016:	aa03      	add	r2, sp, #12
   12018:	4628      	mov	r0, r5
   1201a:	f7ff fee6 	bl	11dea <wc_RsaSSL_VerifyInline>
   1201e:	4626      	mov	r6, r4
   12020:	1e04      	subs	r4, r0, #0
   12022:	dd16      	ble.n	12052 <_ifc_pairwise_consistency_test+0x7e>
   12024:	45a0      	cmp	r8, r4
   12026:	d116      	bne.n	12056 <_ifc_pairwise_consistency_test+0x82>
   12028:	4622      	mov	r2, r4
   1202a:	490f      	ldr	r1, [pc, #60]	; (12068 <_ifc_pairwise_consistency_test+0x94>)
   1202c:	9803      	ldr	r0, [sp, #12]
   1202e:	f7fe ea04 	blx	10438 <memcmp@plt>
   12032:	1e04      	subs	r4, r0, #0
   12034:	4b0d      	ldr	r3, [pc, #52]	; (1206c <_ifc_pairwise_consistency_test+0x98>)
   12036:	bf18      	it	ne
   12038:	461c      	movne	r4, r3
   1203a:	442e      	add	r6, r5
   1203c:	462b      	mov	r3, r5
   1203e:	2200      	movs	r2, #0
   12040:	42b3      	cmp	r3, r6
   12042:	d10a      	bne.n	1205a <_ifc_pairwise_consistency_test+0x86>
   12044:	4628      	mov	r0, r5
   12046:	f7fe e9e6 	blx	10414 <free@plt>
   1204a:	4620      	mov	r0, r4
   1204c:	b004      	add	sp, #16
   1204e:	e8bd 81f0 	ldmia.w	sp!, {r4, r5, r6, r7, r8, pc}
   12052:	2c00      	cmp	r4, #0
   12054:	e7ee      	b.n	12034 <_ifc_pairwise_consistency_test+0x60>
   12056:	4c05      	ldr	r4, [pc, #20]	; (1206c <_ifc_pairwise_consistency_test+0x98>)
   12058:	e7ef      	b.n	1203a <_ifc_pairwise_consistency_test+0x66>
   1205a:	f803 2b01 	strb.w	r2, [r3], #1
   1205e:	e7ef      	b.n	12040 <_ifc_pairwise_consistency_test+0x6c>
   12060:	f06f 047c 	mvn.w	r4, #124	; 0x7c
   12064:	e7f1      	b.n	1204a <_ifc_pairwise_consistency_test+0x76>
   12066:	bf00      	nop
   12068:	0001cc24 	.word	0x0001cc24
   1206c:	fffffefa 	.word	0xfffffefa

00012070 <wc_RsaPublicEncrypt>:
   12070:	b530      	push	{r4, r5, lr}
   12072:	b08b      	sub	sp, #44	; 0x2c
   12074:	2502      	movs	r5, #2
   12076:	9c0f      	ldr	r4, [sp, #60]	; 0x3c
   12078:	9502      	str	r5, [sp, #8]
   1207a:	9408      	str	r4, [sp, #32]
   1207c:	2400      	movs	r4, #0
   1207e:	9401      	str	r4, [sp, #4]
   12080:	e9cd 4403 	strd	r4, r4, [sp, #12]
   12084:	e9cd 4405 	strd	r4, r4, [sp, #20]
   12088:	9407      	str	r4, [sp, #28]
   1208a:	9c0e      	ldr	r4, [sp, #56]	; 0x38
   1208c:	9400      	str	r4, [sp, #0]
   1208e:	f7ff ff01 	bl	11e94 <RsaPublicEncryptEx.constprop.0>
   12092:	b00b      	add	sp, #44	; 0x2c
   12094:	bd30      	pop	{r4, r5, pc}

00012096 <wc_MakeRsaKey>:
   12096:	e92d 4ff0 	stmdb	sp!, {r4, r5, r6, r7, r8, r9, sl, fp, lr}
   1209a:	4607      	mov	r7, r0
   1209c:	ed2d 8b08 	vpush	{d8-d11}
   120a0:	b089      	sub	sp, #36	; 0x24
   120a2:	ee08 3a90 	vmov	s17, r3
   120a6:	2300      	movs	r3, #0
   120a8:	ee09 2a10 	vmov	s18, r2
   120ac:	9103      	str	r1, [sp, #12]
   120ae:	9307      	str	r3, [sp, #28]
   120b0:	2800      	cmp	r0, #0
   120b2:	f000 81bb 	beq.w	1242c <wc_MakeRsaKey+0x396>
   120b6:	ee18 3a90 	vmov	r3, s17
   120ba:	2b00      	cmp	r3, #0
   120bc:	f000 81b6 	beq.w	1242c <wc_MakeRsaKey+0x396>
   120c0:	f44f 7044 	mov.w	r0, #784	; 0x310
   120c4:	f7fe e9be 	blx	10444 <malloc@plt>
   120c8:	4604      	mov	r4, r0
   120ca:	f44f 7044 	mov.w	r0, #784	; 0x310
   120ce:	f7fe e9ba 	blx	10444 <malloc@plt>
   120d2:	4605      	mov	r5, r0
   120d4:	f44f 7044 	mov.w	r0, #784	; 0x310
   120d8:	f7fe e9b4 	blx	10444 <malloc@plt>
   120dc:	4681      	mov	r9, r0
   120de:	f44f 7044 	mov.w	r0, #784	; 0x310
   120e2:	f7fe e9b0 	blx	10444 <malloc@plt>
   120e6:	ee08 0a10 	vmov	s16, r0
   120ea:	f44f 7044 	mov.w	r0, #784	; 0x310
   120ee:	f7fe e9aa 	blx	10444 <malloc@plt>
   120f2:	4606      	mov	r6, r0
   120f4:	2c00      	cmp	r4, #0
   120f6:	f000 8179 	beq.w	123ec <wc_MakeRsaKey+0x356>
   120fa:	2d00      	cmp	r5, #0
   120fc:	f000 819e 	beq.w	1243c <wc_MakeRsaKey+0x3a6>
   12100:	f1b9 0f00 	cmp.w	r9, #0
   12104:	f000 819a 	beq.w	1243c <wc_MakeRsaKey+0x3a6>
   12108:	ee18 3a10 	vmov	r3, s16
   1210c:	2b00      	cmp	r3, #0
   1210e:	f000 8195 	beq.w	1243c <wc_MakeRsaKey+0x3a6>
   12112:	2800      	cmp	r0, #0
   12114:	f000 8192 	beq.w	1243c <wc_MakeRsaKey+0x3a6>
   12118:	9b03      	ldr	r3, [sp, #12]
   1211a:	f5a3 7300 	sub.w	r3, r3, #512	; 0x200
   1211e:	f5b3 6f60 	cmp.w	r3, #3584	; 0xe00
   12122:	f200 818e 	bhi.w	12442 <wc_MakeRsaKey+0x3ac>
   12126:	ee19 3a10 	vmov	r3, s18
   1212a:	2b02      	cmp	r3, #2
   1212c:	f340 8189 	ble.w	12442 <wc_MakeRsaKey+0x3ac>
   12130:	07db      	lsls	r3, r3, #31
   12132:	f140 8186 	bpl.w	12442 <wc_MakeRsaKey+0x3ac>
   12136:	2300      	movs	r3, #0
   12138:	4629      	mov	r1, r5
   1213a:	464a      	mov	r2, r9
   1213c:	4620      	mov	r0, r4
   1213e:	e9cd 6300 	strd	r6, r3, [sp]
   12142:	ee18 3a10 	vmov	r3, s16
   12146:	f008 ffc4 	bl	1b0d2 <sp_init_multi>
   1214a:	4601      	mov	r1, r0
   1214c:	2800      	cmp	r0, #0
   1214e:	f040 8125 	bne.w	1239c <wc_MakeRsaKey+0x306>
   12152:	ee19 1a10 	vmov	r1, s18
   12156:	4630      	mov	r0, r6
   12158:	f009 f894 	bl	1b284 <sp_set_int>
   1215c:	4601      	mov	r1, r0
   1215e:	2800      	cmp	r0, #0
   12160:	f040 811c 	bne.w	1239c <wc_MakeRsaKey+0x306>
   12164:	9b03      	ldr	r3, [sp, #12]
   12166:	9104      	str	r1, [sp, #16]
   12168:	ea4f 1a23 	mov.w	sl, r3, asr #4
   1216c:	4650      	mov	r0, sl
   1216e:	f7fe e96a 	blx	10444 <malloc@plt>
   12172:	4680      	mov	r8, r0
   12174:	9904      	ldr	r1, [sp, #16]
   12176:	2800      	cmp	r0, #0
   12178:	f040 8166 	bne.w	12448 <wc_MakeRsaKey+0x3b2>
   1217c:	f06f 017c 	mvn.w	r1, #124	; 0x7c
   12180:	e10c      	b.n	1239c <wc_MakeRsaKey+0x306>
   12182:	9b07      	ldr	r3, [sp, #28]
   12184:	2b00      	cmp	r3, #0
   12186:	f000 819b 	beq.w	124c0 <wc_MakeRsaKey+0x42a>
   1218a:	44c2      	add	sl, r8
   1218c:	4643      	mov	r3, r8
   1218e:	2200      	movs	r2, #0
   12190:	459a      	cmp	sl, r3
   12192:	f040 8128 	bne.w	123e6 <wc_MakeRsaKey+0x350>
   12196:	4640      	mov	r0, r8
   12198:	9104      	str	r1, [sp, #16]
   1219a:	f7fe e93c 	blx	10414 <free@plt>
   1219e:	9904      	ldr	r1, [sp, #16]
   121a0:	2900      	cmp	r1, #0
   121a2:	f040 80fb 	bne.w	1239c <wc_MakeRsaKey+0x306>
   121a6:	4629      	mov	r1, r5
   121a8:	4620      	mov	r0, r4
   121aa:	f009 f807 	bl	1b1bc <sp_cmp>
   121ae:	2800      	cmp	r0, #0
   121b0:	da13      	bge.n	121da <wc_MakeRsaKey+0x144>
   121b2:	4649      	mov	r1, r9
   121b4:	4620      	mov	r0, r4
   121b6:	f008 ffe9 	bl	1b18c <sp_copy>
   121ba:	4601      	mov	r1, r0
   121bc:	2800      	cmp	r0, #0
   121be:	f040 80ed 	bne.w	1239c <wc_MakeRsaKey+0x306>
   121c2:	4621      	mov	r1, r4
   121c4:	4628      	mov	r0, r5
   121c6:	f008 ffe1 	bl	1b18c <sp_copy>
   121ca:	4601      	mov	r1, r0
   121cc:	2800      	cmp	r0, #0
   121ce:	f040 80e5 	bne.w	1239c <wc_MakeRsaKey+0x306>
   121d2:	4629      	mov	r1, r5
   121d4:	4648      	mov	r0, r9
   121d6:	f008 ffd9 	bl	1b18c <sp_copy>
   121da:	f507 6344 	add.w	r3, r7, #3136	; 0xc40
   121de:	f507 7b44 	add.w	fp, r7, #784	; 0x310
   121e2:	f507 6ac4 	add.w	sl, r7, #1568	; 0x620
   121e6:	f507 6813 	add.w	r8, r7, #2352	; 0x930
   121ea:	ee09 3a90 	vmov	s19, r3
   121ee:	2300      	movs	r3, #0
   121f0:	4659      	mov	r1, fp
   121f2:	4652      	mov	r2, sl
   121f4:	4638      	mov	r0, r7
   121f6:	edcd 9a00 	vstr	s19, [sp]
   121fa:	9301      	str	r3, [sp, #4]
   121fc:	4643      	mov	r3, r8
   121fe:	f008 ff68 	bl	1b0d2 <sp_init_multi>
   12202:	4601      	mov	r1, r0
   12204:	2800      	cmp	r0, #0
   12206:	f040 80c9 	bne.w	1239c <wc_MakeRsaKey+0x306>
   1220a:	f507 6375 	add.w	r3, r7, #3920	; 0xf50
   1220e:	e9cd 1100 	strd	r1, r1, [sp]
   12212:	ee0a 3a10 	vmov	s20, r3
   12216:	f507 5393 	add.w	r3, r7, #4704	; 0x1260
   1221a:	ee0a 3a90 	vmov	s21, r3
   1221e:	f507 53ab 	add.w	r3, r7, #5472	; 0x1560
   12222:	3310      	adds	r3, #16
   12224:	9304      	str	r3, [sp, #16]
   12226:	460b      	mov	r3, r1
   12228:	9a04      	ldr	r2, [sp, #16]
   1222a:	ee1a 0a10 	vmov	r0, s20
   1222e:	ee1a 1a90 	vmov	r1, s21
   12232:	f008 ff4e 	bl	1b0d2 <sp_init_multi>
   12236:	4601      	mov	r1, r0
   12238:	2800      	cmp	r0, #0
   1223a:	f040 80af 	bne.w	1239c <wc_MakeRsaKey+0x306>
   1223e:	2101      	movs	r1, #1
   12240:	464a      	mov	r2, r9
   12242:	4620      	mov	r0, r4
   12244:	f009 f880 	bl	1b348 <sp_sub_d>
   12248:	4601      	mov	r1, r0
   1224a:	2800      	cmp	r0, #0
   1224c:	f040 80a6 	bne.w	1239c <wc_MakeRsaKey+0x306>
   12250:	2101      	movs	r1, #1
   12252:	ee18 2a10 	vmov	r2, s16
   12256:	4628      	mov	r0, r5
   12258:	f009 f876 	bl	1b348 <sp_sub_d>
   1225c:	4601      	mov	r1, r0
   1225e:	2800      	cmp	r0, #0
   12260:	f040 809c 	bne.w	1239c <wc_MakeRsaKey+0x306>
   12264:	ee18 1a10 	vmov	r1, s16
   12268:	4632      	mov	r2, r6
   1226a:	4648      	mov	r0, r9
   1226c:	f009 fa99 	bl	1b7a2 <sp_mul>
   12270:	4601      	mov	r1, r0
   12272:	2800      	cmp	r0, #0
   12274:	f040 8092 	bne.w	1239c <wc_MakeRsaKey+0x306>
   12278:	ee19 1a10 	vmov	r1, s18
   1227c:	4658      	mov	r0, fp
   1227e:	f009 f801 	bl	1b284 <sp_set_int>
   12282:	4601      	mov	r1, r0
   12284:	2800      	cmp	r0, #0
   12286:	f040 8089 	bne.w	1239c <wc_MakeRsaKey+0x306>
   1228a:	9b03      	ldr	r3, [sp, #12]
   1228c:	3b01      	subs	r3, #1
   1228e:	ee0b 3a10 	vmov	s22, r3
   12292:	4630      	mov	r0, r6
   12294:	f00a fa1c 	bl	1c6d0 <get_digit_count>
   12298:	4601      	mov	r1, r0
   1229a:	ee18 2a90 	vmov	r2, s17
   1229e:	4640      	mov	r0, r8
   122a0:	f00a fa1c 	bl	1c6dc <mp_rand>
   122a4:	4601      	mov	r1, r0
   122a6:	2800      	cmp	r0, #0
   122a8:	d178      	bne.n	1239c <wc_MakeRsaKey+0x306>
   122aa:	4640      	mov	r0, r8
   122ac:	f008 ffb1 	bl	1b212 <sp_set_bit>
   122b0:	4601      	mov	r1, r0
   122b2:	2800      	cmp	r0, #0
   122b4:	d172      	bne.n	1239c <wc_MakeRsaKey+0x306>
   122b6:	ee1b 1a10 	vmov	r1, s22
   122ba:	4640      	mov	r0, r8
   122bc:	f008 ffa9 	bl	1b212 <sp_set_bit>
   122c0:	4601      	mov	r1, r0
   122c2:	2800      	cmp	r0, #0
   122c4:	d16a      	bne.n	1239c <wc_MakeRsaKey+0x306>
   122c6:	4631      	mov	r1, r6
   122c8:	ee19 2a90 	vmov	r2, s19
   122cc:	4640      	mov	r0, r8
   122ce:	f00a f8c5 	bl	1c45c <sp_gcd>
   122d2:	4601      	mov	r1, r0
   122d4:	2800      	cmp	r0, #0
   122d6:	d161      	bne.n	1239c <wc_MakeRsaKey+0x306>
   122d8:	f8d7 3c40 	ldr.w	r3, [r7, #3136]	; 0xc40
   122dc:	2b01      	cmp	r3, #1
   122de:	d1d8      	bne.n	12292 <wc_MakeRsaKey+0x1fc>
   122e0:	f8d7 3c48 	ldr.w	r3, [r7, #3144]	; 0xc48
   122e4:	2b01      	cmp	r3, #1
   122e6:	d1d4      	bne.n	12292 <wc_MakeRsaKey+0x1fc>
   122e8:	ee19 1a10 	vmov	r1, s18
   122ec:	465a      	mov	r2, fp
   122ee:	4640      	mov	r0, r8
   122f0:	f009 f834 	bl	1b35c <sp_mul_d>
   122f4:	4601      	mov	r1, r0
   122f6:	2800      	cmp	r0, #0
   122f8:	d150      	bne.n	1239c <wc_MakeRsaKey+0x306>
   122fa:	4631      	mov	r1, r6
   122fc:	4652      	mov	r2, sl
   122fe:	4658      	mov	r0, fp
   12300:	f009 fb16 	bl	1b930 <sp_invmod>
   12304:	4601      	mov	r1, r0
   12306:	2800      	cmp	r0, #0
   12308:	d148      	bne.n	1239c <wc_MakeRsaKey+0x306>
   1230a:	4641      	mov	r1, r8
   1230c:	4653      	mov	r3, sl
   1230e:	4632      	mov	r2, r6
   12310:	4650      	mov	r0, sl
   12312:	f009 fad2 	bl	1b8ba <sp_mulmod>
   12316:	4601      	mov	r1, r0
   12318:	2800      	cmp	r0, #0
   1231a:	d13f      	bne.n	1239c <wc_MakeRsaKey+0x306>
   1231c:	ee19 1a10 	vmov	r1, s18
   12320:	4658      	mov	r0, fp
   12322:	f008 ffaf 	bl	1b284 <sp_set_int>
   12326:	4601      	mov	r1, r0
   12328:	bbc0      	cbnz	r0, 1239c <wc_MakeRsaKey+0x306>
   1232a:	4629      	mov	r1, r5
   1232c:	463a      	mov	r2, r7
   1232e:	4620      	mov	r0, r4
   12330:	f009 fa37 	bl	1b7a2 <sp_mul>
   12334:	4601      	mov	r1, r0
   12336:	bb88      	cbnz	r0, 1239c <wc_MakeRsaKey+0x306>
   12338:	4649      	mov	r1, r9
   1233a:	ee1a 2a10 	vmov	r2, s20
   1233e:	4650      	mov	r0, sl
   12340:	f009 fa25 	bl	1b78e <sp_mod>
   12344:	4601      	mov	r1, r0
   12346:	bb48      	cbnz	r0, 1239c <wc_MakeRsaKey+0x306>
   12348:	ee18 1a10 	vmov	r1, s16
   1234c:	4650      	mov	r0, sl
   1234e:	ee1a 2a90 	vmov	r2, s21
   12352:	f009 fa1c 	bl	1b78e <sp_mod>
   12356:	4601      	mov	r1, r0
   12358:	bb00      	cbnz	r0, 1239c <wc_MakeRsaKey+0x306>
   1235a:	2102      	movs	r1, #2
   1235c:	4632      	mov	r2, r6
   1235e:	4620      	mov	r0, r4
   12360:	f008 fff2 	bl	1b348 <sp_sub_d>
   12364:	4601      	mov	r1, r0
   12366:	b9c8      	cbnz	r0, 1239c <wc_MakeRsaKey+0x306>
   12368:	4631      	mov	r1, r6
   1236a:	4622      	mov	r2, r4
   1236c:	9b04      	ldr	r3, [sp, #16]
   1236e:	4628      	mov	r0, r5
   12370:	f009 fdab 	bl	1beca <sp_exptmod>
   12374:	4601      	mov	r1, r0
   12376:	b988      	cbnz	r0, 1239c <wc_MakeRsaKey+0x306>
   12378:	4641      	mov	r1, r8
   1237a:	4620      	mov	r0, r4
   1237c:	f008 ff06 	bl	1b18c <sp_copy>
   12380:	4601      	mov	r1, r0
   12382:	b958      	cbnz	r0, 1239c <wc_MakeRsaKey+0x306>
   12384:	ee19 1a90 	vmov	r1, s19
   12388:	4628      	mov	r0, r5
   1238a:	f008 feff 	bl	1b18c <sp_copy>
   1238e:	4601      	mov	r1, r0
   12390:	b920      	cbnz	r0, 1239c <wc_MakeRsaKey+0x306>
   12392:	f507 5380 	add.w	r3, r7, #4096	; 0x1000
   12396:	2201      	movs	r2, #1
   12398:	f8c3 2888 	str.w	r2, [r3, #2184]	; 0x888
   1239c:	4648      	mov	r0, r9
   1239e:	9103      	str	r1, [sp, #12]
   123a0:	f008 fed5 	bl	1b14e <sp_clear>
   123a4:	ee18 0a10 	vmov	r0, s16
   123a8:	f008 fed1 	bl	1b14e <sp_clear>
   123ac:	4630      	mov	r0, r6
   123ae:	f008 fece 	bl	1b14e <sp_clear>
   123b2:	4620      	mov	r0, r4
   123b4:	f008 fecb 	bl	1b14e <sp_clear>
   123b8:	4628      	mov	r0, r5
   123ba:	f008 fec8 	bl	1b14e <sp_clear>
   123be:	9903      	ldr	r1, [sp, #12]
   123c0:	b931      	cbnz	r1, 123d0 <wc_MakeRsaKey+0x33a>
   123c2:	ee18 1a90 	vmov	r1, s17
   123c6:	4638      	mov	r0, r7
   123c8:	f7ff fe04 	bl	11fd4 <_ifc_pairwise_consistency_test>
   123cc:	4601      	mov	r1, r0
   123ce:	b120      	cbz	r0, 123da <wc_MakeRsaKey+0x344>
   123d0:	4638      	mov	r0, r7
   123d2:	9103      	str	r1, [sp, #12]
   123d4:	f7ff f853 	bl	1147e <wc_FreeRsaKey>
   123d8:	9903      	ldr	r1, [sp, #12]
   123da:	4620      	mov	r0, r4
   123dc:	9103      	str	r1, [sp, #12]
   123de:	f7fe e81a 	blx	10414 <free@plt>
   123e2:	9903      	ldr	r1, [sp, #12]
   123e4:	e004      	b.n	123f0 <wc_MakeRsaKey+0x35a>
   123e6:	f803 2b01 	strb.w	r2, [r3], #1
   123ea:	e6d1      	b.n	12190 <wc_MakeRsaKey+0xfa>
   123ec:	f06f 017c 	mvn.w	r1, #124	; 0x7c
   123f0:	b125      	cbz	r5, 123fc <wc_MakeRsaKey+0x366>
   123f2:	4628      	mov	r0, r5
   123f4:	9103      	str	r1, [sp, #12]
   123f6:	f7fe e80e 	blx	10414 <free@plt>
   123fa:	9903      	ldr	r1, [sp, #12]
   123fc:	f1b9 0f00 	cmp.w	r9, #0
   12400:	d004      	beq.n	1240c <wc_MakeRsaKey+0x376>
   12402:	4648      	mov	r0, r9
   12404:	9103      	str	r1, [sp, #12]
   12406:	f7fe e806 	blx	10414 <free@plt>
   1240a:	9903      	ldr	r1, [sp, #12]
   1240c:	ee18 3a10 	vmov	r3, s16
   12410:	b12b      	cbz	r3, 1241e <wc_MakeRsaKey+0x388>
   12412:	ee18 0a10 	vmov	r0, s16
   12416:	9103      	str	r1, [sp, #12]
   12418:	f7fd effc 	blx	10414 <free@plt>
   1241c:	9903      	ldr	r1, [sp, #12]
   1241e:	b13e      	cbz	r6, 12430 <wc_MakeRsaKey+0x39a>
   12420:	4630      	mov	r0, r6
   12422:	9103      	str	r1, [sp, #12]
   12424:	f7fd eff6 	blx	10414 <free@plt>
   12428:	9903      	ldr	r1, [sp, #12]
   1242a:	e001      	b.n	12430 <wc_MakeRsaKey+0x39a>
   1242c:	f06f 01ac 	mvn.w	r1, #172	; 0xac
   12430:	4608      	mov	r0, r1
   12432:	b009      	add	sp, #36	; 0x24
   12434:	ecbd 8b08 	vpop	{d8-d11}
   12438:	e8bd 8ff0 	ldmia.w	sp!, {r4, r5, r6, r7, r8, r9, sl, fp, pc}
   1243c:	f06f 017c 	mvn.w	r1, #124	; 0x7c
   12440:	e7cb      	b.n	123da <wc_MakeRsaKey+0x344>
   12442:	f06f 01ac 	mvn.w	r1, #172	; 0xac
   12446:	e7c8      	b.n	123da <wc_MakeRsaKey+0x344>
   12448:	f10a 33ff 	add.w	r3, sl, #4294967295
   1244c:	f10d 0b1c 	add.w	fp, sp, #28
   12450:	9107      	str	r1, [sp, #28]
   12452:	18c3      	adds	r3, r0, r3
   12454:	9304      	str	r3, [sp, #16]
   12456:	4641      	mov	r1, r8
   12458:	ee18 0a90 	vmov	r0, s17
   1245c:	4652      	mov	r2, sl
   1245e:	f7fe fd1b 	bl	10e98 <wc_RNG_GenerateBlock>
   12462:	4601      	mov	r1, r0
   12464:	2800      	cmp	r0, #0
   12466:	f47f ae90 	bne.w	1218a <wc_MakeRsaKey+0xf4>
   1246a:	f898 3000 	ldrb.w	r3, [r8]
   1246e:	4641      	mov	r1, r8
   12470:	4620      	mov	r0, r4
   12472:	9a04      	ldr	r2, [sp, #16]
   12474:	f063 037f 	orn	r3, r3, #127	; 0x7f
   12478:	f888 3000 	strb.w	r3, [r8]
   1247c:	9b04      	ldr	r3, [sp, #16]
   1247e:	781b      	ldrb	r3, [r3, #0]
   12480:	f043 0301 	orr.w	r3, r3, #1
   12484:	7013      	strb	r3, [r2, #0]
   12486:	4652      	mov	r2, sl
   12488:	f009 fdc8 	bl	1c01c <sp_read_unsigned_bin>
   1248c:	4601      	mov	r1, r0
   1248e:	2800      	cmp	r0, #0
   12490:	f47f ae7b 	bne.w	1218a <wc_MakeRsaKey+0xf4>
   12494:	ee18 3a90 	vmov	r3, s17
   12498:	4632      	mov	r2, r6
   1249a:	4620      	mov	r0, r4
   1249c:	e9cd b300 	strd	fp, r3, [sp]
   124a0:	9b03      	ldr	r3, [sp, #12]
   124a2:	f7fe fe43 	bl	1112c <_CheckProbablePrime>
   124a6:	4601      	mov	r1, r0
   124a8:	2800      	cmp	r0, #0
   124aa:	f47f ae6e 	bne.w	1218a <wc_MakeRsaKey+0xf4>
   124ae:	9b07      	ldr	r3, [sp, #28]
   124b0:	2b00      	cmp	r3, #0
   124b2:	d0d0      	beq.n	12456 <wc_MakeRsaKey+0x3c0>
   124b4:	9b03      	ldr	r3, [sp, #12]
   124b6:	9007      	str	r0, [sp, #28]
   124b8:	ea4f 0ba3 	mov.w	fp, r3, asr #2
   124bc:	f10b 0b20 	add.w	fp, fp, #32
   124c0:	4641      	mov	r1, r8
   124c2:	ee18 0a90 	vmov	r0, s17
   124c6:	4652      	mov	r2, sl
   124c8:	f7fe fce6 	bl	10e98 <wc_RNG_GenerateBlock>
   124cc:	4601      	mov	r1, r0
   124ce:	2800      	cmp	r0, #0
   124d0:	f47f ae5b 	bne.w	1218a <wc_MakeRsaKey+0xf4>
   124d4:	f898 3000 	ldrb.w	r3, [r8]
   124d8:	4641      	mov	r1, r8
   124da:	4628      	mov	r0, r5
   124dc:	9a04      	ldr	r2, [sp, #16]
   124de:	f063 037f 	orn	r3, r3, #127	; 0x7f
   124e2:	f888 3000 	strb.w	r3, [r8]
   124e6:	9b04      	ldr	r3, [sp, #16]
   124e8:	781b      	ldrb	r3, [r3, #0]
   124ea:	f043 0301 	orr.w	r3, r3, #1
   124ee:	7013      	strb	r3, [r2, #0]
   124f0:	4652      	mov	r2, sl
   124f2:	f009 fd93 	bl	1c01c <sp_read_unsigned_bin>
   124f6:	4601      	mov	r1, r0
   124f8:	2800      	cmp	r0, #0
   124fa:	f47f ae46 	bne.w	1218a <wc_MakeRsaKey+0xf4>
   124fe:	ab07      	add	r3, sp, #28
   12500:	4629      	mov	r1, r5
   12502:	4632      	mov	r2, r6
   12504:	4620      	mov	r0, r4
   12506:	9300      	str	r3, [sp, #0]
   12508:	edcd 8a01 	vstr	s17, [sp, #4]
   1250c:	9b03      	ldr	r3, [sp, #12]
   1250e:	f7fe fe0d 	bl	1112c <_CheckProbablePrime>
   12512:	4601      	mov	r1, r0
   12514:	2800      	cmp	r0, #0
   12516:	f47f ae38 	bne.w	1218a <wc_MakeRsaKey+0xf4>
   1251a:	9b07      	ldr	r3, [sp, #28]
   1251c:	2b00      	cmp	r3, #0
   1251e:	d0cf      	beq.n	124c0 <wc_MakeRsaKey+0x42a>
   12520:	4629      	mov	r1, r5
   12522:	464a      	mov	r2, r9
   12524:	4620      	mov	r0, r4
   12526:	f008 ff2a 	bl	1b37e <sp_sub>
   1252a:	4601      	mov	r1, r0
   1252c:	2800      	cmp	r0, #0
   1252e:	f47f ae2c 	bne.w	1218a <wc_MakeRsaKey+0xf4>
   12532:	4648      	mov	r0, r9
   12534:	9105      	str	r1, [sp, #20]
   12536:	f008 fe4e 	bl	1b1d6 <sp_count_bits>
   1253a:	4558      	cmp	r0, fp
   1253c:	9905      	ldr	r1, [sp, #20]
   1253e:	f73f ae20 	bgt.w	12182 <wc_MakeRsaKey+0xec>
   12542:	9107      	str	r1, [sp, #28]
   12544:	e7bc      	b.n	124c0 <wc_MakeRsaKey+0x42a>

00012546 <wc_RsaSetRNG>:
   12546:	b130      	cbz	r0, 12556 <wc_RsaSetRNG+0x10>
   12548:	b129      	cbz	r1, 12556 <wc_RsaSetRNG+0x10>
   1254a:	f500 5080 	add.w	r0, r0, #4096	; 0x1000
   1254e:	f8c0 1894 	str.w	r1, [r0, #2196]	; 0x894
   12552:	2000      	movs	r0, #0
   12554:	4770      	bx	lr
   12556:	f06f 00ac 	mvn.w	r0, #172	; 0xac
   1255a:	4770      	bx	lr

0001255c <ByteReverseWords>:
   1255c:	0892      	lsrs	r2, r2, #2
   1255e:	2300      	movs	r3, #0
   12560:	b510      	push	{r4, lr}
   12562:	f851 4023 	ldr.w	r4, [r1, r3, lsl #2]
   12566:	ba24      	rev	r4, r4
   12568:	f840 4023 	str.w	r4, [r0, r3, lsl #2]
   1256c:	3301      	adds	r3, #1
   1256e:	429a      	cmp	r2, r3
   12570:	d1f7      	bne.n	12562 <ByteReverseWords+0x6>
   12572:	bd10      	pop	{r4, pc}

00012574 <Transform>:
   12574:	6cc3      	ldr	r3, [r0, #76]	; 0x4c
   12576:	e92d 4ff0 	stmdb	sp!, {r4, r5, r6, r7, r8, r9, sl, fp, lr}
   1257a:	b099      	sub	sp, #100	; 0x64
   1257c:	9001      	str	r0, [sp, #4]
   1257e:	930f      	str	r3, [sp, #60]	; 0x3c
   12580:	6d03      	ldr	r3, [r0, #80]	; 0x50
   12582:	e9d1 a902 	ldrd	sl, r9, [r1, #8]
   12586:	9302      	str	r3, [sp, #8]
   12588:	6d43      	ldr	r3, [r0, #84]	; 0x54
   1258a:	9306      	str	r3, [sp, #24]
   1258c:	6d83      	ldr	r3, [r0, #88]	; 0x58
   1258e:	9d06      	ldr	r5, [sp, #24]
   12590:	9310      	str	r3, [sp, #64]	; 0x40
   12592:	6dc3      	ldr	r3, [r0, #92]	; 0x5c
   12594:	9806      	ldr	r0, [sp, #24]
   12596:	9c10      	ldr	r4, [sp, #64]	; 0x40
   12598:	9313      	str	r3, [sp, #76]	; 0x4c
   1259a:	680b      	ldr	r3, [r1, #0]
   1259c:	9307      	str	r3, [sp, #28]
   1259e:	4bd9      	ldr	r3, [pc, #868]	; (12904 <Transform+0x390>)
   125a0:	9a07      	ldr	r2, [sp, #28]
   125a2:	eb02 0e03 	add.w	lr, r2, r3
   125a6:	9a13      	ldr	r2, [sp, #76]	; 0x4c
   125a8:	4496      	add	lr, r2
   125aa:	9a0f      	ldr	r2, [sp, #60]	; 0x3c
   125ac:	eb0e 62f2 	add.w	r2, lr, r2, ror #27
   125b0:	ea80 0e04 	eor.w	lr, r0, r4
   125b4:	9802      	ldr	r0, [sp, #8]
   125b6:	ea0e 0e00 	and.w	lr, lr, r0
   125ba:	9802      	ldr	r0, [sp, #8]
   125bc:	ea8e 0e04 	eor.w	lr, lr, r4
   125c0:	4496      	add	lr, r2
   125c2:	684a      	ldr	r2, [r1, #4]
   125c4:	9208      	str	r2, [sp, #32]
   125c6:	9a06      	ldr	r2, [sp, #24]
   125c8:	ea82 00b0 	eor.w	r0, r2, r0, ror #2
   125cc:	9a0f      	ldr	r2, [sp, #60]	; 0x3c
   125ce:	4010      	ands	r0, r2
   125d0:	9a06      	ldr	r2, [sp, #24]
   125d2:	4050      	eors	r0, r2
   125d4:	9a08      	ldr	r2, [sp, #32]
   125d6:	441a      	add	r2, r3
   125d8:	4422      	add	r2, r4
   125da:	4410      	add	r0, r2
   125dc:	9a0f      	ldr	r2, [sp, #60]	; 0x3c
   125de:	eb00 60fe 	add.w	r0, r0, lr, ror #27
   125e2:	ea4f 04b2 	mov.w	r4, r2, ror #2
   125e6:	9a02      	ldr	r2, [sp, #8]
   125e8:	ea84 0cbe 	eor.w	ip, r4, lr, ror #2
   125ec:	ea0c 0c00 	and.w	ip, ip, r0
   125f0:	ea84 07b2 	eor.w	r7, r4, r2, ror #2
   125f4:	ea8c 0c04 	eor.w	ip, ip, r4
   125f8:	ea07 070e 	and.w	r7, r7, lr
   125fc:	ea87 07b2 	eor.w	r7, r7, r2, ror #2
   12600:	eb0a 0203 	add.w	r2, sl, r3
   12604:	442a      	add	r2, r5
   12606:	9d02      	ldr	r5, [sp, #8]
   12608:	4417      	add	r7, r2
   1260a:	eb09 0203 	add.w	r2, r9, r3
   1260e:	eb07 67f0 	add.w	r7, r7, r0, ror #27
   12612:	f8d1 b010 	ldr.w	fp, [r1, #16]
   12616:	ea4f 00b0 	mov.w	r0, r0, ror #2
   1261a:	ea80 06be 	eor.w	r6, r0, lr, ror #2
   1261e:	eb02 02b5 	add.w	r2, r2, r5, ror #2
   12622:	403e      	ands	r6, r7
   12624:	ea86 06be 	eor.w	r6, r6, lr, ror #2
   12628:	4494      	add	ip, r2
   1262a:	eb0b 0203 	add.w	r2, fp, r3
   1262e:	4422      	add	r2, r4
   12630:	eb0c 6cf7 	add.w	ip, ip, r7, ror #27
   12634:	4416      	add	r6, r2
   12636:	694a      	ldr	r2, [r1, #20]
   12638:	ea80 04b7 	eor.w	r4, r0, r7, ror #2
   1263c:	eb06 66fc 	add.w	r6, r6, ip, ror #27
   12640:	ea04 040c 	and.w	r4, r4, ip
   12644:	ea4f 0cbc 	mov.w	ip, ip, ror #2
   12648:	4044      	eors	r4, r0
   1264a:	ea8c 05b7 	eor.w	r5, ip, r7, ror #2
   1264e:	920a      	str	r2, [sp, #40]	; 0x28
   12650:	441a      	add	r2, r3
   12652:	eb02 02be 	add.w	r2, r2, lr, ror #2
   12656:	4035      	ands	r5, r6
   12658:	f8d1 e020 	ldr.w	lr, [r1, #32]
   1265c:	ea85 05b7 	eor.w	r5, r5, r7, ror #2
   12660:	4414      	add	r4, r2
   12662:	698a      	ldr	r2, [r1, #24]
   12664:	eb04 64f6 	add.w	r4, r4, r6, ror #27
   12668:	9211      	str	r2, [sp, #68]	; 0x44
   1266a:	441a      	add	r2, r3
   1266c:	4402      	add	r2, r0
   1266e:	ea8c 00b6 	eor.w	r0, ip, r6, ror #2
   12672:	4415      	add	r5, r2
   12674:	69ca      	ldr	r2, [r1, #28]
   12676:	eb05 65f4 	add.w	r5, r5, r4, ror #27
   1267a:	4020      	ands	r0, r4
   1267c:	ea4f 04b4 	mov.w	r4, r4, ror #2
   12680:	ea80 000c 	eor.w	r0, r0, ip
   12684:	9212      	str	r2, [sp, #72]	; 0x48
   12686:	441a      	add	r2, r3
   12688:	eb02 02b7 	add.w	r2, r2, r7, ror #2
   1268c:	eb0e 0703 	add.w	r7, lr, r3
   12690:	4467      	add	r7, ip
   12692:	ea84 0cb5 	eor.w	ip, r4, r5, ror #2
   12696:	4410      	add	r0, r2
   12698:	ea84 02b6 	eor.w	r2, r4, r6, ror #2
   1269c:	eb00 60f5 	add.w	r0, r0, r5, ror #27
   126a0:	402a      	ands	r2, r5
   126a2:	ea82 02b6 	eor.w	r2, r2, r6, ror #2
   126a6:	ea0c 0c00 	and.w	ip, ip, r0
   126aa:	ea8c 0c04 	eor.w	ip, ip, r4
   126ae:	443a      	add	r2, r7
   126b0:	6a4f      	ldr	r7, [r1, #36]	; 0x24
   126b2:	eb02 62f0 	add.w	r2, r2, r0, ror #27
   126b6:	ea4f 00b0 	mov.w	r0, r0, ror #2
   126ba:	ea80 08b5 	eor.w	r8, r0, r5, ror #2
   126be:	970b      	str	r7, [sp, #44]	; 0x2c
   126c0:	441f      	add	r7, r3
   126c2:	eb07 06b6 	add.w	r6, r7, r6, ror #2
   126c6:	ea08 0802 	and.w	r8, r8, r2
   126ca:	ea88 08b5 	eor.w	r8, r8, r5, ror #2
   126ce:	44b4      	add	ip, r6
   126d0:	6a8e      	ldr	r6, [r1, #40]	; 0x28
   126d2:	eb0c 6cf2 	add.w	ip, ip, r2, ror #27
   126d6:	960c      	str	r6, [sp, #48]	; 0x30
   126d8:	441e      	add	r6, r3
   126da:	4434      	add	r4, r6
   126dc:	44a0      	add	r8, r4
   126de:	6acc      	ldr	r4, [r1, #44]	; 0x2c
   126e0:	eb08 68fc 	add.w	r8, r8, ip, ror #27
   126e4:	940d      	str	r4, [sp, #52]	; 0x34
   126e6:	ea80 04b2 	eor.w	r4, r0, r2, ror #2
   126ea:	9e0d      	ldr	r6, [sp, #52]	; 0x34
   126ec:	ea04 040c 	and.w	r4, r4, ip
   126f0:	ea4f 0cbc 	mov.w	ip, ip, ror #2
   126f4:	4044      	eors	r4, r0
   126f6:	ea8c 07b2 	eor.w	r7, ip, r2, ror #2
   126fa:	441e      	add	r6, r3
   126fc:	ea07 0708 	and.w	r7, r7, r8
   12700:	eb06 05b5 	add.w	r5, r6, r5, ror #2
   12704:	ea87 07b2 	eor.w	r7, r7, r2, ror #2
   12708:	442c      	add	r4, r5
   1270a:	6b0d      	ldr	r5, [r1, #48]	; 0x30
   1270c:	eb04 64f8 	add.w	r4, r4, r8, ror #27
   12710:	950e      	str	r5, [sp, #56]	; 0x38
   12712:	441d      	add	r5, r3
   12714:	4428      	add	r0, r5
   12716:	4407      	add	r7, r0
   12718:	6b48      	ldr	r0, [r1, #52]	; 0x34
   1271a:	eb07 67f4 	add.w	r7, r7, r4, ror #27
   1271e:	9003      	str	r0, [sp, #12]
   12720:	ea8c 00b8 	eor.w	r0, ip, r8, ror #2
   12724:	9d03      	ldr	r5, [sp, #12]
   12726:	4020      	ands	r0, r4
   12728:	ea4f 04b4 	mov.w	r4, r4, ror #2
   1272c:	ea80 000c 	eor.w	r0, r0, ip
   12730:	ea84 06b8 	eor.w	r6, r4, r8, ror #2
   12734:	441d      	add	r5, r3
   12736:	403e      	ands	r6, r7
   12738:	eb05 02b2 	add.w	r2, r5, r2, ror #2
   1273c:	9d03      	ldr	r5, [sp, #12]
   1273e:	ea86 06b8 	eor.w	r6, r6, r8, ror #2
   12742:	4410      	add	r0, r2
   12744:	6b8a      	ldr	r2, [r1, #56]	; 0x38
   12746:	eb00 60f7 	add.w	r0, r0, r7, ror #27
   1274a:	9204      	str	r2, [sp, #16]
   1274c:	441a      	add	r2, r3
   1274e:	4462      	add	r2, ip
   12750:	4416      	add	r6, r2
   12752:	6bca      	ldr	r2, [r1, #60]	; 0x3c
   12754:	ea84 01b7 	eor.w	r1, r4, r7, ror #2
   12758:	eb06 66f0 	add.w	r6, r6, r0, ror #27
   1275c:	4001      	ands	r1, r0
   1275e:	ea4f 00b0 	mov.w	r0, r0, ror #2
   12762:	4061      	eors	r1, r4
   12764:	9205      	str	r2, [sp, #20]
   12766:	441a      	add	r2, r3
   12768:	eb02 02b8 	add.w	r2, r2, r8, ror #2
   1276c:	4411      	add	r1, r2
   1276e:	9a07      	ldr	r2, [sp, #28]
   12770:	eb01 61f6 	add.w	r1, r1, r6, ror #27
   12774:	ea82 020a 	eor.w	r2, r2, sl
   12778:	ea8a 0a0b 	eor.w	sl, sl, fp
   1277c:	ea82 020e 	eor.w	r2, r2, lr
   12780:	406a      	eors	r2, r5
   12782:	ea80 05b7 	eor.w	r5, r0, r7, ror #2
   12786:	4035      	ands	r5, r6
   12788:	9207      	str	r2, [sp, #28]
   1278a:	eb03 72f2 	add.w	r2, r3, r2, ror #31
   1278e:	ea85 05b7 	eor.w	r5, r5, r7, ror #2
   12792:	4422      	add	r2, r4
   12794:	ea80 04b6 	eor.w	r4, r0, r6, ror #2
   12798:	4415      	add	r5, r2
   1279a:	9a08      	ldr	r2, [sp, #32]
   1279c:	400c      	ands	r4, r1
   1279e:	eb05 65f1 	add.w	r5, r5, r1, ror #27
   127a2:	4044      	eors	r4, r0
   127a4:	ea4f 01b1 	mov.w	r1, r1, ror #2
   127a8:	ea82 0c09 	eor.w	ip, r2, r9
   127ac:	9a0b      	ldr	r2, [sp, #44]	; 0x2c
   127ae:	ea8c 0c02 	eor.w	ip, ip, r2
   127b2:	9a04      	ldr	r2, [sp, #16]
   127b4:	ea8c 0202 	eor.w	r2, ip, r2
   127b8:	9208      	str	r2, [sp, #32]
   127ba:	eb03 72f2 	add.w	r2, r3, r2, ror #31
   127be:	eb02 02b7 	add.w	r2, r2, r7, ror #2
   127c2:	4414      	add	r4, r2
   127c4:	9a0c      	ldr	r2, [sp, #48]	; 0x30
   127c6:	eb04 64f5 	add.w	r4, r4, r5, ror #27
   127ca:	ea8a 0a02 	eor.w	sl, sl, r2
   127ce:	9a05      	ldr	r2, [sp, #20]
   127d0:	ea8a 0a02 	eor.w	sl, sl, r2
   127d4:	ea4f 72fa 	mov.w	r2, sl, ror #31
   127d8:	eb03 77fa 	add.w	r7, r3, sl, ror #31
   127dc:	9214      	str	r2, [sp, #80]	; 0x50
   127de:	ea81 02b6 	eor.w	r2, r1, r6, ror #2
   127e2:	4438      	add	r0, r7
   127e4:	402a      	ands	r2, r5
   127e6:	ea82 02b6 	eor.w	r2, r2, r6, ror #2
   127ea:	4402      	add	r2, r0
   127ec:	980a      	ldr	r0, [sp, #40]	; 0x28
   127ee:	eb02 62f4 	add.w	r2, r2, r4, ror #27
   127f2:	ea89 0700 	eor.w	r7, r9, r0
   127f6:	980d      	ldr	r0, [sp, #52]	; 0x34
   127f8:	4047      	eors	r7, r0
   127fa:	9807      	ldr	r0, [sp, #28]
   127fc:	ea87 77f0 	eor.w	r7, r7, r0, ror #31
   12800:	ea4f 70f7 	mov.w	r0, r7, ror #31
   12804:	eb03 73f7 	add.w	r3, r3, r7, ror #31
   12808:	9015      	str	r0, [sp, #84]	; 0x54
   1280a:	ea81 00b5 	eor.w	r0, r1, r5, ror #2
   1280e:	eb03 03b6 	add.w	r3, r3, r6, ror #2
   12812:	9e0e      	ldr	r6, [sp, #56]	; 0x38
   12814:	4020      	ands	r0, r4
   12816:	ea4f 04b4 	mov.w	r4, r4, ror #2
   1281a:	4048      	eors	r0, r1
   1281c:	4418      	add	r0, r3
   1281e:	9b11      	ldr	r3, [sp, #68]	; 0x44
   12820:	ea84 0cb2 	eor.w	ip, r4, r2, ror #2
   12824:	eb00 60f2 	add.w	r0, r0, r2, ror #27
   12828:	ea8c 0c00 	eor.w	ip, ip, r0
   1282c:	ea8b 0303 	eor.w	r3, fp, r3
   12830:	ea84 0bb5 	eor.w	fp, r4, r5, ror #2
   12834:	4073      	eors	r3, r6
   12836:	9e08      	ldr	r6, [sp, #32]
   12838:	ea8b 0b02 	eor.w	fp, fp, r2
   1283c:	ea83 73f6 	eor.w	r3, r3, r6, ror #31
   12840:	9309      	str	r3, [sp, #36]	; 0x24
   12842:	4b31      	ldr	r3, [pc, #196]	; (12908 <Transform+0x394>)
   12844:	9e09      	ldr	r6, [sp, #36]	; 0x24
   12846:	eb03 76f6 	add.w	r6, r3, r6, ror #31
   1284a:	4431      	add	r1, r6
   1284c:	9e12      	ldr	r6, [sp, #72]	; 0x48
   1284e:	448b      	add	fp, r1
   12850:	990a      	ldr	r1, [sp, #40]	; 0x28
   12852:	eb0b 6bf0 	add.w	fp, fp, r0, ror #27
   12856:	ea4f 00b0 	mov.w	r0, r0, ror #2
   1285a:	ea80 08b2 	eor.w	r8, r0, r2, ror #2
   1285e:	ea80 09bb 	eor.w	r9, r0, fp, ror #2
   12862:	4071      	eors	r1, r6
   12864:	9e03      	ldr	r6, [sp, #12]
   12866:	ea88 080b 	eor.w	r8, r8, fp
   1286a:	4071      	eors	r1, r6
   1286c:	ea81 71fa 	eor.w	r1, r1, sl, ror #31
   12870:	eb03 76f1 	add.w	r6, r3, r1, ror #31
   12874:	eb06 05b5 	add.w	r5, r6, r5, ror #2
   12878:	9e04      	ldr	r6, [sp, #16]
   1287a:	44ac      	add	ip, r5
   1287c:	9d11      	ldr	r5, [sp, #68]	; 0x44
   1287e:	eb0c 6cfb 	add.w	ip, ip, fp, ror #27
   12882:	ea89 090c 	eor.w	r9, r9, ip
   12886:	ea85 050e 	eor.w	r5, r5, lr
   1288a:	4075      	eors	r5, r6
   1288c:	ea85 75f7 	eor.w	r5, r5, r7, ror #31
   12890:	ea4f 76f5 	mov.w	r6, r5, ror #31
   12894:	9611      	str	r6, [sp, #68]	; 0x44
   12896:	eb03 76f5 	add.w	r6, r3, r5, ror #31
   1289a:	4434      	add	r4, r6
   1289c:	9e0b      	ldr	r6, [sp, #44]	; 0x2c
   1289e:	44a0      	add	r8, r4
   128a0:	9c12      	ldr	r4, [sp, #72]	; 0x48
   128a2:	eb08 68fc 	add.w	r8, r8, ip, ror #27
   128a6:	ea4f 0cbc 	mov.w	ip, ip, ror #2
   128aa:	4066      	eors	r6, r4
   128ac:	9c05      	ldr	r4, [sp, #20]
   128ae:	4066      	eors	r6, r4
   128b0:	9c09      	ldr	r4, [sp, #36]	; 0x24
   128b2:	ea86 76f4 	eor.w	r6, r6, r4, ror #31
   128b6:	ea4f 74f6 	mov.w	r4, r6, ror #31
   128ba:	9412      	str	r4, [sp, #72]	; 0x48
   128bc:	eb03 74f6 	add.w	r4, r3, r6, ror #31
   128c0:	eb04 02b2 	add.w	r2, r4, r2, ror #2
   128c4:	9c07      	ldr	r4, [sp, #28]
   128c6:	4491      	add	r9, r2
   128c8:	9a0c      	ldr	r2, [sp, #48]	; 0x30
   128ca:	eb09 69f8 	add.w	r9, r9, r8, ror #27
   128ce:	ea8e 0202 	eor.w	r2, lr, r2
   128d2:	ea82 72f4 	eor.w	r2, r2, r4, ror #31
   128d6:	ea8c 04bb 	eor.w	r4, ip, fp, ror #2
   128da:	ea82 72f1 	eor.w	r2, r2, r1, ror #31
   128de:	ea84 0408 	eor.w	r4, r4, r8
   128e2:	eb03 7ef2 	add.w	lr, r3, r2, ror #31
   128e6:	920a      	str	r2, [sp, #40]	; 0x28
   128e8:	4470      	add	r0, lr
   128ea:	ea8c 0eb8 	eor.w	lr, ip, r8, ror #2
   128ee:	4404      	add	r4, r0
   128f0:	980b      	ldr	r0, [sp, #44]	; 0x2c
   128f2:	ea8e 0e09 	eor.w	lr, lr, r9
   128f6:	eb04 64f9 	add.w	r4, r4, r9, ror #27
   128fa:	4602      	mov	r2, r0
   128fc:	980d      	ldr	r0, [sp, #52]	; 0x34
   128fe:	4050      	eors	r0, r2
   12900:	9a08      	ldr	r2, [sp, #32]
   12902:	e003      	b.n	1290c <Transform+0x398>
   12904:	5a827999 	.word	0x5a827999
   12908:	6ed9eba1 	.word	0x6ed9eba1
   1290c:	ea80 70f2 	eor.w	r0, r0, r2, ror #31
   12910:	ea80 72f5 	eor.w	r2, r0, r5, ror #31
   12914:	eb03 70f2 	add.w	r0, r3, r2, ror #31
   12918:	920b      	str	r2, [sp, #44]	; 0x2c
   1291a:	9a0c      	ldr	r2, [sp, #48]	; 0x30
   1291c:	eb00 00bb 	add.w	r0, r0, fp, ror #2
   12920:	4486      	add	lr, r0
   12922:	ea4f 00b9 	mov.w	r0, r9, ror #2
   12926:	eb0e 6ef4 	add.w	lr, lr, r4, ror #27
   1292a:	ea80 0bb8 	eor.w	fp, r0, r8, ror #2
   1292e:	4691      	mov	r9, r2
   12930:	9a0e      	ldr	r2, [sp, #56]	; 0x38
   12932:	ea8b 0b04 	eor.w	fp, fp, r4
   12936:	ea89 0902 	eor.w	r9, r9, r2
   1293a:	ea89 7afa 	eor.w	sl, r9, sl, ror #31
   1293e:	ea8a 7af6 	eor.w	sl, sl, r6, ror #31
   12942:	ea4f 72fa 	mov.w	r2, sl, ror #31
   12946:	eb03 79fa 	add.w	r9, r3, sl, ror #31
   1294a:	9216      	str	r2, [sp, #88]	; 0x58
   1294c:	44cc      	add	ip, r9
   1294e:	9a0d      	ldr	r2, [sp, #52]	; 0x34
   12950:	44e3      	add	fp, ip
   12952:	eb0b 6bfe 	add.w	fp, fp, lr, ror #27
   12956:	4694      	mov	ip, r2
   12958:	9a03      	ldr	r2, [sp, #12]
   1295a:	ea8c 0902 	eor.w	r9, ip, r2
   1295e:	9a0a      	ldr	r2, [sp, #40]	; 0x28
   12960:	ea80 0cb4 	eor.w	ip, r0, r4, ror #2
   12964:	ea89 77f7 	eor.w	r7, r9, r7, ror #31
   12968:	ea8c 0c0e 	eor.w	ip, ip, lr
   1296c:	ea4f 0ebe 	mov.w	lr, lr, ror #2
   12970:	ea87 77f2 	eor.w	r7, r7, r2, ror #31
   12974:	ea4f 72f7 	mov.w	r2, r7, ror #31
   12978:	eb03 79f7 	add.w	r9, r3, r7, ror #31
   1297c:	920d      	str	r2, [sp, #52]	; 0x34
   1297e:	eb09 08b8 	add.w	r8, r9, r8, ror #2
   12982:	9a0e      	ldr	r2, [sp, #56]	; 0x38
   12984:	44c4      	add	ip, r8
   12986:	eb0c 6cfb 	add.w	ip, ip, fp, ror #27
   1298a:	4690      	mov	r8, r2
   1298c:	9a04      	ldr	r2, [sp, #16]
   1298e:	ea88 0802 	eor.w	r8, r8, r2
   12992:	9a09      	ldr	r2, [sp, #36]	; 0x24
   12994:	ea88 78f2 	eor.w	r8, r8, r2, ror #31
   12998:	9a0b      	ldr	r2, [sp, #44]	; 0x2c
   1299a:	ea88 72f2 	eor.w	r2, r8, r2, ror #31
   1299e:	ea8e 08b4 	eor.w	r8, lr, r4, ror #2
   129a2:	eb03 79f2 	add.w	r9, r3, r2, ror #31
   129a6:	ea88 080b 	eor.w	r8, r8, fp
   129aa:	920c      	str	r2, [sp, #48]	; 0x30
   129ac:	4448      	add	r0, r9
   129ae:	9a03      	ldr	r2, [sp, #12]
   129b0:	ea8e 09bb 	eor.w	r9, lr, fp, ror #2
   129b4:	4480      	add	r8, r0
   129b6:	9805      	ldr	r0, [sp, #20]
   129b8:	ea89 090c 	eor.w	r9, r9, ip
   129bc:	eb08 68fc 	add.w	r8, r8, ip, ror #27
   129c0:	ea4f 0cbc 	mov.w	ip, ip, ror #2
   129c4:	4050      	eors	r0, r2
   129c6:	ea80 70f1 	eor.w	r0, r0, r1, ror #31
   129ca:	ea80 72fa 	eor.w	r2, r0, sl, ror #31
   129ce:	eb03 70f2 	add.w	r0, r3, r2, ror #31
   129d2:	9203      	str	r2, [sp, #12]
   129d4:	eb00 00b4 	add.w	r0, r0, r4, ror #2
   129d8:	9a04      	ldr	r2, [sp, #16]
   129da:	ea8c 04bb 	eor.w	r4, ip, fp, ror #2
   129de:	4481      	add	r9, r0
   129e0:	9807      	ldr	r0, [sp, #28]
   129e2:	ea84 0408 	eor.w	r4, r4, r8
   129e6:	eb09 69f8 	add.w	r9, r9, r8, ror #27
   129ea:	ea82 70f0 	eor.w	r0, r2, r0, ror #31
   129ee:	ea80 75f5 	eor.w	r5, r0, r5, ror #31
   129f2:	ea85 75f7 	eor.w	r5, r5, r7, ror #31
   129f6:	ea4f 72f5 	mov.w	r2, r5, ror #31
   129fa:	eb03 70f5 	add.w	r0, r3, r5, ror #31
   129fe:	4470      	add	r0, lr
   12a00:	920e      	str	r2, [sp, #56]	; 0x38
   12a02:	4404      	add	r4, r0
   12a04:	9a05      	ldr	r2, [sp, #20]
   12a06:	eb04 64f9 	add.w	r4, r4, r9, ror #27
   12a0a:	9808      	ldr	r0, [sp, #32]
   12a0c:	ea82 70f0 	eor.w	r0, r2, r0, ror #31
   12a10:	9a0c      	ldr	r2, [sp, #48]	; 0x30
   12a12:	ea80 70f6 	eor.w	r0, r0, r6, ror #31
   12a16:	ea8c 06b8 	eor.w	r6, ip, r8, ror #2
   12a1a:	ea80 70f2 	eor.w	r0, r0, r2, ror #31
   12a1e:	ea86 0609 	eor.w	r6, r6, r9
   12a22:	ea4f 09b9 	mov.w	r9, r9, ror #2
   12a26:	ea4f 72f0 	mov.w	r2, r0, ror #31
   12a2a:	eb03 7ef0 	add.w	lr, r3, r0, ror #31
   12a2e:	9217      	str	r2, [sp, #92]	; 0x5c
   12a30:	eb0e 0ebb 	add.w	lr, lr, fp, ror #2
   12a34:	9a14      	ldr	r2, [sp, #80]	; 0x50
   12a36:	ea89 0bb8 	eor.w	fp, r9, r8, ror #2
   12a3a:	4476      	add	r6, lr
   12a3c:	ea8b 0b04 	eor.w	fp, fp, r4
   12a40:	eb06 66f4 	add.w	r6, r6, r4, ror #27
   12a44:	4696      	mov	lr, r2
   12a46:	9a07      	ldr	r2, [sp, #28]
   12a48:	ea8e 7ef2 	eor.w	lr, lr, r2, ror #31
   12a4c:	9a0a      	ldr	r2, [sp, #40]	; 0x28
   12a4e:	ea8e 7ef2 	eor.w	lr, lr, r2, ror #31
   12a52:	9a03      	ldr	r2, [sp, #12]
   12a54:	ea8e 72f2 	eor.w	r2, lr, r2, ror #31
   12a58:	eb03 7ef2 	add.w	lr, r3, r2, ror #31
   12a5c:	9204      	str	r2, [sp, #16]
   12a5e:	9a15      	ldr	r2, [sp, #84]	; 0x54
   12a60:	44f4      	add	ip, lr
   12a62:	ea89 0eb4 	eor.w	lr, r9, r4, ror #2
   12a66:	44e3      	add	fp, ip
   12a68:	eb0b 6bf6 	add.w	fp, fp, r6, ror #27
   12a6c:	ea8e 0e06 	eor.w	lr, lr, r6
   12a70:	4694      	mov	ip, r2
   12a72:	9a08      	ldr	r2, [sp, #32]
   12a74:	ea8c 7cf2 	eor.w	ip, ip, r2, ror #31
   12a78:	9a0b      	ldr	r2, [sp, #44]	; 0x2c
   12a7a:	ea8c 7cf2 	eor.w	ip, ip, r2, ror #31
   12a7e:	ea8c 72f5 	eor.w	r2, ip, r5, ror #31
   12a82:	eb03 7cf2 	add.w	ip, r3, r2, ror #31
   12a86:	9205      	str	r2, [sp, #20]
   12a88:	eb0c 0cb8 	add.w	ip, ip, r8, ror #2
   12a8c:	9a14      	ldr	r2, [sp, #80]	; 0x50
   12a8e:	ea4f 08b6 	mov.w	r8, r6, ror #2
   12a92:	9e09      	ldr	r6, [sp, #36]	; 0x24
   12a94:	44e6      	add	lr, ip
   12a96:	eb0e 6efb 	add.w	lr, lr, fp, ror #27
   12a9a:	ea82 76f6 	eor.w	r6, r2, r6, ror #31
   12a9e:	ea86 7afa 	eor.w	sl, r6, sl, ror #31
   12aa2:	ea88 06b4 	eor.w	r6, r8, r4, ror #2
   12aa6:	ea8a 7af0 	eor.w	sl, sl, r0, ror #31
   12aaa:	ea86 060b 	eor.w	r6, r6, fp
   12aae:	ea4f 72fa 	mov.w	r2, sl, ror #31
   12ab2:	eb03 7cfa 	add.w	ip, r3, sl, ror #31
   12ab6:	9214      	str	r2, [sp, #80]	; 0x50
   12ab8:	44cc      	add	ip, r9
   12aba:	9a15      	ldr	r2, [sp, #84]	; 0x54
   12abc:	4466      	add	r6, ip
   12abe:	eb06 66fe 	add.w	r6, r6, lr, ror #27
   12ac2:	ea82 79f1 	eor.w	r9, r2, r1, ror #31
   12ac6:	9a04      	ldr	r2, [sp, #16]
   12ac8:	ea89 79f7 	eor.w	r9, r9, r7, ror #31
   12acc:	ea88 07bb 	eor.w	r7, r8, fp, ror #2
   12ad0:	ea89 79f2 	eor.w	r9, r9, r2, ror #31
   12ad4:	ea87 070e 	eor.w	r7, r7, lr
   12ad8:	ea4f 0ebe 	mov.w	lr, lr, ror #2
   12adc:	eb03 7cf9 	add.w	ip, r3, r9, ror #31
   12ae0:	ea4f 72f9 	mov.w	r2, r9, ror #31
   12ae4:	eb0c 04b4 	add.w	r4, ip, r4, ror #2
   12ae8:	4427      	add	r7, r4
   12aea:	9215      	str	r2, [sp, #84]	; 0x54
   12aec:	9c09      	ldr	r4, [sp, #36]	; 0x24
   12aee:	eb07 67f6 	add.w	r7, r7, r6, ror #27
   12af2:	9a11      	ldr	r2, [sp, #68]	; 0x44
   12af4:	ea82 74f4 	eor.w	r4, r2, r4, ror #31
   12af8:	9a0c      	ldr	r2, [sp, #48]	; 0x30
   12afa:	ea84 74f2 	eor.w	r4, r4, r2, ror #31
   12afe:	9a05      	ldr	r2, [sp, #20]
   12b00:	ea84 72f2 	eor.w	r2, r4, r2, ror #31
   12b04:	ea8e 04bb 	eor.w	r4, lr, fp, ror #2
   12b08:	eb03 7cf2 	add.w	ip, r3, r2, ror #31
   12b0c:	9207      	str	r2, [sp, #28]
   12b0e:	4074      	eors	r4, r6
   12b10:	9a12      	ldr	r2, [sp, #72]	; 0x48
   12b12:	44c4      	add	ip, r8
   12b14:	4464      	add	r4, ip
   12b16:	ea8e 0cb6 	eor.w	ip, lr, r6, ror #2
   12b1a:	eb04 64f7 	add.w	r4, r4, r7, ror #27
   12b1e:	ea8c 0c07 	eor.w	ip, ip, r7
   12b22:	ea4f 07b7 	mov.w	r7, r7, ror #2
   12b26:	ea82 71f1 	eor.w	r1, r2, r1, ror #31
   12b2a:	9a03      	ldr	r2, [sp, #12]
   12b2c:	ea81 71f2 	eor.w	r1, r1, r2, ror #31
   12b30:	ea81 72fa 	eor.w	r2, r1, sl, ror #31
   12b34:	eb03 71f2 	add.w	r1, r3, r2, ror #31
   12b38:	9208      	str	r2, [sp, #32]
   12b3a:	eb01 01bb 	add.w	r1, r1, fp, ror #2
   12b3e:	9a11      	ldr	r2, [sp, #68]	; 0x44
   12b40:	ea87 0bb6 	eor.w	fp, r7, r6, ror #2
   12b44:	448c      	add	ip, r1
   12b46:	990a      	ldr	r1, [sp, #40]	; 0x28
   12b48:	ea8b 0b04 	eor.w	fp, fp, r4
   12b4c:	eb0c 6cf4 	add.w	ip, ip, r4, ror #27
   12b50:	ea82 78f1 	eor.w	r8, r2, r1, ror #31
   12b54:	ea88 78f5 	eor.w	r8, r8, r5, ror #31
   12b58:	9d0b      	ldr	r5, [sp, #44]	; 0x2c
   12b5a:	ea88 78f9 	eor.w	r8, r8, r9, ror #31
   12b5e:	ea4f 72f8 	mov.w	r2, r8, ror #31
   12b62:	eb03 71f8 	add.w	r1, r3, r8, ror #31
   12b66:	4471      	add	r1, lr
   12b68:	9211      	str	r2, [sp, #68]	; 0x44
   12b6a:	ea87 0eb4 	eor.w	lr, r7, r4, ror #2
   12b6e:	448b      	add	fp, r1
   12b70:	990b      	ldr	r1, [sp, #44]	; 0x2c
   12b72:	eb0b 6bfc 	add.w	fp, fp, ip, ror #27
   12b76:	ea8e 0e0c 	eor.w	lr, lr, ip
   12b7a:	9a12      	ldr	r2, [sp, #72]	; 0x48
   12b7c:	ea82 71f1 	eor.w	r1, r2, r1, ror #31
   12b80:	9a07      	ldr	r2, [sp, #28]
   12b82:	ea81 70f0 	eor.w	r0, r1, r0, ror #31
   12b86:	ea80 70f2 	eor.w	r0, r0, r2, ror #31
   12b8a:	eb03 73f0 	add.w	r3, r3, r0, ror #31
   12b8e:	ea4f 72f0 	mov.w	r2, r0, ror #31
   12b92:	eb03 03b6 	add.w	r3, r3, r6, ror #2
   12b96:	4473      	add	r3, lr
   12b98:	9212      	str	r2, [sp, #72]	; 0x48
   12b9a:	eb03 6efb 	add.w	lr, r3, fp, ror #27
   12b9e:	9a0a      	ldr	r2, [sp, #40]	; 0x28
   12ba0:	9b16      	ldr	r3, [sp, #88]	; 0x58
   12ba2:	ea83 72f2 	eor.w	r2, r3, r2, ror #31
   12ba6:	9b04      	ldr	r3, [sp, #16]
   12ba8:	ea82 72f3 	eor.w	r2, r2, r3, ror #31
   12bac:	9b08      	ldr	r3, [sp, #32]
   12bae:	ea82 73f3 	eor.w	r3, r2, r3, ror #31
   12bb2:	ea4b 02bc 	orr.w	r2, fp, ip, ror #2
   12bb6:	ea02 02b4 	and.w	r2, r2, r4, ror #2
   12bba:	9309      	str	r3, [sp, #36]	; 0x24
   12bbc:	ea0b 03bc 	and.w	r3, fp, ip, ror #2
   12bc0:	9909      	ldr	r1, [sp, #36]	; 0x24
   12bc2:	431a      	orrs	r2, r3
   12bc4:	4bd7      	ldr	r3, [pc, #860]	; (12f24 <Transform+0x9b0>)
   12bc6:	eb03 71f1 	add.w	r1, r3, r1, ror #31
   12bca:	4439      	add	r1, r7
   12bcc:	440a      	add	r2, r1
   12bce:	990d      	ldr	r1, [sp, #52]	; 0x34
   12bd0:	eb02 62fe 	add.w	r2, r2, lr, ror #27
   12bd4:	ea42 07be 	orr.w	r7, r2, lr, ror #2
   12bd8:	ea81 76f5 	eor.w	r6, r1, r5, ror #31
   12bdc:	9905      	ldr	r1, [sp, #20]
   12bde:	ea86 76f1 	eor.w	r6, r6, r1, ror #31
   12be2:	ea86 71f8 	eor.w	r1, r6, r8, ror #31
   12be6:	910a      	str	r1, [sp, #40]	; 0x28
   12be8:	ea4e 01bb 	orr.w	r1, lr, fp, ror #2
   12bec:	ea01 05bc 	and.w	r5, r1, ip, ror #2
   12bf0:	ea0e 01bb 	and.w	r1, lr, fp, ror #2
   12bf4:	4329      	orrs	r1, r5
   12bf6:	9d0a      	ldr	r5, [sp, #40]	; 0x28
   12bf8:	eb03 75f5 	add.w	r5, r3, r5, ror #31
   12bfc:	eb05 04b4 	add.w	r4, r5, r4, ror #2
   12c00:	9d0c      	ldr	r5, [sp, #48]	; 0x30
   12c02:	4421      	add	r1, r4
   12c04:	9c16      	ldr	r4, [sp, #88]	; 0x58
   12c06:	eb01 61f2 	add.w	r1, r1, r2, ror #27
   12c0a:	ea41 06b2 	orr.w	r6, r1, r2, ror #2
   12c0e:	ea84 74f5 	eor.w	r4, r4, r5, ror #31
   12c12:	ea84 7afa 	eor.w	sl, r4, sl, ror #31
   12c16:	ea8a 7af0 	eor.w	sl, sl, r0, ror #31
   12c1a:	ea4f 74fa 	mov.w	r4, sl, ror #31
   12c1e:	9416      	str	r4, [sp, #88]	; 0x58
   12c20:	ea07 04bb 	and.w	r4, r7, fp, ror #2
   12c24:	ea02 07be 	and.w	r7, r2, lr, ror #2
   12c28:	4327      	orrs	r7, r4
   12c2a:	eb03 74fa 	add.w	r4, r3, sl, ror #31
   12c2e:	eb04 0cbc 	add.w	ip, r4, ip, ror #2
   12c32:	9c0d      	ldr	r4, [sp, #52]	; 0x34
   12c34:	9d03      	ldr	r5, [sp, #12]
   12c36:	4467      	add	r7, ip
   12c38:	eb07 67f1 	add.w	r7, r7, r1, ror #27
   12c3c:	ea84 74f5 	eor.w	r4, r4, r5, ror #31
   12c40:	9d0c      	ldr	r5, [sp, #48]	; 0x30
   12c42:	ea84 79f9 	eor.w	r9, r4, r9, ror #31
   12c46:	9c09      	ldr	r4, [sp, #36]	; 0x24
   12c48:	ea89 79f4 	eor.w	r9, r9, r4, ror #31
   12c4c:	ea4f 74f9 	mov.w	r4, r9, ror #31
   12c50:	940d      	str	r4, [sp, #52]	; 0x34
   12c52:	ea06 04be 	and.w	r4, r6, lr, ror #2
   12c56:	ea01 06b2 	and.w	r6, r1, r2, ror #2
   12c5a:	4326      	orrs	r6, r4
   12c5c:	eb03 74f9 	add.w	r4, r3, r9, ror #31
   12c60:	eb04 04bb 	add.w	r4, r4, fp, ror #2
   12c64:	4426      	add	r6, r4
   12c66:	9c0e      	ldr	r4, [sp, #56]	; 0x38
   12c68:	eb06 66f7 	add.w	r6, r6, r7, ror #27
   12c6c:	ea84 74f5 	eor.w	r4, r4, r5, ror #31
   12c70:	9d07      	ldr	r5, [sp, #28]
   12c72:	ea84 74f5 	eor.w	r4, r4, r5, ror #31
   12c76:	9d0a      	ldr	r5, [sp, #40]	; 0x28
   12c78:	ea84 74f5 	eor.w	r4, r4, r5, ror #31
   12c7c:	ea47 05b1 	orr.w	r5, r7, r1, ror #2
   12c80:	940b      	str	r4, [sp, #44]	; 0x2c
   12c82:	ea05 04b2 	and.w	r4, r5, r2, ror #2
   12c86:	ea07 05b1 	and.w	r5, r7, r1, ror #2
   12c8a:	4325      	orrs	r5, r4
   12c8c:	9c0b      	ldr	r4, [sp, #44]	; 0x2c
   12c8e:	eb03 74f4 	add.w	r4, r3, r4, ror #31
   12c92:	eb04 04be 	add.w	r4, r4, lr, ror #2
   12c96:	ea46 0eb7 	orr.w	lr, r6, r7, ror #2
   12c9a:	4425      	add	r5, r4
   12c9c:	9c17      	ldr	r4, [sp, #92]	; 0x5c
   12c9e:	eb05 65f6 	add.w	r5, r5, r6, ror #27
   12ca2:	46a4      	mov	ip, r4
   12ca4:	9c03      	ldr	r4, [sp, #12]
   12ca6:	ea8c 7cf4 	eor.w	ip, ip, r4, ror #31
   12caa:	9c08      	ldr	r4, [sp, #32]
   12cac:	ea8c 74f4 	eor.w	r4, ip, r4, ror #31
   12cb0:	ea84 74fa 	eor.w	r4, r4, sl, ror #31
   12cb4:	9403      	str	r4, [sp, #12]
   12cb6:	ea0e 04b1 	and.w	r4, lr, r1, ror #2
   12cba:	ea06 0eb7 	and.w	lr, r6, r7, ror #2
   12cbe:	ea44 0e0e 	orr.w	lr, r4, lr
   12cc2:	9c03      	ldr	r4, [sp, #12]
   12cc4:	eb03 74f4 	add.w	r4, r3, r4, ror #31
   12cc8:	eb04 02b2 	add.w	r2, r4, r2, ror #2
   12ccc:	9c04      	ldr	r4, [sp, #16]
   12cce:	4496      	add	lr, r2
   12cd0:	9a0e      	ldr	r2, [sp, #56]	; 0x38
   12cd2:	eb0e 6ef5 	add.w	lr, lr, r5, ror #27
   12cd6:	ea82 7cf4 	eor.w	ip, r2, r4, ror #31
   12cda:	ea45 04b6 	orr.w	r4, r5, r6, ror #2
   12cde:	ea8c 78f8 	eor.w	r8, ip, r8, ror #31
   12ce2:	ea4e 0cb5 	orr.w	ip, lr, r5, ror #2
   12ce6:	ea88 78f9 	eor.w	r8, r8, r9, ror #31
   12cea:	ea4f 72f8 	mov.w	r2, r8, ror #31
   12cee:	920c      	str	r2, [sp, #48]	; 0x30
   12cf0:	ea04 02b7 	and.w	r2, r4, r7, ror #2
   12cf4:	ea05 04b6 	and.w	r4, r5, r6, ror #2
   12cf8:	4314      	orrs	r4, r2
   12cfa:	eb03 72f8 	add.w	r2, r3, r8, ror #31
   12cfe:	eb02 02b1 	add.w	r2, r2, r1, ror #2
   12d02:	9905      	ldr	r1, [sp, #20]
   12d04:	4414      	add	r4, r2
   12d06:	9a17      	ldr	r2, [sp, #92]	; 0x5c
   12d08:	eb04 64fe 	add.w	r4, r4, lr, ror #27
   12d0c:	ea82 71f1 	eor.w	r1, r2, r1, ror #31
   12d10:	9a0b      	ldr	r2, [sp, #44]	; 0x2c
   12d12:	ea81 71f0 	eor.w	r1, r1, r0, ror #31
   12d16:	9804      	ldr	r0, [sp, #16]
   12d18:	ea81 71f2 	eor.w	r1, r1, r2, ror #31
   12d1c:	ea4f 72f1 	mov.w	r2, r1, ror #31
   12d20:	920e      	str	r2, [sp, #56]	; 0x38
   12d22:	ea0c 02b6 	and.w	r2, ip, r6, ror #2
   12d26:	ea0e 0cb5 	and.w	ip, lr, r5, ror #2
   12d2a:	ea42 0c0c 	orr.w	ip, r2, ip
   12d2e:	eb03 72f1 	add.w	r2, r3, r1, ror #31
   12d32:	eb02 02b7 	add.w	r2, r2, r7, ror #2
   12d36:	4494      	add	ip, r2
   12d38:	9a14      	ldr	r2, [sp, #80]	; 0x50
   12d3a:	eb0c 6cf4 	add.w	ip, ip, r4, ror #27
   12d3e:	ea4c 0bb4 	orr.w	fp, ip, r4, ror #2
   12d42:	ea82 72f0 	eor.w	r2, r2, r0, ror #31
   12d46:	9809      	ldr	r0, [sp, #36]	; 0x24
   12d48:	ea82 72f0 	eor.w	r2, r2, r0, ror #31
   12d4c:	9803      	ldr	r0, [sp, #12]
   12d4e:	ea82 72f0 	eor.w	r2, r2, r0, ror #31
   12d52:	9204      	str	r2, [sp, #16]
   12d54:	ea44 02be 	orr.w	r2, r4, lr, ror #2
   12d58:	ea02 00b5 	and.w	r0, r2, r5, ror #2
   12d5c:	ea04 02be 	and.w	r2, r4, lr, ror #2
   12d60:	4302      	orrs	r2, r0
   12d62:	9804      	ldr	r0, [sp, #16]
   12d64:	eb03 70f0 	add.w	r0, r3, r0, ror #31
   12d68:	eb00 00b6 	add.w	r0, r0, r6, ror #2
   12d6c:	9e05      	ldr	r6, [sp, #20]
   12d6e:	4402      	add	r2, r0
   12d70:	9815      	ldr	r0, [sp, #84]	; 0x54
   12d72:	eb02 62fc 	add.w	r2, r2, ip, ror #27
   12d76:	ea42 07bc 	orr.w	r7, r2, ip, ror #2
   12d7a:	ea80 70f6 	eor.w	r0, r0, r6, ror #31
   12d7e:	9e0a      	ldr	r6, [sp, #40]	; 0x28
   12d80:	ea80 70f6 	eor.w	r0, r0, r6, ror #31
   12d84:	ea80 70f8 	eor.w	r0, r0, r8, ror #31
   12d88:	9005      	str	r0, [sp, #20]
   12d8a:	ea0b 00be 	and.w	r0, fp, lr, ror #2
   12d8e:	ea0c 0bb4 	and.w	fp, ip, r4, ror #2
   12d92:	ea40 0b0b 	orr.w	fp, r0, fp
   12d96:	9805      	ldr	r0, [sp, #20]
   12d98:	eb03 70f0 	add.w	r0, r3, r0, ror #31
   12d9c:	eb00 00b5 	add.w	r0, r0, r5, ror #2
   12da0:	4483      	add	fp, r0
   12da2:	9814      	ldr	r0, [sp, #80]	; 0x50
   12da4:	eb0b 6bf2 	add.w	fp, fp, r2, ror #27
   12da8:	9d07      	ldr	r5, [sp, #28]
   12daa:	ea4b 06b2 	orr.w	r6, fp, r2, ror #2
   12dae:	ea80 70f5 	eor.w	r0, r0, r5, ror #31
   12db2:	9d08      	ldr	r5, [sp, #32]
   12db4:	ea80 7afa 	eor.w	sl, r0, sl, ror #31
   12db8:	ea8a 7af1 	eor.w	sl, sl, r1, ror #31
   12dbc:	ea4f 70fa 	mov.w	r0, sl, ror #31
   12dc0:	9014      	str	r0, [sp, #80]	; 0x50
   12dc2:	ea07 00b4 	and.w	r0, r7, r4, ror #2
   12dc6:	ea02 07bc 	and.w	r7, r2, ip, ror #2
   12dca:	4307      	orrs	r7, r0
   12dcc:	eb03 70fa 	add.w	r0, r3, sl, ror #31
   12dd0:	eb00 00be 	add.w	r0, r0, lr, ror #2
   12dd4:	4407      	add	r7, r0
   12dd6:	9815      	ldr	r0, [sp, #84]	; 0x54
   12dd8:	eb07 67fb 	add.w	r7, r7, fp, ror #27
   12ddc:	ea80 70f5 	eor.w	r0, r0, r5, ror #31
   12de0:	ea47 05bb 	orr.w	r5, r7, fp, ror #2
   12de4:	ea80 79f9 	eor.w	r9, r0, r9, ror #31
   12de8:	9804      	ldr	r0, [sp, #16]
   12dea:	ea89 79f0 	eor.w	r9, r9, r0, ror #31
   12dee:	ea4f 70f9 	mov.w	r0, r9, ror #31
   12df2:	9015      	str	r0, [sp, #84]	; 0x54
   12df4:	ea06 00bc 	and.w	r0, r6, ip, ror #2
   12df8:	ea0b 06b2 	and.w	r6, fp, r2, ror #2
   12dfc:	4306      	orrs	r6, r0
   12dfe:	eb03 70f9 	add.w	r0, r3, r9, ror #31
   12e02:	eb00 00b4 	add.w	r0, r0, r4, ror #2
   12e06:	9c07      	ldr	r4, [sp, #28]
   12e08:	4406      	add	r6, r0
   12e0a:	9811      	ldr	r0, [sp, #68]	; 0x44
   12e0c:	eb06 66f7 	add.w	r6, r6, r7, ror #27
   12e10:	ea80 74f4 	eor.w	r4, r0, r4, ror #31
   12e14:	980b      	ldr	r0, [sp, #44]	; 0x2c
   12e16:	ea84 74f0 	eor.w	r4, r4, r0, ror #31
   12e1a:	9805      	ldr	r0, [sp, #20]
   12e1c:	ea84 70f0 	eor.w	r0, r4, r0, ror #31
   12e20:	9c08      	ldr	r4, [sp, #32]
   12e22:	9007      	str	r0, [sp, #28]
   12e24:	ea05 00b2 	and.w	r0, r5, r2, ror #2
   12e28:	ea07 05bb 	and.w	r5, r7, fp, ror #2
   12e2c:	4305      	orrs	r5, r0
   12e2e:	9807      	ldr	r0, [sp, #28]
   12e30:	eb03 70f0 	add.w	r0, r3, r0, ror #31
   12e34:	eb00 00bc 	add.w	r0, r0, ip, ror #2
   12e38:	4405      	add	r5, r0
   12e3a:	9812      	ldr	r0, [sp, #72]	; 0x48
   12e3c:	eb05 65f6 	add.w	r5, r5, r6, ror #27
   12e40:	ea80 70f4 	eor.w	r0, r0, r4, ror #31
   12e44:	9c03      	ldr	r4, [sp, #12]
   12e46:	ea80 70f4 	eor.w	r0, r0, r4, ror #31
   12e4a:	ea80 70fa 	eor.w	r0, r0, sl, ror #31
   12e4e:	9008      	str	r0, [sp, #32]
   12e50:	ea46 00b7 	orr.w	r0, r6, r7, ror #2
   12e54:	ea00 04bb 	and.w	r4, r0, fp, ror #2
   12e58:	ea06 00b7 	and.w	r0, r6, r7, ror #2
   12e5c:	4320      	orrs	r0, r4
   12e5e:	9c08      	ldr	r4, [sp, #32]
   12e60:	eb03 74f4 	add.w	r4, r3, r4, ror #31
   12e64:	eb04 02b2 	add.w	r2, r4, r2, ror #2
   12e68:	9c09      	ldr	r4, [sp, #36]	; 0x24
   12e6a:	4410      	add	r0, r2
   12e6c:	9a11      	ldr	r2, [sp, #68]	; 0x44
   12e6e:	eb00 60f5 	add.w	r0, r0, r5, ror #27
   12e72:	ea82 7cf4 	eor.w	ip, r2, r4, ror #31
   12e76:	9c0a      	ldr	r4, [sp, #40]	; 0x28
   12e78:	ea8c 7cf8 	eor.w	ip, ip, r8, ror #31
   12e7c:	ea45 08b6 	orr.w	r8, r5, r6, ror #2
   12e80:	ea8c 7cf9 	eor.w	ip, ip, r9, ror #31
   12e84:	ea4f 72fc 	mov.w	r2, ip, ror #31
   12e88:	9211      	str	r2, [sp, #68]	; 0x44
   12e8a:	ea08 02b7 	and.w	r2, r8, r7, ror #2
   12e8e:	ea05 08b6 	and.w	r8, r5, r6, ror #2
   12e92:	ea42 0808 	orr.w	r8, r2, r8
   12e96:	eb03 72fc 	add.w	r2, r3, ip, ror #31
   12e9a:	eb02 02bb 	add.w	r2, r2, fp, ror #2
   12e9e:	4490      	add	r8, r2
   12ea0:	9a12      	ldr	r2, [sp, #72]	; 0x48
   12ea2:	eb08 68f0 	add.w	r8, r8, r0, ror #27
   12ea6:	ea48 0eb0 	orr.w	lr, r8, r0, ror #2
   12eaa:	ea82 7bf4 	eor.w	fp, r2, r4, ror #31
   12eae:	9a07      	ldr	r2, [sp, #28]
   12eb0:	ea8b 7bf1 	eor.w	fp, fp, r1, ror #31
   12eb4:	9c09      	ldr	r4, [sp, #36]	; 0x24
   12eb6:	ea40 01b5 	orr.w	r1, r0, r5, ror #2
   12eba:	ea8b 7bf2 	eor.w	fp, fp, r2, ror #31
   12ebe:	ea4f 72fb 	mov.w	r2, fp, ror #31
   12ec2:	9212      	str	r2, [sp, #72]	; 0x48
   12ec4:	ea01 02b6 	and.w	r2, r1, r6, ror #2
   12ec8:	ea00 01b5 	and.w	r1, r0, r5, ror #2
   12ecc:	4311      	orrs	r1, r2
   12ece:	eb03 72fb 	add.w	r2, r3, fp, ror #31
   12ed2:	eb02 07b7 	add.w	r7, r2, r7, ror #2
   12ed6:	9a16      	ldr	r2, [sp, #88]	; 0x58
   12ed8:	4439      	add	r1, r7
   12eda:	eb01 61f8 	add.w	r1, r1, r8, ror #27
   12ede:	ea82 77f4 	eor.w	r7, r2, r4, ror #31
   12ee2:	9a04      	ldr	r2, [sp, #16]
   12ee4:	ea87 77f2 	eor.w	r7, r7, r2, ror #31
   12ee8:	9a08      	ldr	r2, [sp, #32]
   12eea:	ea87 72f2 	eor.w	r2, r7, r2, ror #31
   12eee:	9209      	str	r2, [sp, #36]	; 0x24
   12ef0:	ea0e 02b5 	and.w	r2, lr, r5, ror #2
   12ef4:	ea08 0eb0 	and.w	lr, r8, r0, ror #2
   12ef8:	ea42 0e0e 	orr.w	lr, r2, lr
   12efc:	9a09      	ldr	r2, [sp, #36]	; 0x24
   12efe:	eb03 72f2 	add.w	r2, r3, r2, ror #31
   12f02:	eb02 02b6 	add.w	r2, r2, r6, ror #2
   12f06:	4496      	add	lr, r2
   12f08:	9a0d      	ldr	r2, [sp, #52]	; 0x34
   12f0a:	eb0e 6ef1 	add.w	lr, lr, r1, ror #27
   12f0e:	9c0a      	ldr	r4, [sp, #40]	; 0x28
   12f10:	ea82 76f4 	eor.w	r6, r2, r4, ror #31
   12f14:	9a05      	ldr	r2, [sp, #20]
   12f16:	ea86 76f2 	eor.w	r6, r6, r2, ror #31
   12f1a:	ea86 72fc 	eor.w	r2, r6, ip, ror #31
   12f1e:	9e04      	ldr	r6, [sp, #16]
   12f20:	920a      	str	r2, [sp, #40]	; 0x28
   12f22:	e001      	b.n	12f28 <Transform+0x9b4>
   12f24:	8f1bbcdc 	.word	0x8f1bbcdc
   12f28:	ea41 02b8 	orr.w	r2, r1, r8, ror #2
   12f2c:	ea02 04b0 	and.w	r4, r2, r0, ror #2
   12f30:	ea01 02b8 	and.w	r2, r1, r8, ror #2
   12f34:	4322      	orrs	r2, r4
   12f36:	9c0a      	ldr	r4, [sp, #40]	; 0x28
   12f38:	eb03 74f4 	add.w	r4, r3, r4, ror #31
   12f3c:	eb04 05b5 	add.w	r5, r4, r5, ror #2
   12f40:	9c0b      	ldr	r4, [sp, #44]	; 0x2c
   12f42:	4415      	add	r5, r2
   12f44:	9a16      	ldr	r2, [sp, #88]	; 0x58
   12f46:	eb05 65fe 	add.w	r5, r5, lr, ror #27
   12f4a:	ea82 72f4 	eor.w	r2, r2, r4, ror #31
   12f4e:	ea82 7afa 	eor.w	sl, r2, sl, ror #31
   12f52:	ea8a 7afb 	eor.w	sl, sl, fp, ror #31
   12f56:	ea4f 72fa 	mov.w	r2, sl, ror #31
   12f5a:	9216      	str	r2, [sp, #88]	; 0x58
   12f5c:	ea4e 02b1 	orr.w	r2, lr, r1, ror #2
   12f60:	ea02 04b8 	and.w	r4, r2, r8, ror #2
   12f64:	ea0e 02b1 	and.w	r2, lr, r1, ror #2
   12f68:	4322      	orrs	r2, r4
   12f6a:	eb03 74fa 	add.w	r4, r3, sl, ror #31
   12f6e:	eb04 00b0 	add.w	r0, r4, r0, ror #2
   12f72:	9c03      	ldr	r4, [sp, #12]
   12f74:	4402      	add	r2, r0
   12f76:	980d      	ldr	r0, [sp, #52]	; 0x34
   12f78:	eb02 62f5 	add.w	r2, r2, r5, ror #27
   12f7c:	ea80 70f4 	eor.w	r0, r0, r4, ror #31
   12f80:	ea45 04be 	orr.w	r4, r5, lr, ror #2
   12f84:	ea80 79f9 	eor.w	r9, r0, r9, ror #31
   12f88:	9809      	ldr	r0, [sp, #36]	; 0x24
   12f8a:	ea04 04b1 	and.w	r4, r4, r1, ror #2
   12f8e:	ea89 79f0 	eor.w	r9, r9, r0, ror #31
   12f92:	ea4f 70f9 	mov.w	r0, r9, ror #31
   12f96:	eb03 73f9 	add.w	r3, r3, r9, ror #31
   12f9a:	900d      	str	r0, [sp, #52]	; 0x34
   12f9c:	ea05 00be 	and.w	r0, r5, lr, ror #2
   12fa0:	eb03 03b8 	add.w	r3, r3, r8, ror #2
   12fa4:	4320      	orrs	r0, r4
   12fa6:	ea4f 05b5 	mov.w	r5, r5, ror #2
   12faa:	4418      	add	r0, r3
   12fac:	e9dd 430b 	ldrd	r4, r3, [sp, #44]	; 0x2c
   12fb0:	ea85 07be 	eor.w	r7, r5, lr, ror #2
   12fb4:	eb00 60f2 	add.w	r0, r0, r2, ror #27
   12fb8:	4057      	eors	r7, r2
   12fba:	ea83 78f4 	eor.w	r8, r3, r4, ror #31
   12fbe:	9b07      	ldr	r3, [sp, #28]
   12fc0:	ea88 78f3 	eor.w	r8, r8, r3, ror #31
   12fc4:	9b0a      	ldr	r3, [sp, #40]	; 0x28
   12fc6:	ea88 73f3 	eor.w	r3, r8, r3, ror #31
   12fca:	930b      	str	r3, [sp, #44]	; 0x2c
   12fcc:	4bd4      	ldr	r3, [pc, #848]	; (13320 <Transform+0xdac>)
   12fce:	9c0b      	ldr	r4, [sp, #44]	; 0x2c
   12fd0:	eb03 74f4 	add.w	r4, r3, r4, ror #31
   12fd4:	eb04 01b1 	add.w	r1, r4, r1, ror #2
   12fd8:	9c03      	ldr	r4, [sp, #12]
   12fda:	440f      	add	r7, r1
   12fdc:	990e      	ldr	r1, [sp, #56]	; 0x38
   12fde:	eb07 67f0 	add.w	r7, r7, r0, ror #27
   12fe2:	ea81 71f4 	eor.w	r1, r1, r4, ror #31
   12fe6:	9c08      	ldr	r4, [sp, #32]
   12fe8:	ea81 71f4 	eor.w	r1, r1, r4, ror #31
   12fec:	ea85 04b2 	eor.w	r4, r5, r2, ror #2
   12ff0:	ea81 71fa 	eor.w	r1, r1, sl, ror #31
   12ff4:	4044      	eors	r4, r0
   12ff6:	ea4f 00b0 	mov.w	r0, r0, ror #2
   12ffa:	9103      	str	r1, [sp, #12]
   12ffc:	eb03 71f1 	add.w	r1, r3, r1, ror #31
   13000:	eb01 01be 	add.w	r1, r1, lr, ror #2
   13004:	440c      	add	r4, r1
   13006:	990c      	ldr	r1, [sp, #48]	; 0x30
   13008:	eb04 64f7 	add.w	r4, r4, r7, ror #27
   1300c:	ea81 7ef6 	eor.w	lr, r1, r6, ror #31
   13010:	ea8e 7efc 	eor.w	lr, lr, ip, ror #31
   13014:	ea80 0cb2 	eor.w	ip, r0, r2, ror #2
   13018:	ea8e 7ef9 	eor.w	lr, lr, r9, ror #31
   1301c:	ea8c 0c07 	eor.w	ip, ip, r7
   13020:	ea4f 71fe 	mov.w	r1, lr, ror #31
   13024:	910c      	str	r1, [sp, #48]	; 0x30
   13026:	eb03 71fe 	add.w	r1, r3, lr, ror #31
   1302a:	4429      	add	r1, r5
   1302c:	9d05      	ldr	r5, [sp, #20]
   1302e:	448c      	add	ip, r1
   13030:	990e      	ldr	r1, [sp, #56]	; 0x38
   13032:	eb0c 6cf4 	add.w	ip, ip, r4, ror #27
   13036:	ea81 71f5 	eor.w	r1, r1, r5, ror #31
   1303a:	ea81 7bfb 	eor.w	fp, r1, fp, ror #31
   1303e:	990b      	ldr	r1, [sp, #44]	; 0x2c
   13040:	ea8b 7bf1 	eor.w	fp, fp, r1, ror #31
   13044:	ea4f 71fb 	mov.w	r1, fp, ror #31
   13048:	eb03 75fb 	add.w	r5, r3, fp, ror #31
   1304c:	910e      	str	r1, [sp, #56]	; 0x38
   1304e:	ea80 01b7 	eor.w	r1, r0, r7, ror #2
   13052:	eb05 02b2 	add.w	r2, r5, r2, ror #2
   13056:	4635      	mov	r5, r6
   13058:	4061      	eors	r1, r4
   1305a:	ea4f 04b4 	mov.w	r4, r4, ror #2
   1305e:	4411      	add	r1, r2
   13060:	9a14      	ldr	r2, [sp, #80]	; 0x50
   13062:	ea84 08b7 	eor.w	r8, r4, r7, ror #2
   13066:	eb01 61fc 	add.w	r1, r1, ip, ror #27
   1306a:	ea88 080c 	eor.w	r8, r8, ip
   1306e:	ea84 06bc 	eor.w	r6, r4, ip, ror #2
   13072:	ea82 72f5 	eor.w	r2, r2, r5, ror #31
   13076:	9d09      	ldr	r5, [sp, #36]	; 0x24
   13078:	404e      	eors	r6, r1
   1307a:	ea82 72f5 	eor.w	r2, r2, r5, ror #31
   1307e:	9d03      	ldr	r5, [sp, #12]
   13080:	ea82 72f5 	eor.w	r2, r2, r5, ror #31
   13084:	9204      	str	r2, [sp, #16]
   13086:	eb03 72f2 	add.w	r2, r3, r2, ror #31
   1308a:	4402      	add	r2, r0
   1308c:	4490      	add	r8, r2
   1308e:	9a15      	ldr	r2, [sp, #84]	; 0x54
   13090:	eb08 68f1 	add.w	r8, r8, r1, ror #27
   13094:	9805      	ldr	r0, [sp, #20]
   13096:	ea4f 01b1 	mov.w	r1, r1, ror #2
   1309a:	ea82 72f0 	eor.w	r2, r2, r0, ror #31
   1309e:	980a      	ldr	r0, [sp, #40]	; 0x28
   130a0:	ea82 72f0 	eor.w	r2, r2, r0, ror #31
   130a4:	9807      	ldr	r0, [sp, #28]
   130a6:	ea82 72fe 	eor.w	r2, r2, lr, ror #31
   130aa:	9205      	str	r2, [sp, #20]
   130ac:	eb03 72f2 	add.w	r2, r3, r2, ror #31
   130b0:	eb02 02b7 	add.w	r2, r2, r7, ror #2
   130b4:	ea81 07bc 	eor.w	r7, r1, ip, ror #2
   130b8:	4416      	add	r6, r2
   130ba:	9a14      	ldr	r2, [sp, #80]	; 0x50
   130bc:	ea87 0708 	eor.w	r7, r7, r8
   130c0:	eb06 66f8 	add.w	r6, r6, r8, ror #27
   130c4:	ea82 72f0 	eor.w	r2, r2, r0, ror #31
   130c8:	ea82 7afa 	eor.w	sl, r2, sl, ror #31
   130cc:	ea8a 7afb 	eor.w	sl, sl, fp, ror #31
   130d0:	eb03 72fa 	add.w	r2, r3, sl, ror #31
   130d4:	4422      	add	r2, r4
   130d6:	e9dd 4007 	ldrd	r4, r0, [sp, #28]
   130da:	4417      	add	r7, r2
   130dc:	9a15      	ldr	r2, [sp, #84]	; 0x54
   130de:	eb07 67f6 	add.w	r7, r7, r6, ror #27
   130e2:	ea82 72f0 	eor.w	r2, r2, r0, ror #31
   130e6:	ea82 79f9 	eor.w	r9, r2, r9, ror #31
   130ea:	9a04      	ldr	r2, [sp, #16]
   130ec:	ea89 79f2 	eor.w	r9, r9, r2, ror #31
   130f0:	ea81 02b8 	eor.w	r2, r1, r8, ror #2
   130f4:	eb03 70f9 	add.w	r0, r3, r9, ror #31
   130f8:	4072      	eors	r2, r6
   130fa:	ea4f 06b6 	mov.w	r6, r6, ror #2
   130fe:	eb00 00bc 	add.w	r0, r0, ip, ror #2
   13102:	ea86 0cb8 	eor.w	ip, r6, r8, ror #2
   13106:	4402      	add	r2, r0
   13108:	9811      	ldr	r0, [sp, #68]	; 0x44
   1310a:	ea8c 0c07 	eor.w	ip, ip, r7
   1310e:	eb02 62f7 	add.w	r2, r2, r7, ror #27
   13112:	ea80 74f4 	eor.w	r4, r0, r4, ror #31
   13116:	980b      	ldr	r0, [sp, #44]	; 0x2c
   13118:	ea84 74f0 	eor.w	r4, r4, r0, ror #31
   1311c:	9805      	ldr	r0, [sp, #20]
   1311e:	ea84 74f0 	eor.w	r4, r4, r0, ror #31
   13122:	eb03 70f4 	add.w	r0, r3, r4, ror #31
   13126:	4401      	add	r1, r0
   13128:	9808      	ldr	r0, [sp, #32]
   1312a:	448c      	add	ip, r1
   1312c:	9912      	ldr	r1, [sp, #72]	; 0x48
   1312e:	eb0c 6cf2 	add.w	ip, ip, r2, ror #27
   13132:	ea81 71f0 	eor.w	r1, r1, r0, ror #31
   13136:	ea81 71f5 	eor.w	r1, r1, r5, ror #31
   1313a:	ea86 05b7 	eor.w	r5, r6, r7, ror #2
   1313e:	ea81 71fa 	eor.w	r1, r1, sl, ror #31
   13142:	4055      	eors	r5, r2
   13144:	ea4f 02b2 	mov.w	r2, r2, ror #2
   13148:	eb03 70f1 	add.w	r0, r3, r1, ror #31
   1314c:	eb00 00b8 	add.w	r0, r0, r8, ror #2
   13150:	4405      	add	r5, r0
   13152:	9811      	ldr	r0, [sp, #68]	; 0x44
   13154:	eb05 65fc 	add.w	r5, r5, ip, ror #27
   13158:	4680      	mov	r8, r0
   1315a:	9809      	ldr	r0, [sp, #36]	; 0x24
   1315c:	ea88 70f0 	eor.w	r0, r8, r0, ror #31
   13160:	ea82 08b7 	eor.w	r8, r2, r7, ror #2
   13164:	ea80 70fe 	eor.w	r0, r0, lr, ror #31
   13168:	ea88 080c 	eor.w	r8, r8, ip
   1316c:	ea80 70f9 	eor.w	r0, r0, r9, ror #31
   13170:	9007      	str	r0, [sp, #28]
   13172:	eb03 70f0 	add.w	r0, r3, r0, ror #31
   13176:	4430      	add	r0, r6
   13178:	9e0a      	ldr	r6, [sp, #40]	; 0x28
   1317a:	4480      	add	r8, r0
   1317c:	9812      	ldr	r0, [sp, #72]	; 0x48
   1317e:	eb08 68f5 	add.w	r8, r8, r5, ror #27
   13182:	ea80 70f6 	eor.w	r0, r0, r6, ror #31
   13186:	ea80 70fb 	eor.w	r0, r0, fp, ror #31
   1318a:	ea80 70f4 	eor.w	r0, r0, r4, ror #31
   1318e:	9008      	str	r0, [sp, #32]
   13190:	ea82 00bc 	eor.w	r0, r2, ip, ror #2
   13194:	9e08      	ldr	r6, [sp, #32]
   13196:	4068      	eors	r0, r5
   13198:	ea4f 05b5 	mov.w	r5, r5, ror #2
   1319c:	ea85 0ebc 	eor.w	lr, r5, ip, ror #2
   131a0:	eb03 76f6 	add.w	r6, r3, r6, ror #31
   131a4:	ea8e 0e08 	eor.w	lr, lr, r8
   131a8:	eb06 06b7 	add.w	r6, r6, r7, ror #2
   131ac:	9f09      	ldr	r7, [sp, #36]	; 0x24
   131ae:	4430      	add	r0, r6
   131b0:	9e16      	ldr	r6, [sp, #88]	; 0x58
   131b2:	eb00 60f8 	add.w	r0, r0, r8, ror #27
   131b6:	ea86 77f7 	eor.w	r7, r6, r7, ror #31
   131ba:	9e04      	ldr	r6, [sp, #16]
   131bc:	ea87 77f6 	eor.w	r7, r7, r6, ror #31
   131c0:	ea87 77f1 	eor.w	r7, r7, r1, ror #31
   131c4:	eb03 76f7 	add.w	r6, r3, r7, ror #31
   131c8:	4432      	add	r2, r6
   131ca:	9e0a      	ldr	r6, [sp, #40]	; 0x28
   131cc:	4496      	add	lr, r2
   131ce:	9a0d      	ldr	r2, [sp, #52]	; 0x34
   131d0:	eb0e 6ef0 	add.w	lr, lr, r0, ror #27
   131d4:	ea82 76f6 	eor.w	r6, r2, r6, ror #31
   131d8:	9a05      	ldr	r2, [sp, #20]
   131da:	ea86 76f2 	eor.w	r6, r6, r2, ror #31
   131de:	9a07      	ldr	r2, [sp, #28]
   131e0:	ea86 72f2 	eor.w	r2, r6, r2, ror #31
   131e4:	9209      	str	r2, [sp, #36]	; 0x24
   131e6:	ea85 02b8 	eor.w	r2, r5, r8, ror #2
   131ea:	9e09      	ldr	r6, [sp, #36]	; 0x24
   131ec:	4042      	eors	r2, r0
   131ee:	ea4f 00b0 	mov.w	r0, r0, ror #2
   131f2:	eb03 7bf6 	add.w	fp, r3, r6, ror #31
   131f6:	9e16      	ldr	r6, [sp, #88]	; 0x58
   131f8:	eb0b 0cbc 	add.w	ip, fp, ip, ror #2
   131fc:	4462      	add	r2, ip
   131fe:	46b4      	mov	ip, r6
   13200:	9e0b      	ldr	r6, [sp, #44]	; 0x2c
   13202:	eb02 62fe 	add.w	r2, r2, lr, ror #27
   13206:	ea8c 7cf6 	eor.w	ip, ip, r6, ror #31
   1320a:	9e08      	ldr	r6, [sp, #32]
   1320c:	ea8c 7afa 	eor.w	sl, ip, sl, ror #31
   13210:	ea80 0cb8 	eor.w	ip, r0, r8, ror #2
   13214:	ea8a 7af6 	eor.w	sl, sl, r6, ror #31
   13218:	9e03      	ldr	r6, [sp, #12]
   1321a:	ea8c 0c0e 	eor.w	ip, ip, lr
   1321e:	eb03 7bfa 	add.w	fp, r3, sl, ror #31
   13222:	44ab      	add	fp, r5
   13224:	9d0d      	ldr	r5, [sp, #52]	; 0x34
   13226:	44dc      	add	ip, fp
   13228:	eb0c 6cf2 	add.w	ip, ip, r2, ror #27
   1322c:	ea85 75f6 	eor.w	r5, r5, r6, ror #31
   13230:	9e0c      	ldr	r6, [sp, #48]	; 0x30
   13232:	ea85 79f9 	eor.w	r9, r5, r9, ror #31
   13236:	ea80 05be 	eor.w	r5, r0, lr, ror #2
   1323a:	ea89 77f7 	eor.w	r7, r9, r7, ror #31
   1323e:	4055      	eors	r5, r2
   13240:	ea4f 02b2 	mov.w	r2, r2, ror #2
   13244:	eb03 79f7 	add.w	r9, r3, r7, ror #31
   13248:	eb09 09b8 	add.w	r9, r9, r8, ror #2
   1324c:	46b0      	mov	r8, r6
   1324e:	9e0b      	ldr	r6, [sp, #44]	; 0x2c
   13250:	444d      	add	r5, r9
   13252:	eb05 65fc 	add.w	r5, r5, ip, ror #27
   13256:	ea88 78f6 	eor.w	r8, r8, r6, ror #31
   1325a:	9e09      	ldr	r6, [sp, #36]	; 0x24
   1325c:	ea88 74f4 	eor.w	r4, r8, r4, ror #31
   13260:	ea84 76f6 	eor.w	r6, r4, r6, ror #31
   13264:	ea82 04be 	eor.w	r4, r2, lr, ror #2
   13268:	eb03 78f6 	add.w	r8, r3, r6, ror #31
   1326c:	ea84 040c 	eor.w	r4, r4, ip
   13270:	4440      	add	r0, r8
   13272:	4420      	add	r0, r4
   13274:	9c0e      	ldr	r4, [sp, #56]	; 0x38
   13276:	eb00 60f5 	add.w	r0, r0, r5, ror #27
   1327a:	46a0      	mov	r8, r4
   1327c:	9c03      	ldr	r4, [sp, #12]
   1327e:	ea88 74f4 	eor.w	r4, r8, r4, ror #31
   13282:	ea84 71f1 	eor.w	r1, r4, r1, ror #31
   13286:	9c04      	ldr	r4, [sp, #16]
   13288:	ea81 71fa 	eor.w	r1, r1, sl, ror #31
   1328c:	eb03 71f1 	add.w	r1, r3, r1, ror #31
   13290:	eb01 0ebe 	add.w	lr, r1, lr, ror #2
   13294:	ea82 01bc 	eor.w	r1, r2, ip, ror #2
   13298:	4069      	eors	r1, r5
   1329a:	ea4f 05b5 	mov.w	r5, r5, ror #2
   1329e:	448e      	add	lr, r1
   132a0:	990c      	ldr	r1, [sp, #48]	; 0x30
   132a2:	eb0e 6ef0 	add.w	lr, lr, r0, ror #27
   132a6:	ea81 71f4 	eor.w	r1, r1, r4, ror #31
   132aa:	9c07      	ldr	r4, [sp, #28]
   132ac:	ea81 71f4 	eor.w	r1, r1, r4, ror #31
   132b0:	9c05      	ldr	r4, [sp, #20]
   132b2:	ea81 71f7 	eor.w	r1, r1, r7, ror #31
   132b6:	eb03 71f1 	add.w	r1, r3, r1, ror #31
   132ba:	440a      	add	r2, r1
   132bc:	ea85 01bc 	eor.w	r1, r5, ip, ror #2
   132c0:	4041      	eors	r1, r0
   132c2:	440a      	add	r2, r1
   132c4:	ea88 71f4 	eor.w	r1, r8, r4, ror #31
   132c8:	9c08      	ldr	r4, [sp, #32]
   132ca:	eb02 62fe 	add.w	r2, r2, lr, ror #27
   132ce:	ea81 71f4 	eor.w	r1, r1, r4, ror #31
   132d2:	ea81 76f6 	eor.w	r6, r1, r6, ror #31
   132d6:	990f      	ldr	r1, [sp, #60]	; 0x3c
   132d8:	440b      	add	r3, r1
   132da:	9901      	ldr	r1, [sp, #4]
   132dc:	eb03 73f6 	add.w	r3, r3, r6, ror #31
   132e0:	eb03 0cbc 	add.w	ip, r3, ip, ror #2
   132e4:	ea85 03b0 	eor.w	r3, r5, r0, ror #2
   132e8:	ea83 030e 	eor.w	r3, r3, lr
   132ec:	4463      	add	r3, ip
   132ee:	eb03 63f2 	add.w	r3, r3, r2, ror #27
   132f2:	64cb      	str	r3, [r1, #76]	; 0x4c
   132f4:	9b02      	ldr	r3, [sp, #8]
   132f6:	441a      	add	r2, r3
   132f8:	9b06      	ldr	r3, [sp, #24]
   132fa:	650a      	str	r2, [r1, #80]	; 0x50
   132fc:	eb03 01be 	add.w	r1, r3, lr, ror #2
   13300:	9b01      	ldr	r3, [sp, #4]
   13302:	6559      	str	r1, [r3, #84]	; 0x54
   13304:	9b10      	ldr	r3, [sp, #64]	; 0x40
   13306:	eb03 00b0 	add.w	r0, r3, r0, ror #2
   1330a:	9b01      	ldr	r3, [sp, #4]
   1330c:	6598      	str	r0, [r3, #88]	; 0x58
   1330e:	2000      	movs	r0, #0
   13310:	9b13      	ldr	r3, [sp, #76]	; 0x4c
   13312:	441d      	add	r5, r3
   13314:	9b01      	ldr	r3, [sp, #4]
   13316:	65dd      	str	r5, [r3, #92]	; 0x5c
   13318:	b019      	add	sp, #100	; 0x64
   1331a:	e8bd 8ff0 	ldmia.w	sp!, {r4, r5, r6, r7, r8, r9, sl, fp, pc}
   1331e:	bf00      	nop
   13320:	ca62c1d6 	.word	0xca62c1d6

00013324 <wc_InitSha_ex>:
   13324:	b1b8      	cbz	r0, 13356 <wc_InitSha_ex+0x32>
   13326:	4b0d      	ldr	r3, [pc, #52]	; (1335c <wc_InitSha_ex+0x38>)
   13328:	64c3      	str	r3, [r0, #76]	; 0x4c
   1332a:	f103 3388 	add.w	r3, r3, #2290649224	; 0x88888888
   1332e:	6601      	str	r1, [r0, #96]	; 0x60
   13330:	6503      	str	r3, [r0, #80]	; 0x50
   13332:	f103 4329 	add.w	r3, r3, #2835349504	; 0xa9000000
   13336:	f5a3 1396 	sub.w	r3, r3, #1228800	; 0x12c000
   1333a:	f6a3 638b 	subw	r3, r3, #3723	; 0xe8b
   1333e:	6543      	str	r3, [r0, #84]	; 0x54
   13340:	f1a3 3388 	sub.w	r3, r3, #2290649224	; 0x88888888
   13344:	6583      	str	r3, [r0, #88]	; 0x58
   13346:	4b06      	ldr	r3, [pc, #24]	; (13360 <wc_InitSha_ex+0x3c>)
   13348:	65c3      	str	r3, [r0, #92]	; 0x5c
   1334a:	2300      	movs	r3, #0
   1334c:	e9c0 3300 	strd	r3, r3, [r0]
   13350:	6083      	str	r3, [r0, #8]
   13352:	4618      	mov	r0, r3
   13354:	4770      	bx	lr
   13356:	f06f 00ac 	mvn.w	r0, #172	; 0xac
   1335a:	4770      	bx	lr
   1335c:	67452301 	.word	0x67452301
   13360:	c3d2e1f0 	.word	0xc3d2e1f0

00013364 <wc_ShaUpdate>:
   13364:	e92d 47f0 	stmdb	sp!, {r4, r5, r6, r7, r8, r9, sl, lr}
   13368:	460f      	mov	r7, r1
   1336a:	4614      	mov	r4, r2
   1336c:	4605      	mov	r5, r0
   1336e:	2800      	cmp	r0, #0
   13370:	d059      	beq.n	13426 <wc_ShaUpdate+0xc2>
   13372:	b939      	cbnz	r1, 13384 <wc_ShaUpdate+0x20>
   13374:	2a00      	cmp	r2, #0
   13376:	bf14      	ite	ne
   13378:	f06f 06ac 	mvnne.w	r6, #172	; 0xac
   1337c:	2600      	moveq	r6, #0
   1337e:	4630      	mov	r0, r6
   13380:	e8bd 87f0 	ldmia.w	sp!, {r4, r5, r6, r7, r8, r9, sl, pc}
   13384:	6800      	ldr	r0, [r0, #0]
   13386:	283f      	cmp	r0, #63	; 0x3f
   13388:	d850      	bhi.n	1342c <wc_ShaUpdate+0xc8>
   1338a:	686b      	ldr	r3, [r5, #4]
   1338c:	f105 080c 	add.w	r8, r5, #12
   13390:	18d3      	adds	r3, r2, r3
   13392:	606b      	str	r3, [r5, #4]
   13394:	bf22      	ittt	cs
   13396:	68ab      	ldrcs	r3, [r5, #8]
   13398:	3301      	addcs	r3, #1
   1339a:	60ab      	strcs	r3, [r5, #8]
   1339c:	b1d0      	cbz	r0, 133d4 <wc_ShaUpdate+0x70>
   1339e:	f1c0 0640 	rsb	r6, r0, #64	; 0x40
   133a2:	4440      	add	r0, r8
   133a4:	4296      	cmp	r6, r2
   133a6:	bf28      	it	cs
   133a8:	4616      	movcs	r6, r2
   133aa:	4632      	mov	r2, r6
   133ac:	4437      	add	r7, r6
   133ae:	f7fd e83e 	blx	1042c <memcpy@plt>
   133b2:	682a      	ldr	r2, [r5, #0]
   133b4:	1ba4      	subs	r4, r4, r6
   133b6:	4432      	add	r2, r6
   133b8:	2a40      	cmp	r2, #64	; 0x40
   133ba:	602a      	str	r2, [r5, #0]
   133bc:	d10a      	bne.n	133d4 <wc_ShaUpdate+0x70>
   133be:	4641      	mov	r1, r8
   133c0:	4640      	mov	r0, r8
   133c2:	f7ff f8cb 	bl	1255c <ByteReverseWords>
   133c6:	4628      	mov	r0, r5
   133c8:	f7ff f8d4 	bl	12574 <Transform>
   133cc:	4606      	mov	r6, r0
   133ce:	2800      	cmp	r0, #0
   133d0:	d1d5      	bne.n	1337e <wc_ShaUpdate+0x1a>
   133d2:	6028      	str	r0, [r5, #0]
   133d4:	46a1      	mov	r9, r4
   133d6:	2600      	movs	r6, #0
   133d8:	eb07 0a04 	add.w	sl, r7, r4
   133dc:	f1b9 0f3f 	cmp.w	r9, #63	; 0x3f
   133e0:	ebaa 0109 	sub.w	r1, sl, r9
   133e4:	d80f      	bhi.n	13406 <wc_ShaUpdate+0xa2>
   133e6:	09a2      	lsrs	r2, r4, #6
   133e8:	f06f 033f 	mvn.w	r3, #63	; 0x3f
   133ec:	f024 013f 	bic.w	r1, r4, #63	; 0x3f
   133f0:	4439      	add	r1, r7
   133f2:	fb03 4402 	mla	r4, r3, r2, r4
   133f6:	2c00      	cmp	r4, #0
   133f8:	d0c1      	beq.n	1337e <wc_ShaUpdate+0x1a>
   133fa:	4622      	mov	r2, r4
   133fc:	4640      	mov	r0, r8
   133fe:	f7fd e816 	blx	1042c <memcpy@plt>
   13402:	602c      	str	r4, [r5, #0]
   13404:	e7bb      	b.n	1337e <wc_ShaUpdate+0x1a>
   13406:	2240      	movs	r2, #64	; 0x40
   13408:	4640      	mov	r0, r8
   1340a:	f7fd e810 	blx	1042c <memcpy@plt>
   1340e:	2240      	movs	r2, #64	; 0x40
   13410:	4641      	mov	r1, r8
   13412:	4640      	mov	r0, r8
   13414:	f1a9 0940 	sub.w	r9, r9, #64	; 0x40
   13418:	f7ff f8a0 	bl	1255c <ByteReverseWords>
   1341c:	4628      	mov	r0, r5
   1341e:	f7ff f8a9 	bl	12574 <Transform>
   13422:	4606      	mov	r6, r0
   13424:	e7da      	b.n	133dc <wc_ShaUpdate+0x78>
   13426:	f06f 06ac 	mvn.w	r6, #172	; 0xac
   1342a:	e7a8      	b.n	1337e <wc_ShaUpdate+0x1a>
   1342c:	f06f 0683 	mvn.w	r6, #131	; 0x83
   13430:	e7a5      	b.n	1337e <wc_ShaUpdate+0x1a>
	...

00013434 <wc_ShaFinal>:
   13434:	b5f8      	push	{r3, r4, r5, r6, r7, lr}
   13436:	460f      	mov	r7, r1
   13438:	4604      	mov	r4, r0
   1343a:	2800      	cmp	r0, #0
   1343c:	d065      	beq.n	1350a <wc_ShaFinal+0xd6>
   1343e:	2900      	cmp	r1, #0
   13440:	d063      	beq.n	1350a <wc_ShaFinal+0xd6>
   13442:	4606      	mov	r6, r0
   13444:	f856 3b0c 	ldr.w	r3, [r6], #12
   13448:	1c5a      	adds	r2, r3, #1
   1344a:	6002      	str	r2, [r0, #0]
   1344c:	2280      	movs	r2, #128	; 0x80
   1344e:	54f2      	strb	r2, [r6, r3]
   13450:	6800      	ldr	r0, [r0, #0]
   13452:	2838      	cmp	r0, #56	; 0x38
   13454:	d912      	bls.n	1347c <wc_ShaFinal+0x48>
   13456:	f1c0 0240 	rsb	r2, r0, #64	; 0x40
   1345a:	2100      	movs	r1, #0
   1345c:	4430      	add	r0, r6
   1345e:	f7fd e804 	blx	10468 <memset@plt>
   13462:	2240      	movs	r2, #64	; 0x40
   13464:	4631      	mov	r1, r6
   13466:	4630      	mov	r0, r6
   13468:	6022      	str	r2, [r4, #0]
   1346a:	f7ff f877 	bl	1255c <ByteReverseWords>
   1346e:	4620      	mov	r0, r4
   13470:	f7ff f880 	bl	12574 <Transform>
   13474:	4605      	mov	r5, r0
   13476:	2800      	cmp	r0, #0
   13478:	d145      	bne.n	13506 <wc_ShaFinal+0xd2>
   1347a:	6020      	str	r0, [r4, #0]
   1347c:	6820      	ldr	r0, [r4, #0]
   1347e:	2100      	movs	r1, #0
   13480:	f1c0 0238 	rsb	r2, r0, #56	; 0x38
   13484:	4430      	add	r0, r6
   13486:	f7fc eff0 	blx	10468 <memset@plt>
   1348a:	2240      	movs	r2, #64	; 0x40
   1348c:	4631      	mov	r1, r6
   1348e:	4630      	mov	r0, r6
   13490:	f7ff f864 	bl	1255c <ByteReverseWords>
   13494:	e9d4 3101 	ldrd	r3, r1, [r4, #4]
   13498:	f104 0044 	add.w	r0, r4, #68	; 0x44
   1349c:	0f5a      	lsrs	r2, r3, #29
   1349e:	00db      	lsls	r3, r3, #3
   134a0:	eb02 02c1 	add.w	r2, r2, r1, lsl #3
   134a4:	f104 0108 	add.w	r1, r4, #8
   134a8:	e9c4 3201 	strd	r3, r2, [r4, #4]
   134ac:	2204      	movs	r2, #4
   134ae:	f7fc efbe 	blx	1042c <memcpy@plt>
   134b2:	2204      	movs	r2, #4
   134b4:	f104 0048 	add.w	r0, r4, #72	; 0x48
   134b8:	18a1      	adds	r1, r4, r2
   134ba:	f7fc efb8 	blx	1042c <memcpy@plt>
   134be:	4631      	mov	r1, r6
   134c0:	4620      	mov	r0, r4
   134c2:	f7ff f857 	bl	12574 <Transform>
   134c6:	f104 014c 	add.w	r1, r4, #76	; 0x4c
   134ca:	2214      	movs	r2, #20
   134cc:	4605      	mov	r5, r0
   134ce:	4608      	mov	r0, r1
   134d0:	f7ff f844 	bl	1255c <ByteReverseWords>
   134d4:	2214      	movs	r2, #20
   134d6:	4638      	mov	r0, r7
   134d8:	f7fc efa8 	blx	1042c <memcpy@plt>
   134dc:	4b0c      	ldr	r3, [pc, #48]	; (13510 <wc_ShaFinal+0xdc>)
   134de:	64e3      	str	r3, [r4, #76]	; 0x4c
   134e0:	f103 3388 	add.w	r3, r3, #2290649224	; 0x88888888
   134e4:	6523      	str	r3, [r4, #80]	; 0x50
   134e6:	f103 4329 	add.w	r3, r3, #2835349504	; 0xa9000000
   134ea:	f5a3 1396 	sub.w	r3, r3, #1228800	; 0x12c000
   134ee:	f6a3 638b 	subw	r3, r3, #3723	; 0xe8b
   134f2:	6563      	str	r3, [r4, #84]	; 0x54
   134f4:	f1a3 3388 	sub.w	r3, r3, #2290649224	; 0x88888888
   134f8:	65a3      	str	r3, [r4, #88]	; 0x58
   134fa:	4b06      	ldr	r3, [pc, #24]	; (13514 <wc_ShaFinal+0xe0>)
   134fc:	65e3      	str	r3, [r4, #92]	; 0x5c
   134fe:	2300      	movs	r3, #0
   13500:	e9c4 3300 	strd	r3, r3, [r4]
   13504:	60a3      	str	r3, [r4, #8]
   13506:	4628      	mov	r0, r5
   13508:	bdf8      	pop	{r3, r4, r5, r6, r7, pc}
   1350a:	f06f 05ac 	mvn.w	r5, #172	; 0xac
   1350e:	e7fa      	b.n	13506 <wc_ShaFinal+0xd2>
   13510:	67452301 	.word	0x67452301
   13514:	c3d2e1f0 	.word	0xc3d2e1f0

00013518 <wc_ShaFree>:
   13518:	4770      	bx	lr

0001351a <ByteReverseWords>:
   1351a:	0892      	lsrs	r2, r2, #2
   1351c:	2300      	movs	r3, #0
   1351e:	b510      	push	{r4, lr}
   13520:	f851 4023 	ldr.w	r4, [r1, r3, lsl #2]
   13524:	ba24      	rev	r4, r4
   13526:	f840 4023 	str.w	r4, [r0, r3, lsl #2]
   1352a:	3301      	adds	r3, #1
   1352c:	429a      	cmp	r2, r3
   1352e:	d1f7      	bne.n	13520 <ByteReverseWords+0x6>
   13530:	bd10      	pop	{r4, pc}
	...

00013534 <Transform_Sha256>:
   13534:	e92d 4ff0 	stmdb	sp!, {r4, r5, r6, r7, r8, r9, sl, fp, lr}
   13538:	4604      	mov	r4, r0
   1353a:	b08d      	sub	sp, #52	; 0x34
   1353c:	f44f 7080 	mov.w	r0, #256	; 0x100
   13540:	460d      	mov	r5, r1
   13542:	f7fc ef80 	blx	10444 <malloc@plt>
   13546:	4682      	mov	sl, r0
   13548:	2800      	cmp	r0, #0
   1354a:	f000 8185 	beq.w	13858 <Transform_Sha256+0x324>
   1354e:	1f23      	subs	r3, r4, #4
   13550:	9300      	str	r3, [sp, #0]
   13552:	ab04      	add	r3, sp, #16
   13554:	9301      	str	r3, [sp, #4]
   13556:	f104 031c 	add.w	r3, r4, #28
   1355a:	9a01      	ldr	r2, [sp, #4]
   1355c:	9302      	str	r3, [sp, #8]
   1355e:	9b00      	ldr	r3, [sp, #0]
   13560:	f853 1f04 	ldr.w	r1, [r3, #4]!
   13564:	f842 1b04 	str.w	r1, [r2], #4
   13568:	9902      	ldr	r1, [sp, #8]
   1356a:	4299      	cmp	r1, r3
   1356c:	d1f8      	bne.n	13560 <Transform_Sha256+0x2c>
   1356e:	2300      	movs	r3, #0
   13570:	f855 2023 	ldr.w	r2, [r5, r3, lsl #2]
   13574:	f84a 2023 	str.w	r2, [sl, r3, lsl #2]
   13578:	3301      	adds	r3, #1
   1357a:	2b10      	cmp	r3, #16
   1357c:	d1f8      	bne.n	13570 <Transform_Sha256+0x3c>
   1357e:	46d0      	mov	r8, sl
   13580:	f10a 00c0 	add.w	r0, sl, #192	; 0xc0
   13584:	4652      	mov	r2, sl
   13586:	6b91      	ldr	r1, [r2, #56]	; 0x38
   13588:	4615      	mov	r5, r2
   1358a:	f852 4f04 	ldr.w	r4, [r2, #4]!
   1358e:	ea4f 43f1 	mov.w	r3, r1, ror #19
   13592:	ea83 4371 	eor.w	r3, r3, r1, ror #17
   13596:	4290      	cmp	r0, r2
   13598:	ea83 2391 	eor.w	r3, r3, r1, lsr #10
   1359c:	6a69      	ldr	r1, [r5, #36]	; 0x24
   1359e:	682d      	ldr	r5, [r5, #0]
   135a0:	4429      	add	r1, r5
   135a2:	440b      	add	r3, r1
   135a4:	ea4f 41b4 	mov.w	r1, r4, ror #18
   135a8:	ea81 11f4 	eor.w	r1, r1, r4, ror #7
   135ac:	ea81 01d4 	eor.w	r1, r1, r4, lsr #3
   135b0:	440b      	add	r3, r1
   135b2:	63d3      	str	r3, [r2, #60]	; 0x3c
   135b4:	d1e7      	bne.n	13586 <Transform_Sha256+0x52>
   135b6:	f8df 92a8 	ldr.w	r9, [pc, #680]	; 13860 <Transform_Sha256+0x32c>
   135ba:	f50a 7680 	add.w	r6, sl, #256	; 0x100
   135be:	e9dd ec04 	ldrd	lr, ip, [sp, #16]
   135c2:	9603      	str	r6, [sp, #12]
   135c4:	e9dd 2306 	ldrd	r2, r3, [sp, #24]
   135c8:	e9dd 4108 	ldrd	r4, r1, [sp, #32]
   135cc:	e9dd 050a 	ldrd	r0, r5, [sp, #40]	; 0x28
   135d0:	ea4f 2bf4 	mov.w	fp, r4, ror #11
   135d4:	f108 0820 	add.w	r8, r8, #32
   135d8:	f109 0920 	add.w	r9, r9, #32
   135dc:	f858 7c20 	ldr.w	r7, [r8, #-32]
   135e0:	ea8b 1bb4 	eor.w	fp, fp, r4, ror #6
   135e4:	f859 6c20 	ldr.w	r6, [r9, #-32]
   135e8:	ea8b 6b74 	eor.w	fp, fp, r4, ror #25
   135ec:	443e      	add	r6, r7
   135ee:	ea4e 070c 	orr.w	r7, lr, ip
   135f2:	44b3      	add	fp, r6
   135f4:	ea80 0601 	eor.w	r6, r0, r1
   135f8:	4026      	ands	r6, r4
   135fa:	4017      	ands	r7, r2
   135fc:	4046      	eors	r6, r0
   135fe:	44b3      	add	fp, r6
   13600:	ea4f 06be 	mov.w	r6, lr, ror #2
   13604:	445d      	add	r5, fp
   13606:	ea0e 0b0c 	and.w	fp, lr, ip
   1360a:	ea86 367e 	eor.w	r6, r6, lr, ror #13
   1360e:	ea47 070b 	orr.w	r7, r7, fp
   13612:	442b      	add	r3, r5
   13614:	ea84 0b01 	eor.w	fp, r4, r1
   13618:	ea86 56be 	eor.w	r6, r6, lr, ror #22
   1361c:	ea0b 0b03 	and.w	fp, fp, r3
   13620:	ea8b 0b01 	eor.w	fp, fp, r1
   13624:	4437      	add	r7, r6
   13626:	f859 6c1c 	ldr.w	r6, [r9, #-28]
   1362a:	443d      	add	r5, r7
   1362c:	f858 7c1c 	ldr.w	r7, [r8, #-28]
   13630:	443e      	add	r6, r7
   13632:	ea45 070e 	orr.w	r7, r5, lr
   13636:	4430      	add	r0, r6
   13638:	ea4f 26f3 	mov.w	r6, r3, ror #11
   1363c:	ea07 070c 	and.w	r7, r7, ip
   13640:	4458      	add	r0, fp
   13642:	ea05 0b0e 	and.w	fp, r5, lr
   13646:	ea86 16b3 	eor.w	r6, r6, r3, ror #6
   1364a:	ea47 070b 	orr.w	r7, r7, fp
   1364e:	ea84 0b03 	eor.w	fp, r4, r3
   13652:	ea86 6673 	eor.w	r6, r6, r3, ror #25
   13656:	4406      	add	r6, r0
   13658:	ea4f 3075 	mov.w	r0, r5, ror #13
   1365c:	4432      	add	r2, r6
   1365e:	ea80 00b5 	eor.w	r0, r0, r5, ror #2
   13662:	ea0b 0b02 	and.w	fp, fp, r2
   13666:	ea8b 0b04 	eor.w	fp, fp, r4
   1366a:	ea80 50b5 	eor.w	r0, r0, r5, ror #22
   1366e:	4438      	add	r0, r7
   13670:	f858 7c18 	ldr.w	r7, [r8, #-24]
   13674:	4430      	add	r0, r6
   13676:	f859 6c18 	ldr.w	r6, [r9, #-24]
   1367a:	443e      	add	r6, r7
   1367c:	ea45 0700 	orr.w	r7, r5, r0
   13680:	4431      	add	r1, r6
   13682:	ea4f 26f2 	mov.w	r6, r2, ror #11
   13686:	ea07 070e 	and.w	r7, r7, lr
   1368a:	4459      	add	r1, fp
   1368c:	ea05 0b00 	and.w	fp, r5, r0
   13690:	ea86 16b2 	eor.w	r6, r6, r2, ror #6
   13694:	ea47 070b 	orr.w	r7, r7, fp
   13698:	ea83 0b02 	eor.w	fp, r3, r2
   1369c:	ea86 6672 	eor.w	r6, r6, r2, ror #25
   136a0:	440e      	add	r6, r1
   136a2:	ea4f 3170 	mov.w	r1, r0, ror #13
   136a6:	44b4      	add	ip, r6
   136a8:	ea81 01b0 	eor.w	r1, r1, r0, ror #2
   136ac:	ea0b 0b0c 	and.w	fp, fp, ip
   136b0:	ea8b 0b03 	eor.w	fp, fp, r3
   136b4:	ea81 51b0 	eor.w	r1, r1, r0, ror #22
   136b8:	4439      	add	r1, r7
   136ba:	f858 7c14 	ldr.w	r7, [r8, #-20]
   136be:	4431      	add	r1, r6
   136c0:	f859 6c14 	ldr.w	r6, [r9, #-20]
   136c4:	443e      	add	r6, r7
   136c6:	ea40 0701 	orr.w	r7, r0, r1
   136ca:	4434      	add	r4, r6
   136cc:	ea4f 26fc 	mov.w	r6, ip, ror #11
   136d0:	402f      	ands	r7, r5
   136d2:	445c      	add	r4, fp
   136d4:	ea00 0b01 	and.w	fp, r0, r1
   136d8:	ea86 16bc 	eor.w	r6, r6, ip, ror #6
   136dc:	ea47 070b 	orr.w	r7, r7, fp
   136e0:	ea82 0b0c 	eor.w	fp, r2, ip
   136e4:	ea86 667c 	eor.w	r6, r6, ip, ror #25
   136e8:	4426      	add	r6, r4
   136ea:	ea4f 3471 	mov.w	r4, r1, ror #13
   136ee:	44b6      	add	lr, r6
   136f0:	ea84 04b1 	eor.w	r4, r4, r1, ror #2
   136f4:	ea0b 0b0e 	and.w	fp, fp, lr
   136f8:	ea8b 0b02 	eor.w	fp, fp, r2
   136fc:	ea84 54b1 	eor.w	r4, r4, r1, ror #22
   13700:	443c      	add	r4, r7
   13702:	f858 7c10 	ldr.w	r7, [r8, #-16]
   13706:	4434      	add	r4, r6
   13708:	f859 6c10 	ldr.w	r6, [r9, #-16]
   1370c:	443e      	add	r6, r7
   1370e:	ea41 0704 	orr.w	r7, r1, r4
   13712:	4433      	add	r3, r6
   13714:	ea4f 26fe 	mov.w	r6, lr, ror #11
   13718:	4007      	ands	r7, r0
   1371a:	445b      	add	r3, fp
   1371c:	ea01 0b04 	and.w	fp, r1, r4
   13720:	ea86 16be 	eor.w	r6, r6, lr, ror #6
   13724:	ea47 070b 	orr.w	r7, r7, fp
   13728:	ea8c 0b0e 	eor.w	fp, ip, lr
   1372c:	ea86 667e 	eor.w	r6, r6, lr, ror #25
   13730:	441e      	add	r6, r3
   13732:	ea4f 3374 	mov.w	r3, r4, ror #13
   13736:	4435      	add	r5, r6
   13738:	ea83 03b4 	eor.w	r3, r3, r4, ror #2
   1373c:	ea0b 0b05 	and.w	fp, fp, r5
   13740:	ea8b 0b0c 	eor.w	fp, fp, ip
   13744:	ea83 53b4 	eor.w	r3, r3, r4, ror #22
   13748:	443b      	add	r3, r7
   1374a:	f858 7c0c 	ldr.w	r7, [r8, #-12]
   1374e:	4433      	add	r3, r6
   13750:	f859 6c0c 	ldr.w	r6, [r9, #-12]
   13754:	443e      	add	r6, r7
   13756:	ea44 0703 	orr.w	r7, r4, r3
   1375a:	4432      	add	r2, r6
   1375c:	ea4f 26f5 	mov.w	r6, r5, ror #11
   13760:	400f      	ands	r7, r1
   13762:	445a      	add	r2, fp
   13764:	ea04 0b03 	and.w	fp, r4, r3
   13768:	ea86 16b5 	eor.w	r6, r6, r5, ror #6
   1376c:	ea47 070b 	orr.w	r7, r7, fp
   13770:	ea8e 0b05 	eor.w	fp, lr, r5
   13774:	ea86 6675 	eor.w	r6, r6, r5, ror #25
   13778:	4416      	add	r6, r2
   1377a:	ea4f 3273 	mov.w	r2, r3, ror #13
   1377e:	4430      	add	r0, r6
   13780:	ea82 02b3 	eor.w	r2, r2, r3, ror #2
   13784:	ea0b 0b00 	and.w	fp, fp, r0
   13788:	ea8b 0b0e 	eor.w	fp, fp, lr
   1378c:	ea82 52b3 	eor.w	r2, r2, r3, ror #22
   13790:	443a      	add	r2, r7
   13792:	f858 7c08 	ldr.w	r7, [r8, #-8]
   13796:	4432      	add	r2, r6
   13798:	f859 6c08 	ldr.w	r6, [r9, #-8]
   1379c:	443e      	add	r6, r7
   1379e:	ea43 0702 	orr.w	r7, r3, r2
   137a2:	44b4      	add	ip, r6
   137a4:	ea4f 26f0 	mov.w	r6, r0, ror #11
   137a8:	4027      	ands	r7, r4
   137aa:	44dc      	add	ip, fp
   137ac:	ea03 0b02 	and.w	fp, r3, r2
   137b0:	ea86 16b0 	eor.w	r6, r6, r0, ror #6
   137b4:	ea47 070b 	orr.w	r7, r7, fp
   137b8:	ea85 0b00 	eor.w	fp, r5, r0
   137bc:	ea86 6670 	eor.w	r6, r6, r0, ror #25
   137c0:	4466      	add	r6, ip
   137c2:	ea4f 3c72 	mov.w	ip, r2, ror #13
   137c6:	4431      	add	r1, r6
   137c8:	ea8c 0cb2 	eor.w	ip, ip, r2, ror #2
   137cc:	ea0b 0b01 	and.w	fp, fp, r1
   137d0:	ea8b 0b05 	eor.w	fp, fp, r5
   137d4:	ea8c 5cb2 	eor.w	ip, ip, r2, ror #22
   137d8:	44bc      	add	ip, r7
   137da:	f858 7c04 	ldr.w	r7, [r8, #-4]
   137de:	44b4      	add	ip, r6
   137e0:	f859 6c04 	ldr.w	r6, [r9, #-4]
   137e4:	443e      	add	r6, r7
   137e6:	ea42 070c 	orr.w	r7, r2, ip
   137ea:	44b6      	add	lr, r6
   137ec:	ea4f 26f1 	mov.w	r6, r1, ror #11
   137f0:	401f      	ands	r7, r3
   137f2:	44de      	add	lr, fp
   137f4:	ea02 0b0c 	and.w	fp, r2, ip
   137f8:	ea86 16b1 	eor.w	r6, r6, r1, ror #6
   137fc:	ea47 070b 	orr.w	r7, r7, fp
   13800:	ea86 6671 	eor.w	r6, r6, r1, ror #25
   13804:	4476      	add	r6, lr
   13806:	ea4f 3e7c 	mov.w	lr, ip, ror #13
   1380a:	4434      	add	r4, r6
   1380c:	ea8e 0ebc 	eor.w	lr, lr, ip, ror #2
   13810:	ea8e 5ebc 	eor.w	lr, lr, ip, ror #22
   13814:	44be      	add	lr, r7
   13816:	44b6      	add	lr, r6
   13818:	9e03      	ldr	r6, [sp, #12]
   1381a:	4546      	cmp	r6, r8
   1381c:	f47f aed8 	bne.w	135d0 <Transform_Sha256+0x9c>
   13820:	e9cd ec04 	strd	lr, ip, [sp, #16]
   13824:	e9cd 2306 	strd	r2, r3, [sp, #24]
   13828:	e9cd 4108 	strd	r4, r1, [sp, #32]
   1382c:	e9cd 050a 	strd	r0, r5, [sp, #40]	; 0x28
   13830:	e9dd 1300 	ldrd	r1, r3, [sp]
   13834:	f853 2b04 	ldr.w	r2, [r3], #4
   13838:	9301      	str	r3, [sp, #4]
   1383a:	f851 3f04 	ldr.w	r3, [r1, #4]!
   1383e:	4413      	add	r3, r2
   13840:	9100      	str	r1, [sp, #0]
   13842:	600b      	str	r3, [r1, #0]
   13844:	9b02      	ldr	r3, [sp, #8]
   13846:	428b      	cmp	r3, r1
   13848:	d1f2      	bne.n	13830 <Transform_Sha256+0x2fc>
   1384a:	4650      	mov	r0, sl
   1384c:	f7fc ede2 	blx	10414 <free@plt>
   13850:	2000      	movs	r0, #0
   13852:	b00d      	add	sp, #52	; 0x34
   13854:	e8bd 8ff0 	ldmia.w	sp!, {r4, r5, r6, r7, r8, r9, sl, fp, pc}
   13858:	f06f 007c 	mvn.w	r0, #124	; 0x7c
   1385c:	e7f9      	b.n	13852 <Transform_Sha256+0x31e>
   1385e:	bf00      	nop
   13860:	0001cd44 	.word	0x0001cd44

00013864 <Sha256Update>:
   13864:	e92d 41f0 	stmdb	sp!, {r4, r5, r6, r7, r8, lr}
   13868:	460e      	mov	r6, r1
   1386a:	4614      	mov	r4, r2
   1386c:	4605      	mov	r5, r0
   1386e:	2800      	cmp	r0, #0
   13870:	d049      	beq.n	13906 <Sha256Update+0xa2>
   13872:	b919      	cbnz	r1, 1387c <Sha256Update+0x18>
   13874:	2a00      	cmp	r2, #0
   13876:	d146      	bne.n	13906 <Sha256Update+0xa2>
   13878:	2000      	movs	r0, #0
   1387a:	e042      	b.n	13902 <Sha256Update+0x9e>
   1387c:	6e00      	ldr	r0, [r0, #96]	; 0x60
   1387e:	283f      	cmp	r0, #63	; 0x3f
   13880:	d844      	bhi.n	1390c <Sha256Update+0xa8>
   13882:	6e6b      	ldr	r3, [r5, #100]	; 0x64
   13884:	f105 0720 	add.w	r7, r5, #32
   13888:	18d3      	adds	r3, r2, r3
   1388a:	666b      	str	r3, [r5, #100]	; 0x64
   1388c:	bf22      	ittt	cs
   1388e:	6eab      	ldrcs	r3, [r5, #104]	; 0x68
   13890:	3301      	addcs	r3, #1
   13892:	66ab      	strcs	r3, [r5, #104]	; 0x68
   13894:	b1c8      	cbz	r0, 138ca <Sha256Update+0x66>
   13896:	f1c0 0840 	rsb	r8, r0, #64	; 0x40
   1389a:	4438      	add	r0, r7
   1389c:	4590      	cmp	r8, r2
   1389e:	bf28      	it	cs
   138a0:	4690      	movcs	r8, r2
   138a2:	4642      	mov	r2, r8
   138a4:	4446      	add	r6, r8
   138a6:	f7fc edc2 	blx	1042c <memcpy@plt>
   138aa:	6e2a      	ldr	r2, [r5, #96]	; 0x60
   138ac:	eba4 0408 	sub.w	r4, r4, r8
   138b0:	4442      	add	r2, r8
   138b2:	2a40      	cmp	r2, #64	; 0x40
   138b4:	662a      	str	r2, [r5, #96]	; 0x60
   138b6:	d108      	bne.n	138ca <Sha256Update+0x66>
   138b8:	4638      	mov	r0, r7
   138ba:	4639      	mov	r1, r7
   138bc:	f7ff fe2d 	bl	1351a <ByteReverseWords>
   138c0:	4628      	mov	r0, r5
   138c2:	f7ff fe37 	bl	13534 <Transform_Sha256>
   138c6:	b9e0      	cbnz	r0, 13902 <Sha256Update+0x9e>
   138c8:	6628      	str	r0, [r5, #96]	; 0x60
   138ca:	4426      	add	r6, r4
   138cc:	2c3f      	cmp	r4, #63	; 0x3f
   138ce:	eba6 0104 	sub.w	r1, r6, r4
   138d2:	d807      	bhi.n	138e4 <Sha256Update+0x80>
   138d4:	2c00      	cmp	r4, #0
   138d6:	d0cf      	beq.n	13878 <Sha256Update+0x14>
   138d8:	4622      	mov	r2, r4
   138da:	4638      	mov	r0, r7
   138dc:	f7fc eda6 	blx	1042c <memcpy@plt>
   138e0:	662c      	str	r4, [r5, #96]	; 0x60
   138e2:	e7c9      	b.n	13878 <Sha256Update+0x14>
   138e4:	2240      	movs	r2, #64	; 0x40
   138e6:	4638      	mov	r0, r7
   138e8:	f7fc eda0 	blx	1042c <memcpy@plt>
   138ec:	4638      	mov	r0, r7
   138ee:	2240      	movs	r2, #64	; 0x40
   138f0:	4639      	mov	r1, r7
   138f2:	3c40      	subs	r4, #64	; 0x40
   138f4:	f7ff fe11 	bl	1351a <ByteReverseWords>
   138f8:	4628      	mov	r0, r5
   138fa:	f7ff fe1b 	bl	13534 <Transform_Sha256>
   138fe:	2800      	cmp	r0, #0
   13900:	d0e4      	beq.n	138cc <Sha256Update+0x68>
   13902:	e8bd 81f0 	ldmia.w	sp!, {r4, r5, r6, r7, r8, pc}
   13906:	f06f 00ac 	mvn.w	r0, #172	; 0xac
   1390a:	e7fa      	b.n	13902 <Sha256Update+0x9e>
   1390c:	f06f 0083 	mvn.w	r0, #131	; 0x83
   13910:	e7f7      	b.n	13902 <Sha256Update+0x9e>

00013912 <Sha256Final>:
   13912:	b538      	push	{r3, r4, r5, lr}
   13914:	4604      	mov	r4, r0
   13916:	2800      	cmp	r0, #0
   13918:	d042      	beq.n	139a0 <Sha256Final+0x8e>
   1391a:	f100 0520 	add.w	r5, r0, #32
   1391e:	6e03      	ldr	r3, [r0, #96]	; 0x60
   13920:	1c5a      	adds	r2, r3, #1
   13922:	6602      	str	r2, [r0, #96]	; 0x60
   13924:	2280      	movs	r2, #128	; 0x80
   13926:	54ea      	strb	r2, [r5, r3]
   13928:	6e00      	ldr	r0, [r0, #96]	; 0x60
   1392a:	2838      	cmp	r0, #56	; 0x38
   1392c:	d910      	bls.n	13950 <Sha256Final+0x3e>
   1392e:	f1c0 0240 	rsb	r2, r0, #64	; 0x40
   13932:	2100      	movs	r1, #0
   13934:	4428      	add	r0, r5
   13936:	f7fc ed98 	blx	10468 <memset@plt>
   1393a:	2240      	movs	r2, #64	; 0x40
   1393c:	4628      	mov	r0, r5
   1393e:	4629      	mov	r1, r5
   13940:	6622      	str	r2, [r4, #96]	; 0x60
   13942:	f7ff fdea 	bl	1351a <ByteReverseWords>
   13946:	4620      	mov	r0, r4
   13948:	f7ff fdf4 	bl	13534 <Transform_Sha256>
   1394c:	bb50      	cbnz	r0, 139a4 <Sha256Final+0x92>
   1394e:	6620      	str	r0, [r4, #96]	; 0x60
   13950:	6e20      	ldr	r0, [r4, #96]	; 0x60
   13952:	2100      	movs	r1, #0
   13954:	f1c0 0238 	rsb	r2, r0, #56	; 0x38
   13958:	4428      	add	r0, r5
   1395a:	f7fc ed86 	blx	10468 <memset@plt>
   1395e:	e9d4 3119 	ldrd	r3, r1, [r4, #100]	; 0x64
   13962:	4628      	mov	r0, r5
   13964:	0f5a      	lsrs	r2, r3, #29
   13966:	00db      	lsls	r3, r3, #3
   13968:	eb02 02c1 	add.w	r2, r2, r1, lsl #3
   1396c:	4629      	mov	r1, r5
   1396e:	e9c4 3219 	strd	r3, r2, [r4, #100]	; 0x64
   13972:	2240      	movs	r2, #64	; 0x40
   13974:	f7ff fdd1 	bl	1351a <ByteReverseWords>
   13978:	f104 0168 	add.w	r1, r4, #104	; 0x68
   1397c:	2204      	movs	r2, #4
   1397e:	f104 0058 	add.w	r0, r4, #88	; 0x58
   13982:	f7fc ed54 	blx	1042c <memcpy@plt>
   13986:	f104 0164 	add.w	r1, r4, #100	; 0x64
   1398a:	f104 005c 	add.w	r0, r4, #92	; 0x5c
   1398e:	2204      	movs	r2, #4
   13990:	f7fc ed4c 	blx	1042c <memcpy@plt>
   13994:	4629      	mov	r1, r5
   13996:	4620      	mov	r0, r4
   13998:	e8bd 4038 	ldmia.w	sp!, {r3, r4, r5, lr}
   1399c:	f7ff bdca 	b.w	13534 <Transform_Sha256>
   139a0:	f06f 00ac 	mvn.w	r0, #172	; 0xac
   139a4:	bd38      	pop	{r3, r4, r5, pc}
	...

000139a8 <wc_InitSha256_ex>:
   139a8:	b538      	push	{r3, r4, r5, lr}
   139aa:	460d      	mov	r5, r1
   139ac:	4604      	mov	r4, r0
   139ae:	b1f0      	cbz	r0, 139ee <wc_InitSha256_ex+0x46>
   139b0:	2220      	movs	r2, #32
   139b2:	2100      	movs	r1, #0
   139b4:	f7fc ed58 	blx	10468 <memset@plt>
   139b8:	4b0e      	ldr	r3, [pc, #56]	; (139f4 <wc_InitSha256_ex+0x4c>)
   139ba:	2000      	movs	r0, #0
   139bc:	4a0e      	ldr	r2, [pc, #56]	; (139f8 <wc_InitSha256_ex+0x50>)
   139be:	490f      	ldr	r1, [pc, #60]	; (139fc <wc_InitSha256_ex+0x54>)
   139c0:	6023      	str	r3, [r4, #0]
   139c2:	4b0f      	ldr	r3, [pc, #60]	; (13a00 <wc_InitSha256_ex+0x58>)
   139c4:	e9c4 051a 	strd	r0, r5, [r4, #104]	; 0x68
   139c8:	4d0e      	ldr	r5, [pc, #56]	; (13a04 <wc_InitSha256_ex+0x5c>)
   139ca:	e9c4 2301 	strd	r2, r3, [r4, #4]
   139ce:	4b0e      	ldr	r3, [pc, #56]	; (13a08 <wc_InitSha256_ex+0x60>)
   139d0:	e9c4 0018 	strd	r0, r0, [r4, #96]	; 0x60
   139d4:	e9c4 1303 	strd	r1, r3, [r4, #12]
   139d8:	4b0c      	ldr	r3, [pc, #48]	; (13a0c <wc_InitSha256_ex+0x64>)
   139da:	e9c4 5305 	strd	r5, r3, [r4, #20]
   139de:	f103 5374 	add.w	r3, r3, #1023410176	; 0x3d000000
   139e2:	f5a3 0323 	sub.w	r3, r3, #10682368	; 0xa30000
   139e6:	f6a3 4392 	subw	r3, r3, #3218	; 0xc92
   139ea:	61e3      	str	r3, [r4, #28]
   139ec:	bd38      	pop	{r3, r4, r5, pc}
   139ee:	f06f 00ac 	mvn.w	r0, #172	; 0xac
   139f2:	e7fb      	b.n	139ec <wc_InitSha256_ex+0x44>
   139f4:	6a09e667 	.word	0x6a09e667
   139f8:	bb67ae85 	.word	0xbb67ae85
   139fc:	a54ff53a 	.word	0xa54ff53a
   13a00:	3c6ef372 	.word	0x3c6ef372
   13a04:	9b05688c 	.word	0x9b05688c
   13a08:	510e527f 	.word	0x510e527f
   13a0c:	1f83d9ab 	.word	0x1f83d9ab

00013a10 <wc_Sha256Update>:
   13a10:	b410      	push	{r4}
   13a12:	b160      	cbz	r0, 13a2e <wc_Sha256Update+0x1e>
   13a14:	b939      	cbnz	r1, 13a26 <wc_Sha256Update+0x16>
   13a16:	2a00      	cmp	r2, #0
   13a18:	bf14      	ite	ne
   13a1a:	f06f 00ac 	mvnne.w	r0, #172	; 0xac
   13a1e:	2000      	moveq	r0, #0
   13a20:	f85d 4b04 	ldr.w	r4, [sp], #4
   13a24:	4770      	bx	lr
   13a26:	f85d 4b04 	ldr.w	r4, [sp], #4
   13a2a:	f7ff bf1b 	b.w	13864 <Sha256Update>
   13a2e:	f06f 00ac 	mvn.w	r0, #172	; 0xac
   13a32:	e7f5      	b.n	13a20 <wc_Sha256Update+0x10>

00013a34 <wc_Sha256Final>:
   13a34:	b570      	push	{r4, r5, r6, lr}
   13a36:	460e      	mov	r6, r1
   13a38:	4604      	mov	r4, r0
   13a3a:	b360      	cbz	r0, 13a96 <wc_Sha256Final+0x62>
   13a3c:	b359      	cbz	r1, 13a96 <wc_Sha256Final+0x62>
   13a3e:	f7ff ff68 	bl	13912 <Sha256Final>
   13a42:	4605      	mov	r5, r0
   13a44:	bb28      	cbnz	r0, 13a92 <wc_Sha256Final+0x5e>
   13a46:	4621      	mov	r1, r4
   13a48:	2220      	movs	r2, #32
   13a4a:	4620      	mov	r0, r4
   13a4c:	f7ff fd65 	bl	1351a <ByteReverseWords>
   13a50:	2220      	movs	r2, #32
   13a52:	4630      	mov	r0, r6
   13a54:	f7fc ecea 	blx	1042c <memcpy@plt>
   13a58:	2220      	movs	r2, #32
   13a5a:	4629      	mov	r1, r5
   13a5c:	4620      	mov	r0, r4
   13a5e:	f7fc ed04 	blx	10468 <memset@plt>
   13a62:	4b0e      	ldr	r3, [pc, #56]	; (13a9c <wc_Sha256Final+0x68>)
   13a64:	4a0e      	ldr	r2, [pc, #56]	; (13aa0 <wc_Sha256Final+0x6c>)
   13a66:	490f      	ldr	r1, [pc, #60]	; (13aa4 <wc_Sha256Final+0x70>)
   13a68:	6023      	str	r3, [r4, #0]
   13a6a:	4b0f      	ldr	r3, [pc, #60]	; (13aa8 <wc_Sha256Final+0x74>)
   13a6c:	e9c4 5518 	strd	r5, r5, [r4, #96]	; 0x60
   13a70:	480e      	ldr	r0, [pc, #56]	; (13aac <wc_Sha256Final+0x78>)
   13a72:	e9c4 2301 	strd	r2, r3, [r4, #4]
   13a76:	4b0e      	ldr	r3, [pc, #56]	; (13ab0 <wc_Sha256Final+0x7c>)
   13a78:	66a5      	str	r5, [r4, #104]	; 0x68
   13a7a:	e9c4 1303 	strd	r1, r3, [r4, #12]
   13a7e:	4b0d      	ldr	r3, [pc, #52]	; (13ab4 <wc_Sha256Final+0x80>)
   13a80:	e9c4 0305 	strd	r0, r3, [r4, #20]
   13a84:	f103 5374 	add.w	r3, r3, #1023410176	; 0x3d000000
   13a88:	f5a3 0323 	sub.w	r3, r3, #10682368	; 0xa30000
   13a8c:	f6a3 4392 	subw	r3, r3, #3218	; 0xc92
   13a90:	61e3      	str	r3, [r4, #28]
   13a92:	4628      	mov	r0, r5
   13a94:	bd70      	pop	{r4, r5, r6, pc}
   13a96:	f06f 05ac 	mvn.w	r5, #172	; 0xac
   13a9a:	e7fa      	b.n	13a92 <wc_Sha256Final+0x5e>
   13a9c:	6a09e667 	.word	0x6a09e667
   13aa0:	bb67ae85 	.word	0xbb67ae85
   13aa4:	a54ff53a 	.word	0xa54ff53a
   13aa8:	3c6ef372 	.word	0x3c6ef372
   13aac:	9b05688c 	.word	0x9b05688c
   13ab0:	510e527f 	.word	0x510e527f
   13ab4:	1f83d9ab 	.word	0x1f83d9ab

00013ab8 <wc_InitSha224_ex>:
   13ab8:	b300      	cbz	r0, 13afc <wc_InitSha224_ex+0x44>
   13aba:	4b12      	ldr	r3, [pc, #72]	; (13b04 <wc_InitSha224_ex+0x4c>)
   13abc:	4a12      	ldr	r2, [pc, #72]	; (13b08 <wc_InitSha224_ex+0x50>)
   13abe:	6003      	str	r3, [r0, #0]
   13ac0:	4b12      	ldr	r3, [pc, #72]	; (13b0c <wc_InitSha224_ex+0x54>)
   13ac2:	66c1      	str	r1, [r0, #108]	; 0x6c
   13ac4:	4912      	ldr	r1, [pc, #72]	; (13b10 <wc_InitSha224_ex+0x58>)
   13ac6:	6043      	str	r3, [r0, #4]
   13ac8:	f103 4379 	add.w	r3, r3, #4177526784	; 0xf9000000
   13acc:	f503 0374 	add.w	r3, r3, #15990784	; 0xf40000
   13ad0:	f503 6301 	add.w	r3, r3, #2064	; 0x810
   13ad4:	6083      	str	r3, [r0, #8]
   13ad6:	4b0f      	ldr	r3, [pc, #60]	; (13b14 <wc_InitSha224_ex+0x5c>)
   13ad8:	e9c0 2303 	strd	r2, r3, [r0, #12]
   13adc:	f103 43d1 	add.w	r3, r3, #1753219072	; 0x68800000
   13ae0:	f503 13c0 	add.w	r3, r3, #1572864	; 0x180000
   13ae4:	f503 631e 	add.w	r3, r3, #2528	; 0x9e0
   13ae8:	6143      	str	r3, [r0, #20]
   13aea:	4b0b      	ldr	r3, [pc, #44]	; (13b18 <wc_InitSha224_ex+0x60>)
   13aec:	e9c0 1306 	strd	r1, r3, [r0, #24]
   13af0:	2300      	movs	r3, #0
   13af2:	e9c0 3318 	strd	r3, r3, [r0, #96]	; 0x60
   13af6:	6683      	str	r3, [r0, #104]	; 0x68
   13af8:	4618      	mov	r0, r3
   13afa:	4770      	bx	lr
   13afc:	f06f 00ac 	mvn.w	r0, #172	; 0xac
   13b00:	4770      	bx	lr
   13b02:	bf00      	nop
   13b04:	c1059ed8 	.word	0xc1059ed8
   13b08:	f70e5939 	.word	0xf70e5939
   13b0c:	367cd507 	.word	0x367cd507
   13b10:	64f98fa7 	.word	0x64f98fa7
   13b14:	ffc00b31 	.word	0xffc00b31
   13b18:	befa4fa4 	.word	0xbefa4fa4

00013b1c <wc_Sha224Update>:
   13b1c:	b118      	cbz	r0, 13b26 <wc_Sha224Update+0xa>
   13b1e:	b901      	cbnz	r1, 13b22 <wc_Sha224Update+0x6>
   13b20:	b90a      	cbnz	r2, 13b26 <wc_Sha224Update+0xa>
   13b22:	f7ff be9f 	b.w	13864 <Sha256Update>
   13b26:	f06f 00ac 	mvn.w	r0, #172	; 0xac
   13b2a:	4770      	bx	lr

00013b2c <wc_Sha224Final>:
   13b2c:	b570      	push	{r4, r5, r6, lr}
   13b2e:	460e      	mov	r6, r1
   13b30:	4604      	mov	r4, r0
   13b32:	b360      	cbz	r0, 13b8e <wc_Sha224Final+0x62>
   13b34:	b359      	cbz	r1, 13b8e <wc_Sha224Final+0x62>
   13b36:	f7ff feec 	bl	13912 <Sha256Final>
   13b3a:	4605      	mov	r5, r0
   13b3c:	bb28      	cbnz	r0, 13b8a <wc_Sha224Final+0x5e>
   13b3e:	4621      	mov	r1, r4
   13b40:	221c      	movs	r2, #28
   13b42:	4620      	mov	r0, r4
   13b44:	f7ff fce9 	bl	1351a <ByteReverseWords>
   13b48:	221c      	movs	r2, #28
   13b4a:	4630      	mov	r0, r6
   13b4c:	f7fc ec6e 	blx	1042c <memcpy@plt>
   13b50:	4b10      	ldr	r3, [pc, #64]	; (13b94 <wc_Sha224Final+0x68>)
   13b52:	4a11      	ldr	r2, [pc, #68]	; (13b98 <wc_Sha224Final+0x6c>)
   13b54:	4911      	ldr	r1, [pc, #68]	; (13b9c <wc_Sha224Final+0x70>)
   13b56:	6023      	str	r3, [r4, #0]
   13b58:	4b11      	ldr	r3, [pc, #68]	; (13ba0 <wc_Sha224Final+0x74>)
   13b5a:	e9c4 5518 	strd	r5, r5, [r4, #96]	; 0x60
   13b5e:	66a5      	str	r5, [r4, #104]	; 0x68
   13b60:	6063      	str	r3, [r4, #4]
   13b62:	f103 4379 	add.w	r3, r3, #4177526784	; 0xf9000000
   13b66:	f503 0374 	add.w	r3, r3, #15990784	; 0xf40000
   13b6a:	f503 6301 	add.w	r3, r3, #2064	; 0x810
   13b6e:	60a3      	str	r3, [r4, #8]
   13b70:	4b0c      	ldr	r3, [pc, #48]	; (13ba4 <wc_Sha224Final+0x78>)
   13b72:	e9c4 2303 	strd	r2, r3, [r4, #12]
   13b76:	f103 43d1 	add.w	r3, r3, #1753219072	; 0x68800000
   13b7a:	f503 13c0 	add.w	r3, r3, #1572864	; 0x180000
   13b7e:	f503 631e 	add.w	r3, r3, #2528	; 0x9e0
   13b82:	6163      	str	r3, [r4, #20]
   13b84:	4b08      	ldr	r3, [pc, #32]	; (13ba8 <wc_Sha224Final+0x7c>)
   13b86:	e9c4 1306 	strd	r1, r3, [r4, #24]
   13b8a:	4628      	mov	r0, r5
   13b8c:	bd70      	pop	{r4, r5, r6, pc}
   13b8e:	f06f 05ac 	mvn.w	r5, #172	; 0xac
   13b92:	e7fa      	b.n	13b8a <wc_Sha224Final+0x5e>
   13b94:	c1059ed8 	.word	0xc1059ed8
   13b98:	f70e5939 	.word	0xf70e5939
   13b9c:	64f98fa7 	.word	0x64f98fa7
   13ba0:	367cd507 	.word	0x367cd507
   13ba4:	ffc00b31 	.word	0xffc00b31
   13ba8:	befa4fa4 	.word	0xbefa4fa4

00013bac <wc_InitSha224>:
   13bac:	f06f 0201 	mvn.w	r2, #1
   13bb0:	2100      	movs	r1, #0
   13bb2:	f7ff bf81 	b.w	13ab8 <wc_InitSha224_ex>

00013bb6 <wc_Sha224Free>:
   13bb6:	4770      	bx	lr

00013bb8 <wc_InitSha256>:
   13bb8:	f06f 0201 	mvn.w	r2, #1
   13bbc:	2100      	movs	r1, #0
   13bbe:	f7ff bef3 	b.w	139a8 <wc_InitSha256_ex>

00013bc2 <wc_Sha256Free>:
   13bc2:	4770      	bx	lr
   13bc4:	0000      	movs	r0, r0
	...

00013bc8 <InitSha512>:
   13bc8:	b530      	push	{r4, r5, lr}
   13bca:	b390      	cbz	r0, 13c32 <InitSha512+0x6a>
   13bcc:	2400      	movs	r4, #0
   13bce:	2500      	movs	r5, #0
   13bd0:	a319      	add	r3, pc, #100	; (adr r3, 13c38 <InitSha512+0x70>)
   13bd2:	e9d3 2300 	ldrd	r2, r3, [r3]
   13bd6:	e9c0 2300 	strd	r2, r3, [r0]
   13bda:	a319      	add	r3, pc, #100	; (adr r3, 13c40 <InitSha512+0x78>)
   13bdc:	e9d3 2300 	ldrd	r2, r3, [r3]
   13be0:	e9c0 4532 	strd	r4, r5, [r0, #200]	; 0xc8
   13be4:	e9c0 4534 	strd	r4, r5, [r0, #208]	; 0xd0
   13be8:	e9c0 2302 	strd	r2, r3, [r0, #8]
   13bec:	a316      	add	r3, pc, #88	; (adr r3, 13c48 <InitSha512+0x80>)
   13bee:	e9d3 2300 	ldrd	r2, r3, [r3]
   13bf2:	e9c0 2304 	strd	r2, r3, [r0, #16]
   13bf6:	a316      	add	r3, pc, #88	; (adr r3, 13c50 <InitSha512+0x88>)
   13bf8:	e9d3 2300 	ldrd	r2, r3, [r3]
   13bfc:	e9c0 2306 	strd	r2, r3, [r0, #24]
   13c00:	a315      	add	r3, pc, #84	; (adr r3, 13c58 <InitSha512+0x90>)
   13c02:	e9d3 2300 	ldrd	r2, r3, [r3]
   13c06:	e9c0 2308 	strd	r2, r3, [r0, #32]
   13c0a:	a315      	add	r3, pc, #84	; (adr r3, 13c60 <InitSha512+0x98>)
   13c0c:	e9d3 2300 	ldrd	r2, r3, [r3]
   13c10:	e9c0 230a 	strd	r2, r3, [r0, #40]	; 0x28
   13c14:	a314      	add	r3, pc, #80	; (adr r3, 13c68 <InitSha512+0xa0>)
   13c16:	e9d3 2300 	ldrd	r2, r3, [r3]
   13c1a:	e9c0 230c 	strd	r2, r3, [r0, #48]	; 0x30
   13c1e:	a314      	add	r3, pc, #80	; (adr r3, 13c70 <InitSha512+0xa8>)
   13c20:	e9d3 2300 	ldrd	r2, r3, [r3]
   13c24:	e9c0 230e 	strd	r2, r3, [r0, #56]	; 0x38
   13c28:	2300      	movs	r3, #0
   13c2a:	f8c0 30c0 	str.w	r3, [r0, #192]	; 0xc0
   13c2e:	4618      	mov	r0, r3
   13c30:	bd30      	pop	{r4, r5, pc}
   13c32:	f06f 00ac 	mvn.w	r0, #172	; 0xac
   13c36:	e7fb      	b.n	13c30 <InitSha512+0x68>
   13c38:	f3bcc908 	.word	0xf3bcc908
   13c3c:	6a09e667 	.word	0x6a09e667
   13c40:	84caa73b 	.word	0x84caa73b
   13c44:	bb67ae85 	.word	0xbb67ae85
   13c48:	fe94f82b 	.word	0xfe94f82b
   13c4c:	3c6ef372 	.word	0x3c6ef372
   13c50:	5f1d36f1 	.word	0x5f1d36f1
   13c54:	a54ff53a 	.word	0xa54ff53a
   13c58:	ade682d1 	.word	0xade682d1
   13c5c:	510e527f 	.word	0x510e527f
   13c60:	2b3e6c1f 	.word	0x2b3e6c1f
   13c64:	9b05688c 	.word	0x9b05688c
   13c68:	fb41bd6b 	.word	0xfb41bd6b
   13c6c:	1f83d9ab 	.word	0x1f83d9ab
   13c70:	137e2179 	.word	0x137e2179
   13c74:	5be0cd19 	.word	0x5be0cd19

00013c78 <InitSha512_224>:
   13c78:	b530      	push	{r4, r5, lr}
   13c7a:	b390      	cbz	r0, 13ce2 <InitSha512_224+0x6a>
   13c7c:	2400      	movs	r4, #0
   13c7e:	2500      	movs	r5, #0
   13c80:	a319      	add	r3, pc, #100	; (adr r3, 13ce8 <InitSha512_224+0x70>)
   13c82:	e9d3 2300 	ldrd	r2, r3, [r3]
   13c86:	e9c0 2300 	strd	r2, r3, [r0]
   13c8a:	a319      	add	r3, pc, #100	; (adr r3, 13cf0 <InitSha512_224+0x78>)
   13c8c:	e9d3 2300 	ldrd	r2, r3, [r3]
   13c90:	e9c0 4532 	strd	r4, r5, [r0, #200]	; 0xc8
   13c94:	e9c0 4534 	strd	r4, r5, [r0, #208]	; 0xd0
   13c98:	e9c0 2302 	strd	r2, r3, [r0, #8]
   13c9c:	a316      	add	r3, pc, #88	; (adr r3, 13cf8 <InitSha512_224+0x80>)
   13c9e:	e9d3 2300 	ldrd	r2, r3, [r3]
   13ca2:	e9c0 2304 	strd	r2, r3, [r0, #16]
   13ca6:	a316      	add	r3, pc, #88	; (adr r3, 13d00 <InitSha512_224+0x88>)
   13ca8:	e9d3 2300 	ldrd	r2, r3, [r3]
   13cac:	e9c0 2306 	strd	r2, r3, [r0, #24]
   13cb0:	a315      	add	r3, pc, #84	; (adr r3, 13d08 <InitSha512_224+0x90>)
   13cb2:	e9d3 2300 	ldrd	r2, r3, [r3]
   13cb6:	e9c0 2308 	strd	r2, r3, [r0, #32]
   13cba:	a315      	add	r3, pc, #84	; (adr r3, 13d10 <InitSha512_224+0x98>)
   13cbc:	e9d3 2300 	ldrd	r2, r3, [r3]
   13cc0:	e9c0 230a 	strd	r2, r3, [r0, #40]	; 0x28
   13cc4:	a314      	add	r3, pc, #80	; (adr r3, 13d18 <InitSha512_224+0xa0>)
   13cc6:	e9d3 2300 	ldrd	r2, r3, [r3]
   13cca:	e9c0 230c 	strd	r2, r3, [r0, #48]	; 0x30
   13cce:	a314      	add	r3, pc, #80	; (adr r3, 13d20 <InitSha512_224+0xa8>)
   13cd0:	e9d3 2300 	ldrd	r2, r3, [r3]
   13cd4:	e9c0 230e 	strd	r2, r3, [r0, #56]	; 0x38
   13cd8:	2300      	movs	r3, #0
   13cda:	f8c0 30c0 	str.w	r3, [r0, #192]	; 0xc0
   13cde:	4618      	mov	r0, r3
   13ce0:	bd30      	pop	{r4, r5, pc}
   13ce2:	f06f 00ac 	mvn.w	r0, #172	; 0xac
   13ce6:	e7fb      	b.n	13ce0 <InitSha512_224+0x68>
   13ce8:	19544da2 	.word	0x19544da2
   13cec:	8c3d37c8 	.word	0x8c3d37c8
   13cf0:	89dcd4d6 	.word	0x89dcd4d6
   13cf4:	73e19966 	.word	0x73e19966
   13cf8:	32ff9c82 	.word	0x32ff9c82
   13cfc:	1dfab7ae 	.word	0x1dfab7ae
   13d00:	582f9fcf 	.word	0x582f9fcf
   13d04:	679dd514 	.word	0x679dd514
   13d08:	7bd44da8 	.word	0x7bd44da8
   13d0c:	0f6d2b69 	.word	0x0f6d2b69
   13d10:	04c48942 	.word	0x04c48942
   13d14:	77e36f73 	.word	0x77e36f73
   13d18:	6a1d36c8 	.word	0x6a1d36c8
   13d1c:	3f9d85a8 	.word	0x3f9d85a8
   13d20:	91d692a1 	.word	0x91d692a1
   13d24:	1112e6ad 	.word	0x1112e6ad

00013d28 <InitSha512_256>:
   13d28:	b530      	push	{r4, r5, lr}
   13d2a:	b390      	cbz	r0, 13d92 <InitSha512_256+0x6a>
   13d2c:	2400      	movs	r4, #0
   13d2e:	2500      	movs	r5, #0
   13d30:	a319      	add	r3, pc, #100	; (adr r3, 13d98 <InitSha512_256+0x70>)
   13d32:	e9d3 2300 	ldrd	r2, r3, [r3]
   13d36:	e9c0 2300 	strd	r2, r3, [r0]
   13d3a:	a319      	add	r3, pc, #100	; (adr r3, 13da0 <InitSha512_256+0x78>)
   13d3c:	e9d3 2300 	ldrd	r2, r3, [r3]
   13d40:	e9c0 4532 	strd	r4, r5, [r0, #200]	; 0xc8
   13d44:	e9c0 4534 	strd	r4, r5, [r0, #208]	; 0xd0
   13d48:	e9c0 2302 	strd	r2, r3, [r0, #8]
   13d4c:	a316      	add	r3, pc, #88	; (adr r3, 13da8 <InitSha512_256+0x80>)
   13d4e:	e9d3 2300 	ldrd	r2, r3, [r3]
   13d52:	e9c0 2304 	strd	r2, r3, [r0, #16]
   13d56:	a316      	add	r3, pc, #88	; (adr r3, 13db0 <InitSha512_256+0x88>)
   13d58:	e9d3 2300 	ldrd	r2, r3, [r3]
   13d5c:	e9c0 2306 	strd	r2, r3, [r0, #24]
   13d60:	a315      	add	r3, pc, #84	; (adr r3, 13db8 <InitSha512_256+0x90>)
   13d62:	e9d3 2300 	ldrd	r2, r3, [r3]
   13d66:	e9c0 2308 	strd	r2, r3, [r0, #32]
   13d6a:	a315      	add	r3, pc, #84	; (adr r3, 13dc0 <InitSha512_256+0x98>)
   13d6c:	e9d3 2300 	ldrd	r2, r3, [r3]
   13d70:	e9c0 230a 	strd	r2, r3, [r0, #40]	; 0x28
   13d74:	a314      	add	r3, pc, #80	; (adr r3, 13dc8 <InitSha512_256+0xa0>)
   13d76:	e9d3 2300 	ldrd	r2, r3, [r3]
   13d7a:	e9c0 230c 	strd	r2, r3, [r0, #48]	; 0x30
   13d7e:	a314      	add	r3, pc, #80	; (adr r3, 13dd0 <InitSha512_256+0xa8>)
   13d80:	e9d3 2300 	ldrd	r2, r3, [r3]
   13d84:	e9c0 230e 	strd	r2, r3, [r0, #56]	; 0x38
   13d88:	2300      	movs	r3, #0
   13d8a:	f8c0 30c0 	str.w	r3, [r0, #192]	; 0xc0
   13d8e:	4618      	mov	r0, r3
   13d90:	bd30      	pop	{r4, r5, pc}
   13d92:	f06f 00ac 	mvn.w	r0, #172	; 0xac
   13d96:	e7fb      	b.n	13d90 <InitSha512_256+0x68>
   13d98:	fc2bf72c 	.word	0xfc2bf72c
   13d9c:	22312194 	.word	0x22312194
   13da0:	c84c64c2 	.word	0xc84c64c2
   13da4:	9f555fa3 	.word	0x9f555fa3
   13da8:	6f53b151 	.word	0x6f53b151
   13dac:	2393b86b 	.word	0x2393b86b
   13db0:	5940eabd 	.word	0x5940eabd
   13db4:	96387719 	.word	0x96387719
   13db8:	a88effe3 	.word	0xa88effe3
   13dbc:	96283ee2 	.word	0x96283ee2
   13dc0:	53863992 	.word	0x53863992
   13dc4:	be5e1e25 	.word	0xbe5e1e25
   13dc8:	2c85b8aa 	.word	0x2c85b8aa
   13dcc:	2b0199fc 	.word	0x2b0199fc
   13dd0:	81c52ca2 	.word	0x81c52ca2
   13dd4:	0eb72ddc 	.word	0x0eb72ddc

00013dd8 <ByteReverseWords64>:
   13dd8:	f022 0207 	bic.w	r2, r2, #7
   13ddc:	3808      	subs	r0, #8
   13dde:	b510      	push	{r4, lr}
   13de0:	440a      	add	r2, r1
   13de2:	e9d1 3400 	ldrd	r3, r4, [r1]
   13de6:	3108      	adds	r1, #8
   13de8:	428a      	cmp	r2, r1
   13dea:	ba1b      	rev	r3, r3
   13dec:	ba24      	rev	r4, r4
   13dee:	f840 4f08 	str.w	r4, [r0, #8]!
   13df2:	6043      	str	r3, [r0, #4]
   13df4:	d1f5      	bne.n	13de2 <ByteReverseWords64+0xa>
   13df6:	bd10      	pop	{r4, pc}

00013df8 <_Transform_Sha512>:
   13df8:	e92d 4ff0 	stmdb	sp!, {r4, r5, r6, r7, r8, r9, sl, fp, lr}
   13dfc:	4605      	mov	r5, r0
   13dfe:	b0c3      	sub	sp, #268	; 0x10c
   13e00:	2080      	movs	r0, #128	; 0x80
   13e02:	f7fc eb20 	blx	10444 <malloc@plt>
   13e06:	4604      	mov	r4, r0
   13e08:	2800      	cmp	r0, #0
   13e0a:	f001 87e4 	beq.w	15dd6 <_Transform_Sha512+0x1fde>
   13e0e:	2240      	movs	r2, #64	; 0x40
   13e10:	4629      	mov	r1, r5
   13e12:	a832      	add	r0, sp, #200	; 0xc8
   13e14:	f7fc eb0a 	blx	1042c <memcpy@plt>
   13e18:	9a32      	ldr	r2, [sp, #200]	; 0xc8
   13e1a:	2100      	movs	r1, #0
   13e1c:	e9dd b339 	ldrd	fp, r3, [sp, #228]	; 0xe4
   13e20:	f8dd a0ec 	ldr.w	sl, [sp, #236]	; 0xec
   13e24:	932e      	str	r3, [sp, #184]	; 0xb8
   13e26:	9b3e      	ldr	r3, [sp, #248]	; 0xf8
   13e28:	932a      	str	r3, [sp, #168]	; 0xa8
   13e2a:	9b3f      	ldr	r3, [sp, #252]	; 0xfc
   13e2c:	932b      	str	r3, [sp, #172]	; 0xac
   13e2e:	9b3c      	ldr	r3, [sp, #240]	; 0xf0
   13e30:	932c      	str	r3, [sp, #176]	; 0xb0
   13e32:	9b3d      	ldr	r3, [sp, #244]	; 0xf4
   13e34:	932d      	str	r3, [sp, #180]	; 0xb4
   13e36:	68a3      	ldr	r3, [r4, #8]
   13e38:	9319      	str	r3, [sp, #100]	; 0x64
   13e3a:	68e3      	ldr	r3, [r4, #12]
   13e3c:	9309      	str	r3, [sp, #36]	; 0x24
   13e3e:	6823      	ldr	r3, [r4, #0]
   13e40:	9318      	str	r3, [sp, #96]	; 0x60
   13e42:	6863      	ldr	r3, [r4, #4]
   13e44:	9308      	str	r3, [sp, #32]
   13e46:	9b40      	ldr	r3, [sp, #256]	; 0x100
   13e48:	9328      	str	r3, [sp, #160]	; 0xa0
   13e4a:	9b41      	ldr	r3, [sp, #260]	; 0x104
   13e4c:	9329      	str	r3, [sp, #164]	; 0xa4
   13e4e:	9b38      	ldr	r3, [sp, #224]	; 0xe0
   13e50:	9322      	str	r3, [sp, #136]	; 0x88
   13e52:	9b33      	ldr	r3, [sp, #204]	; 0xcc
   13e54:	9327      	str	r3, [sp, #156]	; 0x9c
   13e56:	9b34      	ldr	r3, [sp, #208]	; 0xd0
   13e58:	9325      	str	r3, [sp, #148]	; 0x94
   13e5a:	9b35      	ldr	r3, [sp, #212]	; 0xd4
   13e5c:	9326      	str	r3, [sp, #152]	; 0x98
   13e5e:	9b36      	ldr	r3, [sp, #216]	; 0xd8
   13e60:	9323      	str	r3, [sp, #140]	; 0x8c
   13e62:	9b37      	ldr	r3, [sp, #220]	; 0xdc
   13e64:	9324      	str	r3, [sp, #144]	; 0x90
   13e66:	6923      	ldr	r3, [r4, #16]
   13e68:	9317      	str	r3, [sp, #92]	; 0x5c
   13e6a:	6963      	ldr	r3, [r4, #20]
   13e6c:	9307      	str	r3, [sp, #28]
   13e6e:	69a3      	ldr	r3, [r4, #24]
   13e70:	9312      	str	r3, [sp, #72]	; 0x48
   13e72:	69e3      	ldr	r3, [r4, #28]
   13e74:	9302      	str	r3, [sp, #8]
   13e76:	6a23      	ldr	r3, [r4, #32]
   13e78:	931a      	str	r3, [sp, #104]	; 0x68
   13e7a:	6a63      	ldr	r3, [r4, #36]	; 0x24
   13e7c:	930a      	str	r3, [sp, #40]	; 0x28
   13e7e:	6aa3      	ldr	r3, [r4, #40]	; 0x28
   13e80:	9314      	str	r3, [sp, #80]	; 0x50
   13e82:	6ae3      	ldr	r3, [r4, #44]	; 0x2c
   13e84:	9304      	str	r3, [sp, #16]
   13e86:	6f23      	ldr	r3, [r4, #112]	; 0x70
   13e88:	9320      	str	r3, [sp, #128]	; 0x80
   13e8a:	6f63      	ldr	r3, [r4, #116]	; 0x74
   13e8c:	9310      	str	r3, [sp, #64]	; 0x40
   13e8e:	6b23      	ldr	r3, [r4, #48]	; 0x30
   13e90:	9315      	str	r3, [sp, #84]	; 0x54
   13e92:	6b63      	ldr	r3, [r4, #52]	; 0x34
   13e94:	9305      	str	r3, [sp, #20]
   13e96:	6fa3      	ldr	r3, [r4, #120]	; 0x78
   13e98:	9321      	str	r3, [sp, #132]	; 0x84
   13e9a:	6fe3      	ldr	r3, [r4, #124]	; 0x7c
   13e9c:	9311      	str	r3, [sp, #68]	; 0x44
   13e9e:	6ba3      	ldr	r3, [r4, #56]	; 0x38
   13ea0:	9101      	str	r1, [sp, #4]
   13ea2:	9316      	str	r3, [sp, #88]	; 0x58
   13ea4:	6be3      	ldr	r3, [r4, #60]	; 0x3c
   13ea6:	9306      	str	r3, [sp, #24]
   13ea8:	6c23      	ldr	r3, [r4, #64]	; 0x40
   13eaa:	931b      	str	r3, [sp, #108]	; 0x6c
   13eac:	6c63      	ldr	r3, [r4, #68]	; 0x44
   13eae:	930b      	str	r3, [sp, #44]	; 0x2c
   13eb0:	6ca3      	ldr	r3, [r4, #72]	; 0x48
   13eb2:	931c      	str	r3, [sp, #112]	; 0x70
   13eb4:	6ce3      	ldr	r3, [r4, #76]	; 0x4c
   13eb6:	930c      	str	r3, [sp, #48]	; 0x30
   13eb8:	6d23      	ldr	r3, [r4, #80]	; 0x50
   13eba:	931d      	str	r3, [sp, #116]	; 0x74
   13ebc:	6d63      	ldr	r3, [r4, #84]	; 0x54
   13ebe:	930d      	str	r3, [sp, #52]	; 0x34
   13ec0:	6da3      	ldr	r3, [r4, #88]	; 0x58
   13ec2:	931e      	str	r3, [sp, #120]	; 0x78
   13ec4:	6de3      	ldr	r3, [r4, #92]	; 0x5c
   13ec6:	930e      	str	r3, [sp, #56]	; 0x38
   13ec8:	6e23      	ldr	r3, [r4, #96]	; 0x60
   13eca:	9313      	str	r3, [sp, #76]	; 0x4c
   13ecc:	6e63      	ldr	r3, [r4, #100]	; 0x64
   13ece:	9303      	str	r3, [sp, #12]
   13ed0:	6ea3      	ldr	r3, [r4, #104]	; 0x68
   13ed2:	931f      	str	r3, [sp, #124]	; 0x7c
   13ed4:	6ee3      	ldr	r3, [r4, #108]	; 0x6c
   13ed6:	930f      	str	r3, [sp, #60]	; 0x3c
   13ed8:	4bc1      	ldr	r3, [pc, #772]	; (141e0 <_Transform_Sha512+0x3e8>)
   13eda:	ea4f 469a 	mov.w	r6, sl, lsr #18
   13ede:	982e      	ldr	r0, [sp, #184]	; 0xb8
   13ee0:	ea4f 379a 	mov.w	r7, sl, lsr #14
   13ee4:	992e      	ldr	r1, [sp, #184]	; 0xb8
   13ee6:	ea47 4780 	orr.w	r7, r7, r0, lsl #18
   13eea:	ea4f 4c90 	mov.w	ip, r0, lsr #18
   13eee:	ea46 3080 	orr.w	r0, r6, r0, lsl #14
   13ef2:	0b89      	lsrs	r1, r1, #14
   13ef4:	ea87 0600 	eor.w	r6, r7, r0
   13ef8:	982e      	ldr	r0, [sp, #184]	; 0xb8
   13efa:	ea4f 57ca 	mov.w	r7, sl, lsl #23
   13efe:	ea4c 3c8a 	orr.w	ip, ip, sl, lsl #14
   13f02:	ea41 418a 	orr.w	r1, r1, sl, lsl #18
   13f06:	ea81 010c 	eor.w	r1, r1, ip
   13f0a:	ea47 2750 	orr.w	r7, r7, r0, lsr #9
   13f0e:	05c0      	lsls	r0, r0, #23
   13f10:	4077      	eors	r7, r6
   13f12:	9e2a      	ldr	r6, [sp, #168]	; 0xa8
   13f14:	ea40 205a 	orr.w	r0, r0, sl, lsr #9
   13f18:	4041      	eors	r1, r0
   13f1a:	982c      	ldr	r0, [sp, #176]	; 0xb0
   13f1c:	ea80 0c06 	eor.w	ip, r0, r6
   13f20:	9e2b      	ldr	r6, [sp, #172]	; 0xac
   13f22:	982d      	ldr	r0, [sp, #180]	; 0xb4
   13f24:	4046      	eors	r6, r0
   13f26:	982e      	ldr	r0, [sp, #184]	; 0xb8
   13f28:	ea06 060a 	and.w	r6, r6, sl
   13f2c:	ea0c 0c00 	and.w	ip, ip, r0
   13f30:	982a      	ldr	r0, [sp, #168]	; 0xa8
   13f32:	ea8c 0c00 	eor.w	ip, ip, r0
   13f36:	982b      	ldr	r0, [sp, #172]	; 0xac
   13f38:	eb11 010c 	adds.w	r1, r1, ip
   13f3c:	ea86 0000 	eor.w	r0, r6, r0
   13f40:	eb47 0600 	adc.w	r6, r7, r0
   13f44:	6818      	ldr	r0, [r3, #0]
   13f46:	e9cd 102f 	strd	r1, r0, [sp, #188]	; 0xbc
   13f4a:	6858      	ldr	r0, [r3, #4]
   13f4c:	9031      	str	r0, [sp, #196]	; 0xc4
   13f4e:	9801      	ldr	r0, [sp, #4]
   13f50:	2800      	cmp	r0, #0
   13f52:	f001 86df 	beq.w	15d14 <_Transform_Sha512+0x1f1c>
   13f56:	9910      	ldr	r1, [sp, #64]	; 0x40
   13f58:	9820      	ldr	r0, [sp, #128]	; 0x80
   13f5a:	ea4f 4ed0 	mov.w	lr, r0, lsr #19
   13f5e:	9810      	ldr	r0, [sp, #64]	; 0x40
   13f60:	ea4e 3e40 	orr.w	lr, lr, r0, lsl #13
   13f64:	0cc7      	lsrs	r7, r0, #19
   13f66:	9820      	ldr	r0, [sp, #128]	; 0x80
   13f68:	ea47 3740 	orr.w	r7, r7, r0, lsl #13
   13f6c:	9810      	ldr	r0, [sp, #64]	; 0x40
   13f6e:	ea4f 0cc0 	mov.w	ip, r0, lsl #3
   13f72:	9820      	ldr	r0, [sp, #128]	; 0x80
   13f74:	ea4c 7c50 	orr.w	ip, ip, r0, lsr #29
   13f78:	00c0      	lsls	r0, r0, #3
   13f7a:	ea87 0c0c 	eor.w	ip, r7, ip
   13f7e:	ea40 7051 	orr.w	r0, r0, r1, lsr #29
   13f82:	9920      	ldr	r1, [sp, #128]	; 0x80
   13f84:	ea8e 0000 	eor.w	r0, lr, r0
   13f88:	098f      	lsrs	r7, r1, #6
   13f8a:	9910      	ldr	r1, [sp, #64]	; 0x40
   13f8c:	ea47 6781 	orr.w	r7, r7, r1, lsl #26
   13f90:	ea8c 1c91 	eor.w	ip, ip, r1, lsr #6
   13f94:	9919      	ldr	r1, [sp, #100]	; 0x64
   13f96:	4078      	eors	r0, r7
   13f98:	ea4f 0951 	mov.w	r9, r1, lsr #1
   13f9c:	9909      	ldr	r1, [sp, #36]	; 0x24
   13f9e:	ea49 79c1 	orr.w	r9, r9, r1, lsl #31
   13fa2:	084f      	lsrs	r7, r1, #1
   13fa4:	9919      	ldr	r1, [sp, #100]	; 0x64
   13fa6:	ea47 77c1 	orr.w	r7, r7, r1, lsl #31
   13faa:	ea4f 2e11 	mov.w	lr, r1, lsr #8
   13fae:	9909      	ldr	r1, [sp, #36]	; 0x24
   13fb0:	ea4e 6e01 	orr.w	lr, lr, r1, lsl #24
   13fb4:	ea4f 2811 	mov.w	r8, r1, lsr #8
   13fb8:	9919      	ldr	r1, [sp, #100]	; 0x64
   13fba:	ea89 0e0e 	eor.w	lr, r9, lr
   13fbe:	ea48 6801 	orr.w	r8, r8, r1, lsl #24
   13fc2:	ea4f 19d1 	mov.w	r9, r1, lsr #7
   13fc6:	9909      	ldr	r1, [sp, #36]	; 0x24
   13fc8:	ea87 0708 	eor.w	r7, r7, r8
   13fcc:	ea49 6941 	orr.w	r9, r9, r1, lsl #25
   13fd0:	ea87 17d1 	eor.w	r7, r7, r1, lsr #7
   13fd4:	991c      	ldr	r1, [sp, #112]	; 0x70
   13fd6:	ea8e 0e09 	eor.w	lr, lr, r9
   13fda:	eb10 0e0e 	adds.w	lr, r0, lr
   13fde:	eb4c 0707 	adc.w	r7, ip, r7
   13fe2:	eb1e 0e01 	adds.w	lr, lr, r1
   13fe6:	990c      	ldr	r1, [sp, #48]	; 0x30
   13fe8:	eb41 0707 	adc.w	r7, r1, r7
   13fec:	9918      	ldr	r1, [sp, #96]	; 0x60
   13fee:	eb1e 0e01 	adds.w	lr, lr, r1
   13ff2:	9908      	ldr	r1, [sp, #32]
   13ff4:	f8cd e060 	str.w	lr, [sp, #96]	; 0x60
   13ff8:	eb41 0107 	adc.w	r1, r1, r7
   13ffc:	9108      	str	r1, [sp, #32]
   13ffe:	ea4f 7e12 	mov.w	lr, r2, lsr #28
   14002:	982f      	ldr	r0, [sp, #188]	; 0xbc
   14004:	0797      	lsls	r7, r2, #30
   14006:	9930      	ldr	r1, [sp, #192]	; 0xc0
   14008:	1841      	adds	r1, r0, r1
   1400a:	9831      	ldr	r0, [sp, #196]	; 0xc4
   1400c:	eb46 0600 	adc.w	r6, r6, r0
   14010:	9818      	ldr	r0, [sp, #96]	; 0x60
   14012:	1809      	adds	r1, r1, r0
   14014:	9808      	ldr	r0, [sp, #32]
   14016:	eb40 0606 	adc.w	r6, r0, r6
   1401a:	9828      	ldr	r0, [sp, #160]	; 0xa0
   1401c:	1809      	adds	r1, r1, r0
   1401e:	9829      	ldr	r0, [sp, #164]	; 0xa4
   14020:	eb40 0606 	adc.w	r6, r0, r6
   14024:	9822      	ldr	r0, [sp, #136]	; 0x88
   14026:	1808      	adds	r0, r1, r0
   14028:	e9cd 1028 	strd	r1, r0, [sp, #160]	; 0xa0
   1402c:	eb46 000b 	adc.w	r0, r6, fp
   14030:	9927      	ldr	r1, [sp, #156]	; 0x9c
   14032:	902f      	str	r0, [sp, #188]	; 0xbc
   14034:	9827      	ldr	r0, [sp, #156]	; 0x9c
   14036:	ea47 0791 	orr.w	r7, r7, r1, lsr #2
   1403a:	ea4e 1e00 	orr.w	lr, lr, r0, lsl #4
   1403e:	ea4f 7c10 	mov.w	ip, r0, lsr #28
   14042:	0780      	lsls	r0, r0, #30
   14044:	ea8e 0e07 	eor.w	lr, lr, r7
   14048:	ea4c 1c02 	orr.w	ip, ip, r2, lsl #4
   1404c:	ea40 0092 	orr.w	r0, r0, r2, lsr #2
   14050:	0657      	lsls	r7, r2, #25
   14052:	ea8c 0c00 	eor.w	ip, ip, r0
   14056:	0648      	lsls	r0, r1, #25
   14058:	ea47 17d1 	orr.w	r7, r7, r1, lsr #7
   1405c:	ea40 10d2 	orr.w	r0, r0, r2, lsr #7
   14060:	ea8e 0e07 	eor.w	lr, lr, r7
   14064:	ea8c 0c00 	eor.w	ip, ip, r0
   14068:	e9dd 1025 	ldrd	r1, r0, [sp, #148]	; 0x94
   1406c:	ea42 0801 	orr.w	r8, r2, r1
   14070:	9927      	ldr	r1, [sp, #156]	; 0x9c
   14072:	4308      	orrs	r0, r1
   14074:	9923      	ldr	r1, [sp, #140]	; 0x8c
   14076:	ea08 0801 	and.w	r8, r8, r1
   1407a:	9924      	ldr	r1, [sp, #144]	; 0x90
   1407c:	4008      	ands	r0, r1
   1407e:	9925      	ldr	r1, [sp, #148]	; 0x94
   14080:	ea02 0701 	and.w	r7, r2, r1
   14084:	9927      	ldr	r1, [sp, #156]	; 0x9c
   14086:	ea48 0707 	orr.w	r7, r8, r7
   1408a:	eb1e 0707 	adds.w	r7, lr, r7
   1408e:	4689      	mov	r9, r1
   14090:	9926      	ldr	r1, [sp, #152]	; 0x98
   14092:	ea09 0901 	and.w	r9, r9, r1
   14096:	9928      	ldr	r1, [sp, #160]	; 0xa0
   14098:	ea40 0909 	orr.w	r9, r0, r9
   1409c:	eb4c 0909 	adc.w	r9, ip, r9
   140a0:	1879      	adds	r1, r7, r1
   140a2:	9f29      	ldr	r7, [sp, #164]	; 0xa4
   140a4:	9122      	str	r1, [sp, #136]	; 0x88
   140a6:	eb46 0109 	adc.w	r1, r6, r9
   140aa:	9128      	str	r1, [sp, #160]	; 0xa0
   140ac:	9929      	ldr	r1, [sp, #164]	; 0xa4
   140ae:	ea4f 3c91 	mov.w	ip, r1, lsr #14
   140b2:	992f      	ldr	r1, [sp, #188]	; 0xbc
   140b4:	ea4c 4c81 	orr.w	ip, ip, r1, lsl #18
   140b8:	0b8e      	lsrs	r6, r1, #14
   140ba:	9929      	ldr	r1, [sp, #164]	; 0xa4
   140bc:	ea46 4681 	orr.w	r6, r6, r1, lsl #18
   140c0:	0c88      	lsrs	r0, r1, #18
   140c2:	992f      	ldr	r1, [sp, #188]	; 0xbc
   140c4:	ea40 3081 	orr.w	r0, r0, r1, lsl #14
   140c8:	0c89      	lsrs	r1, r1, #18
   140ca:	ea8c 0c00 	eor.w	ip, ip, r0
   140ce:	4638      	mov	r0, r7
   140d0:	ea41 3187 	orr.w	r1, r1, r7, lsl #14
   140d4:	9f2f      	ldr	r7, [sp, #188]	; 0xbc
   140d6:	404e      	eors	r6, r1
   140d8:	992f      	ldr	r1, [sp, #188]	; 0xbc
   140da:	05c9      	lsls	r1, r1, #23
   140dc:	ea41 2150 	orr.w	r1, r1, r0, lsr #9
   140e0:	05c0      	lsls	r0, r0, #23
   140e2:	4071      	eors	r1, r6
   140e4:	ea40 2057 	orr.w	r0, r0, r7, lsr #9
   140e8:	9130      	str	r1, [sp, #192]	; 0xc0
   140ea:	ea8c 0c00 	eor.w	ip, ip, r0
   140ee:	9e2a      	ldr	r6, [sp, #168]	; 0xa8
   140f0:	992c      	ldr	r1, [sp, #176]	; 0xb0
   140f2:	982e      	ldr	r0, [sp, #184]	; 0xb8
   140f4:	4041      	eors	r1, r0
   140f6:	982d      	ldr	r0, [sp, #180]	; 0xb4
   140f8:	ea80 070a 	eor.w	r7, r0, sl
   140fc:	9829      	ldr	r0, [sp, #164]	; 0xa4
   140fe:	4001      	ands	r1, r0
   14100:	982f      	ldr	r0, [sp, #188]	; 0xbc
   14102:	4007      	ands	r7, r0
   14104:	982c      	ldr	r0, [sp, #176]	; 0xb0
   14106:	4041      	eors	r1, r0
   14108:	982d      	ldr	r0, [sp, #180]	; 0xb4
   1410a:	4047      	eors	r7, r0
   1410c:	6898      	ldr	r0, [r3, #8]
   1410e:	1830      	adds	r0, r6, r0
   14110:	9e2b      	ldr	r6, [sp, #172]	; 0xac
   14112:	46b6      	mov	lr, r6
   14114:	68de      	ldr	r6, [r3, #12]
   14116:	eb4e 0806 	adc.w	r8, lr, r6
   1411a:	1809      	adds	r1, r1, r0
   1411c:	9801      	ldr	r0, [sp, #4]
   1411e:	eb47 0708 	adc.w	r7, r7, r8
   14122:	912a      	str	r1, [sp, #168]	; 0xa8
   14124:	2800      	cmp	r0, #0
   14126:	f001 85fa 	beq.w	15d1e <_Transform_Sha512+0x1f26>
   1412a:	9e11      	ldr	r6, [sp, #68]	; 0x44
   1412c:	9821      	ldr	r0, [sp, #132]	; 0x84
   1412e:	ea4f 49d0 	mov.w	r9, r0, lsr #19
   14132:	9811      	ldr	r0, [sp, #68]	; 0x44
   14134:	ea49 3940 	orr.w	r9, r9, r0, lsl #13
   14138:	ea4f 48d0 	mov.w	r8, r0, lsr #19
   1413c:	9821      	ldr	r0, [sp, #132]	; 0x84
   1413e:	ea48 3840 	orr.w	r8, r8, r0, lsl #13
   14142:	9811      	ldr	r0, [sp, #68]	; 0x44
   14144:	ea4f 0ec0 	mov.w	lr, r0, lsl #3
   14148:	9821      	ldr	r0, [sp, #132]	; 0x84
   1414a:	ea4e 7e50 	orr.w	lr, lr, r0, lsr #29
   1414e:	00c0      	lsls	r0, r0, #3
   14150:	ea88 0e0e 	eor.w	lr, r8, lr
   14154:	ea40 7056 	orr.w	r0, r0, r6, lsr #29
   14158:	9e21      	ldr	r6, [sp, #132]	; 0x84
   1415a:	ea89 0000 	eor.w	r0, r9, r0
   1415e:	ea4f 1896 	mov.w	r8, r6, lsr #6
   14162:	9e11      	ldr	r6, [sp, #68]	; 0x44
   14164:	ea48 6886 	orr.w	r8, r8, r6, lsl #26
   14168:	ea8e 1e96 	eor.w	lr, lr, r6, lsr #6
   1416c:	9e19      	ldr	r6, [sp, #100]	; 0x64
   1416e:	ea80 0008 	eor.w	r0, r0, r8
   14172:	46b0      	mov	r8, r6
   14174:	9e1d      	ldr	r6, [sp, #116]	; 0x74
   14176:	eb18 0b06 	adds.w	fp, r8, r6
   1417a:	9e09      	ldr	r6, [sp, #36]	; 0x24
   1417c:	46b0      	mov	r8, r6
   1417e:	9e0d      	ldr	r6, [sp, #52]	; 0x34
   14180:	eb48 0806 	adc.w	r8, r8, r6
   14184:	9e17      	ldr	r6, [sp, #92]	; 0x5c
   14186:	eb10 000b 	adds.w	r0, r0, fp
   1418a:	eb4e 0e08 	adc.w	lr, lr, r8
   1418e:	ea4f 0b56 	mov.w	fp, r6, lsr #1
   14192:	9e07      	ldr	r6, [sp, #28]
   14194:	ea4b 7bc6 	orr.w	fp, fp, r6, lsl #31
   14198:	ea4f 0856 	mov.w	r8, r6, lsr #1
   1419c:	9e17      	ldr	r6, [sp, #92]	; 0x5c
   1419e:	ea48 78c6 	orr.w	r8, r8, r6, lsl #31
   141a2:	ea4f 2916 	mov.w	r9, r6, lsr #8
   141a6:	9e07      	ldr	r6, [sp, #28]
   141a8:	ea49 6906 	orr.w	r9, r9, r6, lsl #24
   141ac:	0a36      	lsrs	r6, r6, #8
   141ae:	ea8b 0909 	eor.w	r9, fp, r9
   141b2:	4631      	mov	r1, r6
   141b4:	9e17      	ldr	r6, [sp, #92]	; 0x5c
   141b6:	ea41 6606 	orr.w	r6, r1, r6, lsl #24
   141ba:	ea88 0806 	eor.w	r8, r8, r6
   141be:	9e17      	ldr	r6, [sp, #92]	; 0x5c
   141c0:	ea4f 1bd6 	mov.w	fp, r6, lsr #7
   141c4:	9e07      	ldr	r6, [sp, #28]
   141c6:	ea4b 6b46 	orr.w	fp, fp, r6, lsl #25
   141ca:	ea88 18d6 	eor.w	r8, r8, r6, lsr #7
   141ce:	ea89 090b 	eor.w	r9, r9, fp
   141d2:	eb10 0009 	adds.w	r0, r0, r9
   141d6:	9019      	str	r0, [sp, #100]	; 0x64
   141d8:	eb4e 0008 	adc.w	r0, lr, r8
   141dc:	e002      	b.n	141e4 <_Transform_Sha512+0x3ec>
   141de:	bf00      	nop
   141e0:	0001ce48 	.word	0x0001ce48
   141e4:	992a      	ldr	r1, [sp, #168]	; 0xa8
   141e6:	9009      	str	r0, [sp, #36]	; 0x24
   141e8:	9830      	ldr	r0, [sp, #192]	; 0xc0
   141ea:	eb1c 0101 	adds.w	r1, ip, r1
   141ee:	eb40 0607 	adc.w	r6, r0, r7
   141f2:	9819      	ldr	r0, [sp, #100]	; 0x64
   141f4:	9f22      	ldr	r7, [sp, #136]	; 0x88
   141f6:	eb11 0b00 	adds.w	fp, r1, r0
   141fa:	9809      	ldr	r0, [sp, #36]	; 0x24
   141fc:	9928      	ldr	r1, [sp, #160]	; 0xa0
   141fe:	eb40 0606 	adc.w	r6, r0, r6
   14202:	9823      	ldr	r0, [sp, #140]	; 0x8c
   14204:	eb1b 0000 	adds.w	r0, fp, r0
   14208:	902a      	str	r0, [sp, #168]	; 0xa8
   1420a:	9824      	ldr	r0, [sp, #144]	; 0x90
   1420c:	eb46 0000 	adc.w	r0, r6, r0
   14210:	902b      	str	r0, [sp, #172]	; 0xac
   14212:	9822      	ldr	r0, [sp, #136]	; 0x88
   14214:	ea4f 7c10 	mov.w	ip, r0, lsr #28
   14218:	9828      	ldr	r0, [sp, #160]	; 0xa0
   1421a:	ea4c 1c00 	orr.w	ip, ip, r0, lsl #4
   1421e:	ea4f 7e10 	mov.w	lr, r0, lsr #28
   14222:	9822      	ldr	r0, [sp, #136]	; 0x88
   14224:	ea4e 1e00 	orr.w	lr, lr, r0, lsl #4
   14228:	9828      	ldr	r0, [sp, #160]	; 0xa0
   1422a:	0780      	lsls	r0, r0, #30
   1422c:	ea40 0097 	orr.w	r0, r0, r7, lsr #2
   14230:	07bf      	lsls	r7, r7, #30
   14232:	ea8e 0e00 	eor.w	lr, lr, r0
   14236:	0648      	lsls	r0, r1, #25
   14238:	ea47 0791 	orr.w	r7, r7, r1, lsr #2
   1423c:	9922      	ldr	r1, [sp, #136]	; 0x88
   1423e:	ea8c 0c07 	eor.w	ip, ip, r7
   14242:	ea40 10d1 	orr.w	r0, r0, r1, lsr #7
   14246:	064f      	lsls	r7, r1, #25
   14248:	ea8e 0e00 	eor.w	lr, lr, r0
   1424c:	e9dd 0127 	ldrd	r0, r1, [sp, #156]	; 0x9c
   14250:	ea47 17d1 	orr.w	r7, r7, r1, lsr #7
   14254:	9922      	ldr	r1, [sp, #136]	; 0x88
   14256:	ea8c 0c07 	eor.w	ip, ip, r7
   1425a:	ea41 0702 	orr.w	r7, r1, r2
   1425e:	9928      	ldr	r1, [sp, #160]	; 0xa0
   14260:	ea41 0800 	orr.w	r8, r1, r0
   14264:	9925      	ldr	r1, [sp, #148]	; 0x94
   14266:	400f      	ands	r7, r1
   14268:	9926      	ldr	r1, [sp, #152]	; 0x98
   1426a:	ea08 0801 	and.w	r8, r8, r1
   1426e:	9922      	ldr	r1, [sp, #136]	; 0x88
   14270:	ea01 0002 	and.w	r0, r1, r2
   14274:	9928      	ldr	r1, [sp, #160]	; 0xa0
   14276:	4307      	orrs	r7, r0
   14278:	eb1c 0707 	adds.w	r7, ip, r7
   1427c:	4689      	mov	r9, r1
   1427e:	9927      	ldr	r1, [sp, #156]	; 0x9c
   14280:	ea09 0901 	and.w	r9, r9, r1
   14284:	ea48 0909 	orr.w	r9, r8, r9
   14288:	eb4e 0909 	adc.w	r9, lr, r9
   1428c:	eb17 010b 	adds.w	r1, r7, fp
   14290:	9f2a      	ldr	r7, [sp, #168]	; 0xa8
   14292:	9123      	str	r1, [sp, #140]	; 0x8c
   14294:	eb46 0109 	adc.w	r1, r6, r9
   14298:	9124      	str	r1, [sp, #144]	; 0x90
   1429a:	992a      	ldr	r1, [sp, #168]	; 0xa8
   1429c:	ea4f 3c91 	mov.w	ip, r1, lsr #14
   142a0:	992b      	ldr	r1, [sp, #172]	; 0xac
   142a2:	ea4c 4c81 	orr.w	ip, ip, r1, lsl #18
   142a6:	0b8e      	lsrs	r6, r1, #14
   142a8:	992a      	ldr	r1, [sp, #168]	; 0xa8
   142aa:	ea46 4681 	orr.w	r6, r6, r1, lsl #18
   142ae:	0c88      	lsrs	r0, r1, #18
   142b0:	992b      	ldr	r1, [sp, #172]	; 0xac
   142b2:	ea40 3081 	orr.w	r0, r0, r1, lsl #14
   142b6:	0c89      	lsrs	r1, r1, #18
   142b8:	ea8c 0c00 	eor.w	ip, ip, r0
   142bc:	4638      	mov	r0, r7
   142be:	ea41 3187 	orr.w	r1, r1, r7, lsl #14
   142c2:	404e      	eors	r6, r1
   142c4:	992b      	ldr	r1, [sp, #172]	; 0xac
   142c6:	9f2b      	ldr	r7, [sp, #172]	; 0xac
   142c8:	05c9      	lsls	r1, r1, #23
   142ca:	ea41 2150 	orr.w	r1, r1, r0, lsr #9
   142ce:	05c0      	lsls	r0, r0, #23
   142d0:	4071      	eors	r1, r6
   142d2:	9e2c      	ldr	r6, [sp, #176]	; 0xb0
   142d4:	ea40 2057 	orr.w	r0, r0, r7, lsr #9
   142d8:	9130      	str	r1, [sp, #192]	; 0xc0
   142da:	ea8c 0c00 	eor.w	ip, ip, r0
   142de:	9929      	ldr	r1, [sp, #164]	; 0xa4
   142e0:	982e      	ldr	r0, [sp, #184]	; 0xb8
   142e2:	4041      	eors	r1, r0
   142e4:	982f      	ldr	r0, [sp, #188]	; 0xbc
   142e6:	ea80 070a 	eor.w	r7, r0, sl
   142ea:	982a      	ldr	r0, [sp, #168]	; 0xa8
   142ec:	4001      	ands	r1, r0
   142ee:	982b      	ldr	r0, [sp, #172]	; 0xac
   142f0:	4007      	ands	r7, r0
   142f2:	982e      	ldr	r0, [sp, #184]	; 0xb8
   142f4:	ea87 070a 	eor.w	r7, r7, sl
   142f8:	4041      	eors	r1, r0
   142fa:	6918      	ldr	r0, [r3, #16]
   142fc:	1830      	adds	r0, r6, r0
   142fe:	9e2d      	ldr	r6, [sp, #180]	; 0xb4
   14300:	46b6      	mov	lr, r6
   14302:	695e      	ldr	r6, [r3, #20]
   14304:	eb4e 0e06 	adc.w	lr, lr, r6
   14308:	1809      	adds	r1, r1, r0
   1430a:	9801      	ldr	r0, [sp, #4]
   1430c:	eb47 070e 	adc.w	r7, r7, lr
   14310:	2800      	cmp	r0, #0
   14312:	f001 8509 	beq.w	15d28 <_Transform_Sha512+0x1f30>
   14316:	9e02      	ldr	r6, [sp, #8]
   14318:	9812      	ldr	r0, [sp, #72]	; 0x48
   1431a:	ea4f 2e16 	mov.w	lr, r6, lsr #8
   1431e:	ea4f 0950 	mov.w	r9, r0, lsr #1
   14322:	9802      	ldr	r0, [sp, #8]
   14324:	ea49 79c0 	orr.w	r9, r9, r0, lsl #31
   14328:	ea4f 0850 	mov.w	r8, r0, lsr #1
   1432c:	9812      	ldr	r0, [sp, #72]	; 0x48
   1432e:	ea48 78c0 	orr.w	r8, r8, r0, lsl #31
   14332:	0a00      	lsrs	r0, r0, #8
   14334:	ea40 6006 	orr.w	r0, r0, r6, lsl #24
   14338:	9e12      	ldr	r6, [sp, #72]	; 0x48
   1433a:	ea89 0000 	eor.w	r0, r9, r0
   1433e:	ea4e 6e06 	orr.w	lr, lr, r6, lsl #24
   14342:	ea88 0e0e 	eor.w	lr, r8, lr
   14346:	ea4f 18d6 	mov.w	r8, r6, lsr #7
   1434a:	9e02      	ldr	r6, [sp, #8]
   1434c:	ea48 6846 	orr.w	r8, r8, r6, lsl #25
   14350:	ea8e 1ed6 	eor.w	lr, lr, r6, lsr #7
   14354:	9e17      	ldr	r6, [sp, #92]	; 0x5c
   14356:	ea80 0008 	eor.w	r0, r0, r8
   1435a:	46b0      	mov	r8, r6
   1435c:	9e1e      	ldr	r6, [sp, #120]	; 0x78
   1435e:	eb18 0b06 	adds.w	fp, r8, r6
   14362:	9e07      	ldr	r6, [sp, #28]
   14364:	46b0      	mov	r8, r6
   14366:	9e0e      	ldr	r6, [sp, #56]	; 0x38
   14368:	eb48 0806 	adc.w	r8, r8, r6
   1436c:	9e18      	ldr	r6, [sp, #96]	; 0x60
   1436e:	eb10 000b 	adds.w	r0, r0, fp
   14372:	eb4e 0e08 	adc.w	lr, lr, r8
   14376:	ea4f 4bd6 	mov.w	fp, r6, lsr #19
   1437a:	9e08      	ldr	r6, [sp, #32]
   1437c:	ea4b 3b46 	orr.w	fp, fp, r6, lsl #13
   14380:	ea4f 48d6 	mov.w	r8, r6, lsr #19
   14384:	9e18      	ldr	r6, [sp, #96]	; 0x60
   14386:	ea48 3846 	orr.w	r8, r8, r6, lsl #13
   1438a:	9e08      	ldr	r6, [sp, #32]
   1438c:	ea4f 09c6 	mov.w	r9, r6, lsl #3
   14390:	9e18      	ldr	r6, [sp, #96]	; 0x60
   14392:	ea49 7656 	orr.w	r6, r9, r6, lsr #29
   14396:	9607      	str	r6, [sp, #28]
   14398:	9e18      	ldr	r6, [sp, #96]	; 0x60
   1439a:	ea4f 09c6 	mov.w	r9, r6, lsl #3
   1439e:	9e08      	ldr	r6, [sp, #32]
   143a0:	ea49 7956 	orr.w	r9, r9, r6, lsr #29
   143a4:	9e07      	ldr	r6, [sp, #28]
   143a6:	ea8b 0909 	eor.w	r9, fp, r9
   143aa:	ea88 0806 	eor.w	r8, r8, r6
   143ae:	9e18      	ldr	r6, [sp, #96]	; 0x60
   143b0:	ea4f 1b96 	mov.w	fp, r6, lsr #6
   143b4:	9e08      	ldr	r6, [sp, #32]
   143b6:	ea4b 6b86 	orr.w	fp, fp, r6, lsl #26
   143ba:	ea88 1896 	eor.w	r8, r8, r6, lsr #6
   143be:	ea89 090b 	eor.w	r9, r9, fp
   143c2:	eb10 0009 	adds.w	r0, r0, r9
   143c6:	9017      	str	r0, [sp, #92]	; 0x5c
   143c8:	eb4e 0008 	adc.w	r0, lr, r8
   143cc:	9007      	str	r0, [sp, #28]
   143ce:	eb1c 0101 	adds.w	r1, ip, r1
   143d2:	9830      	ldr	r0, [sp, #192]	; 0xc0
   143d4:	eb40 0607 	adc.w	r6, r0, r7
   143d8:	9817      	ldr	r0, [sp, #92]	; 0x5c
   143da:	9f23      	ldr	r7, [sp, #140]	; 0x8c
   143dc:	eb11 0b00 	adds.w	fp, r1, r0
   143e0:	9807      	ldr	r0, [sp, #28]
   143e2:	9924      	ldr	r1, [sp, #144]	; 0x90
   143e4:	eb40 0606 	adc.w	r6, r0, r6
   143e8:	9825      	ldr	r0, [sp, #148]	; 0x94
   143ea:	eb1b 0000 	adds.w	r0, fp, r0
   143ee:	902c      	str	r0, [sp, #176]	; 0xb0
   143f0:	9826      	ldr	r0, [sp, #152]	; 0x98
   143f2:	eb46 0000 	adc.w	r0, r6, r0
   143f6:	902d      	str	r0, [sp, #180]	; 0xb4
   143f8:	9823      	ldr	r0, [sp, #140]	; 0x8c
   143fa:	ea4f 7c10 	mov.w	ip, r0, lsr #28
   143fe:	9824      	ldr	r0, [sp, #144]	; 0x90
   14400:	ea4c 1c00 	orr.w	ip, ip, r0, lsl #4
   14404:	ea4f 7e10 	mov.w	lr, r0, lsr #28
   14408:	9823      	ldr	r0, [sp, #140]	; 0x8c
   1440a:	ea4e 1e00 	orr.w	lr, lr, r0, lsl #4
   1440e:	9824      	ldr	r0, [sp, #144]	; 0x90
   14410:	0780      	lsls	r0, r0, #30
   14412:	ea40 0097 	orr.w	r0, r0, r7, lsr #2
   14416:	07bf      	lsls	r7, r7, #30
   14418:	ea8e 0e00 	eor.w	lr, lr, r0
   1441c:	0648      	lsls	r0, r1, #25
   1441e:	ea47 0791 	orr.w	r7, r7, r1, lsr #2
   14422:	9923      	ldr	r1, [sp, #140]	; 0x8c
   14424:	ea8c 0c07 	eor.w	ip, ip, r7
   14428:	ea40 10d1 	orr.w	r0, r0, r1, lsr #7
   1442c:	064f      	lsls	r7, r1, #25
   1442e:	ea8e 0e00 	eor.w	lr, lr, r0
   14432:	e9dd 0123 	ldrd	r0, r1, [sp, #140]	; 0x8c
   14436:	ea47 17d1 	orr.w	r7, r7, r1, lsr #7
   1443a:	9922      	ldr	r1, [sp, #136]	; 0x88
   1443c:	ea8c 0c07 	eor.w	ip, ip, r7
   14440:	ea41 0700 	orr.w	r7, r1, r0
   14444:	9824      	ldr	r0, [sp, #144]	; 0x90
   14446:	4017      	ands	r7, r2
   14448:	9928      	ldr	r1, [sp, #160]	; 0xa0
   1444a:	ea41 0800 	orr.w	r8, r1, r0
   1444e:	9823      	ldr	r0, [sp, #140]	; 0x8c
   14450:	9927      	ldr	r1, [sp, #156]	; 0x9c
   14452:	ea08 0801 	and.w	r8, r8, r1
   14456:	9922      	ldr	r1, [sp, #136]	; 0x88
   14458:	4008      	ands	r0, r1
   1445a:	9928      	ldr	r1, [sp, #160]	; 0xa0
   1445c:	4338      	orrs	r0, r7
   1445e:	eb1c 0000 	adds.w	r0, ip, r0
   14462:	9f2c      	ldr	r7, [sp, #176]	; 0xb0
   14464:	4689      	mov	r9, r1
   14466:	9924      	ldr	r1, [sp, #144]	; 0x90
   14468:	ea09 0901 	and.w	r9, r9, r1
   1446c:	ea48 0909 	orr.w	r9, r8, r9
   14470:	eb4e 0909 	adc.w	r9, lr, r9
   14474:	eb10 010b 	adds.w	r1, r0, fp
   14478:	9125      	str	r1, [sp, #148]	; 0x94
   1447a:	eb46 0109 	adc.w	r1, r6, r9
   1447e:	9126      	str	r1, [sp, #152]	; 0x98
   14480:	992c      	ldr	r1, [sp, #176]	; 0xb0
   14482:	ea4f 3c91 	mov.w	ip, r1, lsr #14
   14486:	992d      	ldr	r1, [sp, #180]	; 0xb4
   14488:	ea4c 4c81 	orr.w	ip, ip, r1, lsl #18
   1448c:	0b8e      	lsrs	r6, r1, #14
   1448e:	992c      	ldr	r1, [sp, #176]	; 0xb0
   14490:	ea46 4681 	orr.w	r6, r6, r1, lsl #18
   14494:	0c88      	lsrs	r0, r1, #18
   14496:	992d      	ldr	r1, [sp, #180]	; 0xb4
   14498:	ea40 3081 	orr.w	r0, r0, r1, lsl #14
   1449c:	0c89      	lsrs	r1, r1, #18
   1449e:	ea8c 0c00 	eor.w	ip, ip, r0
   144a2:	4638      	mov	r0, r7
   144a4:	ea41 3187 	orr.w	r1, r1, r7, lsl #14
   144a8:	404e      	eors	r6, r1
   144aa:	992d      	ldr	r1, [sp, #180]	; 0xb4
   144ac:	9f2d      	ldr	r7, [sp, #180]	; 0xb4
   144ae:	05c9      	lsls	r1, r1, #23
   144b0:	ea41 2150 	orr.w	r1, r1, r0, lsr #9
   144b4:	05c0      	lsls	r0, r0, #23
   144b6:	4071      	eors	r1, r6
   144b8:	9e2e      	ldr	r6, [sp, #184]	; 0xb8
   144ba:	ea40 2057 	orr.w	r0, r0, r7, lsr #9
   144be:	9130      	str	r1, [sp, #192]	; 0xc0
   144c0:	ea8c 0c00 	eor.w	ip, ip, r0
   144c4:	9929      	ldr	r1, [sp, #164]	; 0xa4
   144c6:	e9dd 072a 	ldrd	r0, r7, [sp, #168]	; 0xa8
