
Build/test.elf:     file format elf32-littlearm


Disassembly of section .init:

000103dc <_init>:
   103dc:	e92d4008 	push	{r3, lr}
   103e0:	eb00003b 	bl	104d4 <call_weak_fn>
   103e4:	e8bd8008 	pop	{r3, pc}

Disassembly of section .plt:

000103e8 <.plt>:
   103e8:	e52de004 	push	{lr}		; (str lr, [sp, #-4]!)
   103ec:	e59fe004 	ldr	lr, [pc, #4]	; 103f8 <.plt+0x10>
   103f0:	e08fe00e 	add	lr, pc, lr
   103f4:	e5bef008 	ldr	pc, [lr, #8]!
   103f8:	0001dc08 	.word	0x0001dc08

000103fc <raise@plt>:
   103fc:	e28fc600 	add	ip, pc, #0, 12
   10400:	e28cca1d 	add	ip, ip, #118784	; 0x1d000
   10404:	e5bcfc08 	ldr	pc, [ip, #3080]!	; 0xc08

00010408 <printf@plt>:
   10408:	e28fc600 	add	ip, pc, #0, 12
   1040c:	e28cca1d 	add	ip, ip, #118784	; 0x1d000
   10410:	e5bcfc00 	ldr	pc, [ip, #3072]!	; 0xc00

00010414 <free@plt>:
   10414:	e28fc600 	add	ip, pc, #0, 12
   10418:	e28cca1d 	add	ip, ip, #118784	; 0x1d000
   1041c:	e5bcfbf8 	ldr	pc, [ip, #3064]!	; 0xbf8

00010420 <clock_gettime@plt>:
   10420:	e28fc600 	add	ip, pc, #0, 12
   10424:	e28cca1d 	add	ip, ip, #118784	; 0x1d000
   10428:	e5bcfbf0 	ldr	pc, [ip, #3056]!	; 0xbf0

0001042c <memcpy@plt>:
   1042c:	e28fc600 	add	ip, pc, #0, 12
   10430:	e28cca1d 	add	ip, ip, #118784	; 0x1d000
   10434:	e5bcfbe8 	ldr	pc, [ip, #3048]!	; 0xbe8

00010438 <memcmp@plt>:
   10438:	e28fc600 	add	ip, pc, #0, 12
   1043c:	e28cca1d 	add	ip, ip, #118784	; 0x1d000
   10440:	e5bcfbe0 	ldr	pc, [ip, #3040]!	; 0xbe0

00010444 <malloc@plt>:
   10444:	e28fc600 	add	ip, pc, #0, 12
   10448:	e28cca1d 	add	ip, ip, #118784	; 0x1d000
   1044c:	e5bcfbd8 	ldr	pc, [ip, #3032]!	; 0xbd8

00010450 <__gmon_start__@plt>:
   10450:	e28fc600 	add	ip, pc, #0, 12
   10454:	e28cca1d 	add	ip, ip, #118784	; 0x1d000
   10458:	e5bcfbd0 	ldr	pc, [ip, #3024]!	; 0xbd0

0001045c <strlen@plt>:
   1045c:	e28fc600 	add	ip, pc, #0, 12
   10460:	e28cca1d 	add	ip, ip, #118784	; 0x1d000
   10464:	e5bcfbc8 	ldr	pc, [ip, #3016]!	; 0xbc8

00010468 <memset@plt>:
   10468:	e28fc600 	add	ip, pc, #0, 12
   1046c:	e28cca1d 	add	ip, ip, #118784	; 0x1d000
   10470:	e5bcfbc0 	ldr	pc, [ip, #3008]!	; 0xbc0

Disassembly of section .text:

00010478 <main>:
   10478:	b510      	push	{r4, lr}
   1047a:	4c10      	ldr	r4, [pc, #64]	; (104bc <main+0x44>)
   1047c:	4620      	mov	r0, r4
   1047e:	f7ff efc4 	blx	10408 <printf@plt>
   10482:	480f      	ldr	r0, [pc, #60]	; (104c0 <main+0x48>)
   10484:	f7ff efc0 	blx	10408 <printf@plt>
   10488:	490e      	ldr	r1, [pc, #56]	; (104c4 <main+0x4c>)
   1048a:	2210      	movs	r2, #16
   1048c:	f44f 6040 	mov.w	r0, #3072	; 0xc00
   10490:	f000 f87a 	bl	10588 <test_RSA>
   10494:	480c      	ldr	r0, [pc, #48]	; (104c8 <main+0x50>)
   10496:	f7ff efb8 	blx	10408 <printf@plt>
   1049a:	4620      	mov	r0, r4
   1049c:	f7ff efb4 	blx	10408 <printf@plt>
   104a0:	480a      	ldr	r0, [pc, #40]	; (104cc <main+0x54>)
   104a2:	f7ff efb2 	blx	10408 <printf@plt>
   104a6:	4907      	ldr	r1, [pc, #28]	; (104c4 <main+0x4c>)
   104a8:	2210      	movs	r2, #16
   104aa:	f44f 6000 	mov.w	r0, #2048	; 0x800
   104ae:	f000 f86b 	bl	10588 <test_RSA>
   104b2:	4807      	ldr	r0, [pc, #28]	; (104d0 <main+0x58>)
   104b4:	f7ff efa8 	blx	10408 <printf@plt>
   104b8:	2000      	movs	r0, #0
   104ba:	bd10      	pop	{r4, pc}
   104bc:	0001ca23 	.word	0x0001ca23
   104c0:	0001ca3c 	.word	0x0001ca3c
   104c4:	0002e038 	.word	0x0002e038
   104c8:	0001ca56 	.word	0x0001ca56
   104cc:	0001ca70 	.word	0x0001ca70
   104d0:	0001ca8a 	.word	0x0001ca8a

000104d4 <call_weak_fn>:
   104d4:	e59f3014 	ldr	r3, [pc, #20]	; 104f0 <call_weak_fn+0x1c>
   104d8:	e59f2014 	ldr	r2, [pc, #20]	; 104f4 <call_weak_fn+0x20>
   104dc:	e08f3003 	add	r3, pc, r3
   104e0:	e7932002 	ldr	r2, [r3, r2]
   104e4:	e3520000 	cmp	r2, #0
   104e8:	012fff1e 	bxeq	lr
   104ec:	eaffffd7 	b	10450 <__gmon_start__@plt>
   104f0:	0001db1c 	.word	0x0001db1c
   104f4:	00000034 	.word	0x00000034

000104f8 <deregister_tm_clones>:
   104f8:	e59f0018 	ldr	r0, [pc, #24]	; 10518 <deregister_tm_clones+0x20>
   104fc:	e59f3018 	ldr	r3, [pc, #24]	; 1051c <deregister_tm_clones+0x24>
   10500:	e1530000 	cmp	r3, r0
   10504:	012fff1e 	bxeq	lr
   10508:	e59f3010 	ldr	r3, [pc, #16]	; 10520 <deregister_tm_clones+0x28>
   1050c:	e3530000 	cmp	r3, #0
   10510:	012fff1e 	bxeq	lr
   10514:	e12fff13 	bx	r3
   10518:	0002e048 	.word	0x0002e048
   1051c:	0002e048 	.word	0x0002e048
   10520:	00000000 	.word	0x00000000

00010524 <register_tm_clones>:
   10524:	e59f0024 	ldr	r0, [pc, #36]	; 10550 <register_tm_clones+0x2c>
   10528:	e59f1024 	ldr	r1, [pc, #36]	; 10554 <register_tm_clones+0x30>
   1052c:	e0413000 	sub	r3, r1, r0
   10530:	e1a01fa3 	lsr	r1, r3, #31
   10534:	e0811143 	add	r1, r1, r3, asr #2
   10538:	e1b010c1 	asrs	r1, r1, #1
   1053c:	012fff1e 	bxeq	lr
   10540:	e59f3010 	ldr	r3, [pc, #16]	; 10558 <register_tm_clones+0x34>
   10544:	e3530000 	cmp	r3, #0
   10548:	012fff1e 	bxeq	lr
   1054c:	e12fff13 	bx	r3
   10550:	0002e048 	.word	0x0002e048
   10554:	0002e048 	.word	0x0002e048
   10558:	00000000 	.word	0x00000000

0001055c <__do_global_dtors_aux>:
   1055c:	e92d4010 	push	{r4, lr}
   10560:	e59f4018 	ldr	r4, [pc, #24]	; 10580 <__do_global_dtors_aux+0x24>
   10564:	e5d43000 	ldrb	r3, [r4]
   10568:	e3530000 	cmp	r3, #0
   1056c:	18bd8010 	popne	{r4, pc}
   10570:	ebffffe0 	bl	104f8 <deregister_tm_clones>
   10574:	e3a03001 	mov	r3, #1
   10578:	e5c43000 	strb	r3, [r4]
   1057c:	e8bd8010 	pop	{r4, pc}
   10580:	0002e048 	.word	0x0002e048

00010584 <frame_dummy>:
   10584:	eaffffe6 	b	10524 <register_tm_clones>

00010588 <test_RSA>:
   10588:	b5f0      	push	{r4, r5, r6, r7, lr}
   1058a:	4607      	mov	r7, r0
   1058c:	460d      	mov	r5, r1
   1058e:	4616      	mov	r6, r2
   10590:	2100      	movs	r1, #0
   10592:	f44f 7200 	mov.w	r2, #512	; 0x200
   10596:	ed2d 8b04 	vpush	{d8-d9}
   1059a:	f5ad 5de6 	sub.w	sp, sp, #7360	; 0x1cc0
   1059e:	b085      	sub	sp, #20
   105a0:	a80d      	add	r0, sp, #52	; 0x34
   105a2:	f7ff ef62 	blx	10468 <memset@plt>
   105a6:	f44f 7200 	mov.w	r2, #512	; 0x200
   105aa:	2100      	movs	r1, #0
   105ac:	a88d      	add	r0, sp, #564	; 0x234
   105ae:	f7ff ef5c 	blx	10468 <memset@plt>
   105b2:	a809      	add	r0, sp, #36	; 0x24
   105b4:	f000 fd82 	bl	110bc <wc_InitRng>
   105b8:	f110 0f7d 	cmn.w	r0, #125	; 0x7d
   105bc:	4603      	mov	r3, r0
   105be:	f000 814a 	beq.w	10856 <test_RSA+0x2ce>
   105c2:	f110 0f7c 	cmn.w	r0, #124	; 0x7c
   105c6:	f280 813e 	bge.w	10846 <test_RSA+0x2be>
   105ca:	f110 0fc7 	cmn.w	r0, #199	; 0xc7
   105ce:	f000 814c 	beq.w	1086a <test_RSA+0x2e2>
   105d2:	f110 0fad 	cmn.w	r0, #173	; 0xad
   105d6:	f000 8144 	beq.w	10862 <test_RSA+0x2da>
   105da:	33d1      	adds	r3, #209	; 0xd1
   105dc:	f000 8143 	beq.w	10866 <test_RSA+0x2de>
   105e0:	f20d 4434 	addw	r4, sp, #1076	; 0x434
   105e4:	2100      	movs	r1, #0
   105e6:	4620      	mov	r0, r4
   105e8:	f000 ff45 	bl	11476 <wc_InitRsaKey>
   105ec:	f110 0fad 	cmn.w	r0, #173	; 0xad
   105f0:	f000 813d 	beq.w	1086e <test_RSA+0x2e6>
   105f4:	307d      	adds	r0, #125	; 0x7d
   105f6:	f000 813e 	beq.w	10876 <test_RSA+0x2ee>
   105fa:	a909      	add	r1, sp, #36	; 0x24
   105fc:	4620      	mov	r0, r4
   105fe:	f001 ffa2 	bl	12546 <wc_RsaSetRNG>
   10602:	b110      	cbz	r0, 1060a <test_RSA+0x82>
   10604:	48b8      	ldr	r0, [pc, #736]	; (108e8 <test_RSA+0x360>)
   10606:	f7ff ef00 	blx	10408 <printf@plt>
   1060a:	a905      	add	r1, sp, #20
   1060c:	2001      	movs	r0, #1
   1060e:	f7ff ef08 	blx	10420 <clock_gettime@plt>
   10612:	ab09      	add	r3, sp, #36	; 0x24
   10614:	f04f 1201 	mov.w	r2, #65537	; 0x10001
   10618:	4639      	mov	r1, r7
   1061a:	4620      	mov	r0, r4
   1061c:	f001 fd3b 	bl	12096 <wc_MakeRsaKey>
   10620:	f110 0f6d 	cmn.w	r0, #109	; 0x6d
   10624:	da0a      	bge.n	1063c <test_RSA+0xb4>
   10626:	f110 0f78 	cmn.w	r0, #120	; 0x78
   1062a:	f280 8126 	bge.w	1087a <test_RSA+0x2f2>
   1062e:	f110 0fc7 	cmn.w	r0, #199	; 0xc7
   10632:	f000 8145 	beq.w	108c0 <test_RSA+0x338>
   10636:	30ad      	adds	r0, #173	; 0xad
   10638:	f000 813e 	beq.w	108b8 <test_RSA+0x330>
   1063c:	ab07      	add	r3, sp, #28
   1063e:	2001      	movs	r0, #1
   10640:	ed9f 9ba5 	vldr	d9, [pc, #660]	; 108d8 <test_RSA+0x350>
   10644:	4619      	mov	r1, r3
   10646:	9303      	str	r3, [sp, #12]
   10648:	f7ff eeea 	blx	10420 <clock_gettime@plt>
   1064c:	f50d 634d 	add.w	r3, sp, #3280	; 0xcd0
   10650:	a907      	add	r1, sp, #28
   10652:	ed9f 8ba3 	vldr	d8, [pc, #652]	; 108e0 <test_RSA+0x358>
   10656:	f6a3 42bc 	subw	r2, r3, #3260	; 0xcbc
   1065a:	e9d2 0200 	ldrd	r0, r2, [r2]
   1065e:	680b      	ldr	r3, [r1, #0]
   10660:	1a1b      	subs	r3, r3, r0
   10662:	48a2      	ldr	r0, [pc, #648]	; (108ec <test_RSA+0x364>)
   10664:	ee07 3a90 	vmov	s15, r3
   10668:	684b      	ldr	r3, [r1, #4]
   1066a:	1a9b      	subs	r3, r3, r2
   1066c:	ee07 3a10 	vmov	s14, r3
   10670:	eeb8 6be7 	vcvt.f64.s32	d6, s15
   10674:	eeb8 7bc7 	vcvt.f64.s32	d7, s14
   10678:	ee06 7b09 	vmla.f64	d7, d6, d9
   1067c:	ee27 7b08 	vmul.f64	d7, d7, d8
   10680:	ec53 2b17 	vmov	r2, r3, d7
   10684:	f7ff eec0 	blx	10408 <printf@plt>
   10688:	a905      	add	r1, sp, #20
   1068a:	2001      	movs	r0, #1
   1068c:	f7ff eec8 	blx	10420 <clock_gettime@plt>
   10690:	ab09      	add	r3, sp, #36	; 0x24
   10692:	aa0d      	add	r2, sp, #52	; 0x34
   10694:	4631      	mov	r1, r6
   10696:	4628      	mov	r0, r5
   10698:	e9cd 4300 	strd	r4, r3, [sp]
   1069c:	f44f 7300 	mov.w	r3, #512	; 0x200
   106a0:	f001 fc83 	bl	11faa <wc_RsaSSL_Sign>
   106a4:	1e07      	subs	r7, r0, #0
   106a6:	da03      	bge.n	106b0 <test_RSA+0x128>
   106a8:	4891      	ldr	r0, [pc, #580]	; (108f0 <test_RSA+0x368>)
   106aa:	4639      	mov	r1, r7
   106ac:	f7ff eeac 	blx	10408 <printf@plt>
   106b0:	2001      	movs	r0, #1
   106b2:	9903      	ldr	r1, [sp, #12]
   106b4:	f7ff eeb4 	blx	10420 <clock_gettime@plt>
   106b8:	f50d 634d 	add.w	r3, sp, #3280	; 0xcd0
   106bc:	a907      	add	r1, sp, #28
   106be:	f6a3 42bc 	subw	r2, r3, #3260	; 0xcbc
   106c2:	e9d2 0200 	ldrd	r0, r2, [r2]
   106c6:	680b      	ldr	r3, [r1, #0]
   106c8:	1a1b      	subs	r3, r3, r0
   106ca:	488a      	ldr	r0, [pc, #552]	; (108f4 <test_RSA+0x36c>)
   106cc:	ee07 3a90 	vmov	s15, r3
   106d0:	684b      	ldr	r3, [r1, #4]
   106d2:	1a9b      	subs	r3, r3, r2
   106d4:	ee07 3a10 	vmov	s14, r3
   106d8:	eeb8 6be7 	vcvt.f64.s32	d6, s15
   106dc:	eeb8 7bc7 	vcvt.f64.s32	d7, s14
   106e0:	ee06 7b09 	vmla.f64	d7, d6, d9
   106e4:	ee27 7b08 	vmul.f64	d7, d7, d8
   106e8:	ec53 2b17 	vmov	r2, r3, d7
   106ec:	f7ff ee8c 	blx	10408 <printf@plt>
   106f0:	a905      	add	r1, sp, #20
   106f2:	2001      	movs	r0, #1
   106f4:	f7ff ee94 	blx	10420 <clock_gettime@plt>
   106f8:	4639      	mov	r1, r7
   106fa:	f44f 7300 	mov.w	r3, #512	; 0x200
   106fe:	9400      	str	r4, [sp, #0]
   10700:	aa8d      	add	r2, sp, #564	; 0x234
   10702:	a80d      	add	r0, sp, #52	; 0x34
   10704:	f001 fbbd 	bl	11e82 <wc_RsaSSL_Verify>
   10708:	1e01      	subs	r1, r0, #0
   1070a:	da02      	bge.n	10712 <test_RSA+0x18a>
   1070c:	487a      	ldr	r0, [pc, #488]	; (108f8 <test_RSA+0x370>)
   1070e:	f7ff ee7c 	blx	10408 <printf@plt>
   10712:	2001      	movs	r0, #1
   10714:	9903      	ldr	r1, [sp, #12]
   10716:	f7ff ee84 	blx	10420 <clock_gettime@plt>
   1071a:	f50d 634d 	add.w	r3, sp, #3280	; 0xcd0
   1071e:	a907      	add	r1, sp, #28
   10720:	f6a3 42bc 	subw	r2, r3, #3260	; 0xcbc
   10724:	e9d2 0200 	ldrd	r0, r2, [r2]
   10728:	680b      	ldr	r3, [r1, #0]
   1072a:	1a1b      	subs	r3, r3, r0
   1072c:	4873      	ldr	r0, [pc, #460]	; (108fc <test_RSA+0x374>)
   1072e:	ee07 3a90 	vmov	s15, r3
   10732:	684b      	ldr	r3, [r1, #4]
   10734:	1a9b      	subs	r3, r3, r2
   10736:	ee07 3a10 	vmov	s14, r3
   1073a:	eeb8 6be7 	vcvt.f64.s32	d6, s15
   1073e:	eeb8 7bc7 	vcvt.f64.s32	d7, s14
   10742:	ee06 7b09 	vmla.f64	d7, d6, d9
   10746:	ee27 7b08 	vmul.f64	d7, d7, d8
   1074a:	ec53 2b17 	vmov	r2, r3, d7
   1074e:	f7ff ee5c 	blx	10408 <printf@plt>
   10752:	f44f 7200 	mov.w	r2, #512	; 0x200
   10756:	2100      	movs	r1, #0
   10758:	a80d      	add	r0, sp, #52	; 0x34
   1075a:	f7ff ee86 	blx	10468 <memset@plt>
   1075e:	f44f 7200 	mov.w	r2, #512	; 0x200
   10762:	2100      	movs	r1, #0
   10764:	a88d      	add	r0, sp, #564	; 0x234
   10766:	f7ff ee80 	blx	10468 <memset@plt>
   1076a:	a905      	add	r1, sp, #20
   1076c:	2001      	movs	r0, #1
   1076e:	f7ff ee58 	blx	10420 <clock_gettime@plt>
   10772:	ab09      	add	r3, sp, #36	; 0x24
   10774:	4628      	mov	r0, r5
   10776:	aa0d      	add	r2, sp, #52	; 0x34
   10778:	4631      	mov	r1, r6
   1077a:	e9cd 4300 	strd	r4, r3, [sp]
   1077e:	f44f 7300 	mov.w	r3, #512	; 0x200
   10782:	f001 fc75 	bl	12070 <wc_RsaPublicEncrypt>
   10786:	1e05      	subs	r5, r0, #0
   10788:	da03      	bge.n	10792 <test_RSA+0x20a>
   1078a:	485d      	ldr	r0, [pc, #372]	; (10900 <test_RSA+0x378>)
   1078c:	4629      	mov	r1, r5
   1078e:	f7ff ee3c 	blx	10408 <printf@plt>
   10792:	2001      	movs	r0, #1
   10794:	9903      	ldr	r1, [sp, #12]
   10796:	f7ff ee44 	blx	10420 <clock_gettime@plt>
   1079a:	f50d 634d 	add.w	r3, sp, #3280	; 0xcd0
   1079e:	a907      	add	r1, sp, #28
   107a0:	f6a3 42bc 	subw	r2, r3, #3260	; 0xcbc
   107a4:	e9d2 0200 	ldrd	r0, r2, [r2]
   107a8:	680b      	ldr	r3, [r1, #0]
   107aa:	1a1b      	subs	r3, r3, r0
   107ac:	4855      	ldr	r0, [pc, #340]	; (10904 <test_RSA+0x37c>)
   107ae:	ee07 3a90 	vmov	s15, r3
   107b2:	684b      	ldr	r3, [r1, #4]
   107b4:	1a9b      	subs	r3, r3, r2
   107b6:	ee07 3a10 	vmov	s14, r3
   107ba:	eeb8 6be7 	vcvt.f64.s32	d6, s15
   107be:	eeb8 7bc7 	vcvt.f64.s32	d7, s14
   107c2:	ee06 7b09 	vmla.f64	d7, d6, d9
   107c6:	ee27 7b08 	vmul.f64	d7, d7, d8
   107ca:	ec53 2b17 	vmov	r2, r3, d7
   107ce:	f7ff ee1c 	blx	10408 <printf@plt>
   107d2:	a905      	add	r1, sp, #20
   107d4:	2001      	movs	r0, #1
   107d6:	f7ff ee24 	blx	10420 <clock_gettime@plt>
   107da:	4629      	mov	r1, r5
   107dc:	f44f 7300 	mov.w	r3, #512	; 0x200
   107e0:	9400      	str	r4, [sp, #0]
   107e2:	aa8d      	add	r2, sp, #564	; 0x234
   107e4:	a80d      	add	r0, sp, #52	; 0x34
   107e6:	f001 fae7 	bl	11db8 <wc_RsaPrivateDecrypt>
   107ea:	1e01      	subs	r1, r0, #0
   107ec:	da02      	bge.n	107f4 <test_RSA+0x26c>
   107ee:	4846      	ldr	r0, [pc, #280]	; (10908 <test_RSA+0x380>)
   107f0:	f7ff ee0a 	blx	10408 <printf@plt>
   107f4:	2001      	movs	r0, #1
   107f6:	9903      	ldr	r1, [sp, #12]
   107f8:	f7ff ee12 	blx	10420 <clock_gettime@plt>
   107fc:	f50d 634d 	add.w	r3, sp, #3280	; 0xcd0
   10800:	a907      	add	r1, sp, #28
   10802:	f6a3 43bc 	subw	r3, r3, #3260	; 0xcbc
   10806:	e9d3 0300 	ldrd	r0, r3, [r3]
   1080a:	680a      	ldr	r2, [r1, #0]
   1080c:	1a12      	subs	r2, r2, r0
   1080e:	483f      	ldr	r0, [pc, #252]	; (1090c <test_RSA+0x384>)
   10810:	ee07 2a90 	vmov	s15, r2
   10814:	684a      	ldr	r2, [r1, #4]
   10816:	1ad3      	subs	r3, r2, r3
   10818:	ee07 3a10 	vmov	s14, r3
   1081c:	eeb8 6be7 	vcvt.f64.s32	d6, s15
   10820:	eeb8 7bc7 	vcvt.f64.s32	d7, s14
   10824:	ee06 7b09 	vmla.f64	d7, d6, d9
   10828:	ee27 7b08 	vmul.f64	d7, d7, d8
   1082c:	ec53 2b17 	vmov	r2, r3, d7
   10830:	f7ff edea 	blx	10408 <printf@plt>
   10834:	4620      	mov	r0, r4
   10836:	f000 fe22 	bl	1147e <wc_FreeRsaKey>
   1083a:	f50d 5de6 	add.w	sp, sp, #7360	; 0x1cc0
   1083e:	b005      	add	sp, #20
   10840:	ecbd 8b04 	vpop	{d8-d9}
   10844:	bdf0      	pop	{r4, r5, r6, r7, pc}
   10846:	f110 0f68 	cmn.w	r0, #104	; 0x68
   1084a:	d008      	beq.n	1085e <test_RSA+0x2d6>
   1084c:	3367      	adds	r3, #103	; 0x67
   1084e:	f47f aec7 	bne.w	105e0 <test_RSA+0x58>
   10852:	482f      	ldr	r0, [pc, #188]	; (10910 <test_RSA+0x388>)
   10854:	e000      	b.n	10858 <test_RSA+0x2d0>
   10856:	482f      	ldr	r0, [pc, #188]	; (10914 <test_RSA+0x38c>)
   10858:	f7ff edd6 	blx	10408 <printf@plt>
   1085c:	e6c0      	b.n	105e0 <test_RSA+0x58>
   1085e:	482e      	ldr	r0, [pc, #184]	; (10918 <test_RSA+0x390>)
   10860:	e7fa      	b.n	10858 <test_RSA+0x2d0>
   10862:	482e      	ldr	r0, [pc, #184]	; (1091c <test_RSA+0x394>)
   10864:	e7f8      	b.n	10858 <test_RSA+0x2d0>
   10866:	482e      	ldr	r0, [pc, #184]	; (10920 <test_RSA+0x398>)
   10868:	e7f6      	b.n	10858 <test_RSA+0x2d0>
   1086a:	482e      	ldr	r0, [pc, #184]	; (10924 <test_RSA+0x39c>)
   1086c:	e7f4      	b.n	10858 <test_RSA+0x2d0>
   1086e:	482e      	ldr	r0, [pc, #184]	; (10928 <test_RSA+0x3a0>)
   10870:	f7ff edca 	blx	10408 <printf@plt>
   10874:	e6c1      	b.n	105fa <test_RSA+0x72>
   10876:	4827      	ldr	r0, [pc, #156]	; (10914 <test_RSA+0x38c>)
   10878:	e7fa      	b.n	10870 <test_RSA+0x2e8>
   1087a:	f100 0378 	add.w	r3, r0, #120	; 0x78
   1087e:	2b0a      	cmp	r3, #10
   10880:	f63f aedc 	bhi.w	1063c <test_RSA+0xb4>
   10884:	a201      	add	r2, pc, #4	; (adr r2, 1088c <test_RSA+0x304>)
   10886:	f852 f023 	ldr.w	pc, [r2, r3, lsl #2]
   1088a:	bf00      	nop
   1088c:	000108cd 	.word	0x000108cd
   10890:	000108d1 	.word	0x000108d1
   10894:	0001063d 	.word	0x0001063d
   10898:	0001063d 	.word	0x0001063d
   1089c:	0001063d 	.word	0x0001063d
   108a0:	0001063d 	.word	0x0001063d
   108a4:	0001063d 	.word	0x0001063d
   108a8:	0001063d 	.word	0x0001063d
   108ac:	000108d5 	.word	0x000108d5
   108b0:	000108c9 	.word	0x000108c9
   108b4:	000108c5 	.word	0x000108c5
   108b8:	481b      	ldr	r0, [pc, #108]	; (10928 <test_RSA+0x3a0>)
   108ba:	f7ff eda6 	blx	10408 <printf@plt>
   108be:	e6bd      	b.n	1063c <test_RSA+0xb4>
   108c0:	4818      	ldr	r0, [pc, #96]	; (10924 <test_RSA+0x39c>)
   108c2:	e7fa      	b.n	108ba <test_RSA+0x332>
   108c4:	4819      	ldr	r0, [pc, #100]	; (1092c <test_RSA+0x3a4>)
   108c6:	e7f8      	b.n	108ba <test_RSA+0x332>
   108c8:	4819      	ldr	r0, [pc, #100]	; (10930 <test_RSA+0x3a8>)
   108ca:	e7f6      	b.n	108ba <test_RSA+0x332>
   108cc:	4819      	ldr	r0, [pc, #100]	; (10934 <test_RSA+0x3ac>)
   108ce:	e7f4      	b.n	108ba <test_RSA+0x332>
   108d0:	4819      	ldr	r0, [pc, #100]	; (10938 <test_RSA+0x3b0>)
   108d2:	e7f2      	b.n	108ba <test_RSA+0x332>
   108d4:	4819      	ldr	r0, [pc, #100]	; (1093c <test_RSA+0x3b4>)
   108d6:	e7f0      	b.n	108ba <test_RSA+0x332>
   108d8:	00000000 	.word	0x00000000
   108dc:	41cdcd65 	.word	0x41cdcd65
   108e0:	e826d695 	.word	0xe826d695
   108e4:	3e112e0b 	.word	0x3e112e0b
   108e8:	0001c907 	.word	0x0001c907
   108ec:	0001c952 	.word	0x0001c952
   108f0:	0001c974 	.word	0x0001c974
   108f4:	0001c97e 	.word	0x0001c97e
   108f8:	0001c99b 	.word	0x0001c99b
   108fc:	0001c9a5 	.word	0x0001c9a5
   10900:	0001c9c4 	.word	0x0001c9c4
   10904:	0001c9ce 	.word	0x0001c9ce
   10908:	0001c9f3 	.word	0x0001c9f3
   1090c:	0001c9fd 	.word	0x0001c9fd
   10910:	0001c8b2 	.word	0x0001c8b2
   10914:	0001c8a8 	.word	0x0001c8a8
   10918:	0001c8be 	.word	0x0001c8be
   1091c:	0001c8ca 	.word	0x0001c8ca
   10920:	0001c8d8 	.word	0x0001c8d8
   10924:	0001c8ea 	.word	0x0001c8ea
   10928:	0001c8f9 	.word	0x0001c8f9
   1092c:	0001c917 	.word	0x0001c917
   10930:	0001c922 	.word	0x0001c922
   10934:	0001c92d 	.word	0x0001c92d
   10938:	0001c937 	.word	0x0001c937
   1093c:	0001c944 	.word	0x0001c944

00010940 <hw_rand>:
   10940:	4b02      	ldr	r3, [pc, #8]	; (1094c <hw_rand+0xc>)
   10942:	6818      	ldr	r0, [r3, #0]
   10944:	3001      	adds	r0, #1
   10946:	6018      	str	r0, [r3, #0]
   10948:	4770      	bx	lr
   1094a:	bf00      	nop
   1094c:	0002e04c 	.word	0x0002e04c

00010950 <my_rng_seed_gen>:
   10950:	f7ff bff6 	b.w	10940 <hw_rand>

00010954 <reset_handler>:
   10954:	b508      	push	{r3, lr}
   10956:	f7ff fd8f 	bl	10478 <main>
   1095a:	e7fe      	b.n	1095a <reset_handler+0x6>

0001095c <ForceZero>:
   1095c:	4401      	add	r1, r0
   1095e:	2300      	movs	r3, #0
   10960:	4288      	cmp	r0, r1
   10962:	d100      	bne.n	10966 <ForceZero+0xa>
   10964:	4770      	bx	lr
   10966:	f800 3b01 	strb.w	r3, [r0], #1
   1096a:	e7f9      	b.n	10960 <ForceZero+0x4>

0001096c <ConstantCompare>:
   1096c:	b570      	push	{r4, r5, r6, lr}
   1096e:	4604      	mov	r4, r0
   10970:	2000      	movs	r0, #0
   10972:	4603      	mov	r3, r0
   10974:	4293      	cmp	r3, r2
   10976:	db00      	blt.n	1097a <ConstantCompare+0xe>
   10978:	bd70      	pop	{r4, r5, r6, pc}
   1097a:	5ce5      	ldrb	r5, [r4, r3]
   1097c:	5cce      	ldrb	r6, [r1, r3]
   1097e:	3301      	adds	r3, #1
   10980:	4075      	eors	r5, r6
   10982:	4328      	orrs	r0, r5
   10984:	e7f6      	b.n	10974 <ConstantCompare+0x8>

00010986 <Hash_DRBG_Uninstantiate>:
   10986:	4602      	mov	r2, r0
   10988:	b508      	push	{r3, lr}
   1098a:	2178      	movs	r1, #120	; 0x78
   1098c:	f7ff ffe6 	bl	1095c <ForceZero>
   10990:	1e53      	subs	r3, r2, #1
   10992:	2000      	movs	r0, #0
   10994:	3277      	adds	r2, #119	; 0x77
   10996:	f813 1f01 	ldrb.w	r1, [r3, #1]!
   1099a:	4293      	cmp	r3, r2
   1099c:	ea40 0001 	orr.w	r0, r0, r1
   109a0:	d1f9      	bne.n	10996 <Hash_DRBG_Uninstantiate+0x10>
   109a2:	3800      	subs	r0, #0
   109a4:	bf18      	it	ne
   109a6:	2001      	movne	r0, #1
   109a8:	bd08      	pop	{r3, pc}

000109aa <array_add.part.0.constprop.0>:
   109aa:	b5f0      	push	{r4, r5, r6, r7, lr}
   109ac:	2300      	movs	r3, #0
   109ae:	1e54      	subs	r4, r2, #1
   109b0:	f100 0537 	add.w	r5, r0, #55	; 0x37
   109b4:	5d0f      	ldrb	r7, [r1, r4]
   109b6:	3c01      	subs	r4, #1
   109b8:	f815 6d01 	ldrb.w	r6, [r5, #-1]!
   109bc:	443e      	add	r6, r7
   109be:	4433      	add	r3, r6
   109c0:	1c66      	adds	r6, r4, #1
   109c2:	702b      	strb	r3, [r5, #0]
   109c4:	f3c3 230f 	ubfx	r3, r3, #8, #16
   109c8:	d1f4      	bne.n	109b4 <array_add.part.0.constprop.0+0xa>
   109ca:	f1c2 0136 	rsb	r1, r2, #54	; 0x36
   109ce:	3a02      	subs	r2, #2
   109d0:	3201      	adds	r2, #1
   109d2:	bfb8      	it	lt
   109d4:	2135      	movlt	r1, #53	; 0x35
   109d6:	1842      	adds	r2, r0, r1
   109d8:	b113      	cbz	r3, 109e0 <array_add.part.0.constprop.0+0x36>
   109da:	1a13      	subs	r3, r2, r0
   109dc:	2b00      	cmp	r3, #0
   109de:	da00      	bge.n	109e2 <array_add.part.0.constprop.0+0x38>
   109e0:	bdf0      	pop	{r4, r5, r6, r7, pc}
   109e2:	7813      	ldrb	r3, [r2, #0]
   109e4:	1c59      	adds	r1, r3, #1
   109e6:	0a0b      	lsrs	r3, r1, #8
   109e8:	f802 1901 	strb.w	r1, [r2], #-1
   109ec:	e7f4      	b.n	109d8 <array_add.part.0.constprop.0+0x2e>
	...

000109f0 <Hash_DRBG_Generate>:
   109f0:	e92d 4ff0 	stmdb	sp!, {r4, r5, r6, r7, r8, r9, sl, fp, lr}
   109f4:	468a      	mov	sl, r1
   109f6:	b0b7      	sub	sp, #220	; 0xdc
   109f8:	4605      	mov	r5, r0
   109fa:	2800      	cmp	r0, #0
   109fc:	f000 80c2 	beq.w	10b84 <Hash_DRBG_Generate+0x194>
   10a00:	4963      	ldr	r1, [pc, #396]	; (10b90 <Hash_DRBG_Generate+0x1a0>)
   10a02:	6803      	ldr	r3, [r0, #0]
   10a04:	428b      	cmp	r3, r1
   10a06:	f000 80bf 	beq.w	10b88 <Hash_DRBG_Generate+0x198>
   10a0a:	2a01      	cmp	r2, #1
   10a0c:	f04f 0103 	mov.w	r1, #3
   10a10:	bf38      	it	cc
   10a12:	2201      	movcc	r2, #1
   10a14:	f100 0708 	add.w	r7, r0, #8
   10a18:	f012 091f 	ands.w	r9, r2, #31
   10a1c:	ae0c      	add	r6, sp, #48	; 0x30
   10a1e:	f88d 1007 	strb.w	r1, [sp, #7]
   10a22:	bf18      	it	ne
   10a24:	f04f 0901 	movne.w	r9, #1
   10a28:	4690      	mov	r8, r2
   10a2a:	9302      	str	r3, [sp, #8]
   10a2c:	eb09 1952 	add.w	r9, r9, r2, lsr #5
   10a30:	4630      	mov	r0, r6
   10a32:	2237      	movs	r2, #55	; 0x37
   10a34:	4639      	mov	r1, r7
   10a36:	f04f 0b00 	mov.w	fp, #0
   10a3a:	2401      	movs	r4, #1
   10a3c:	f7ff ecf6 	blx	1042c <memcpy@plt>
   10a40:	45d9      	cmp	r9, fp
   10a42:	dc41      	bgt.n	10ac8 <Hash_DRBG_Generate+0xd8>
   10a44:	2137      	movs	r1, #55	; 0x37
   10a46:	4630      	mov	r0, r6
   10a48:	f7ff ff88 	bl	1095c <ForceZero>
   10a4c:	2c00      	cmp	r4, #0
   10a4e:	f040 8097 	bne.w	10b80 <Hash_DRBG_Generate+0x190>
   10a52:	a81a      	add	r0, sp, #104	; 0x68
   10a54:	f003 f8b0 	bl	13bb8 <wc_InitSha256>
   10a58:	4604      	mov	r4, r0
   10a5a:	b998      	cbnz	r0, 10a84 <Hash_DRBG_Generate+0x94>
   10a5c:	2201      	movs	r2, #1
   10a5e:	f10d 0107 	add.w	r1, sp, #7
   10a62:	a81a      	add	r0, sp, #104	; 0x68
   10a64:	f002 ffd4 	bl	13a10 <wc_Sha256Update>
   10a68:	4604      	mov	r4, r0
   10a6a:	b958      	cbnz	r0, 10a84 <Hash_DRBG_Generate+0x94>
   10a6c:	2237      	movs	r2, #55	; 0x37
   10a6e:	4639      	mov	r1, r7
   10a70:	a81a      	add	r0, sp, #104	; 0x68
   10a72:	f002 ffcd 	bl	13a10 <wc_Sha256Update>
   10a76:	4604      	mov	r4, r0
   10a78:	b920      	cbnz	r0, 10a84 <Hash_DRBG_Generate+0x94>
   10a7a:	4631      	mov	r1, r6
   10a7c:	a81a      	add	r0, sp, #104	; 0x68
   10a7e:	f002 ffd9 	bl	13a34 <wc_Sha256Final>
   10a82:	4604      	mov	r4, r0
   10a84:	a81a      	add	r0, sp, #104	; 0x68
   10a86:	f003 f89c 	bl	13bc2 <wc_Sha256Free>
   10a8a:	b984      	cbnz	r4, 10aae <Hash_DRBG_Generate+0xbe>
   10a8c:	2220      	movs	r2, #32
   10a8e:	4631      	mov	r1, r6
   10a90:	4638      	mov	r0, r7
   10a92:	f7ff ff8a 	bl	109aa <array_add.part.0.constprop.0>
   10a96:	2237      	movs	r2, #55	; 0x37
   10a98:	f105 013f 	add.w	r1, r5, #63	; 0x3f
   10a9c:	f7ff ff85 	bl	109aa <array_add.part.0.constprop.0>
   10aa0:	9b02      	ldr	r3, [sp, #8]
   10aa2:	2204      	movs	r2, #4
   10aa4:	a902      	add	r1, sp, #8
   10aa6:	ba1b      	rev	r3, r3
   10aa8:	9302      	str	r3, [sp, #8]
   10aaa:	f7ff ff7e 	bl	109aa <array_add.part.0.constprop.0>
   10aae:	682b      	ldr	r3, [r5, #0]
   10ab0:	3301      	adds	r3, #1
   10ab2:	602b      	str	r3, [r5, #0]
   10ab4:	4630      	mov	r0, r6
   10ab6:	2120      	movs	r1, #32
   10ab8:	f7ff ff50 	bl	1095c <ForceZero>
   10abc:	1e20      	subs	r0, r4, #0
   10abe:	bf18      	it	ne
   10ac0:	2001      	movne	r0, #1
   10ac2:	b037      	add	sp, #220	; 0xdc
   10ac4:	e8bd 8ff0 	ldmia.w	sp!, {r4, r5, r6, r7, r8, r9, sl, fp, pc}
   10ac8:	a81a      	add	r0, sp, #104	; 0x68
   10aca:	f003 f875 	bl	13bb8 <wc_InitSha256>
   10ace:	4604      	mov	r4, r0
   10ad0:	b958      	cbnz	r0, 10aea <Hash_DRBG_Generate+0xfa>
   10ad2:	2237      	movs	r2, #55	; 0x37
   10ad4:	4631      	mov	r1, r6
   10ad6:	a81a      	add	r0, sp, #104	; 0x68
   10ad8:	f002 ff9a 	bl	13a10 <wc_Sha256Update>
   10adc:	4604      	mov	r4, r0
   10ade:	b920      	cbnz	r0, 10aea <Hash_DRBG_Generate+0xfa>
   10ae0:	a904      	add	r1, sp, #16
   10ae2:	a81a      	add	r0, sp, #104	; 0x68
   10ae4:	f002 ffa6 	bl	13a34 <wc_Sha256Final>
   10ae8:	4604      	mov	r4, r0
   10aea:	a81a      	add	r0, sp, #104	; 0x68
   10aec:	f003 f869 	bl	13bc2 <wc_Sha256Free>
   10af0:	2c00      	cmp	r4, #0
   10af2:	d1a7      	bne.n	10a44 <Hash_DRBG_Generate+0x54>
   10af4:	2204      	movs	r2, #4
   10af6:	a904      	add	r1, sp, #16
   10af8:	a803      	add	r0, sp, #12
   10afa:	f7ff ec98 	blx	1042c <memcpy@plt>
   10afe:	682b      	ldr	r3, [r5, #0]
   10b00:	2b01      	cmp	r3, #1
   10b02:	9b03      	ldr	r3, [sp, #12]
   10b04:	d92f      	bls.n	10b66 <Hash_DRBG_Generate+0x176>
   10b06:	686a      	ldr	r2, [r5, #4]
   10b08:	429a      	cmp	r2, r3
   10b0a:	d12c      	bne.n	10b66 <Hash_DRBG_Generate+0x176>
   10b0c:	f895 3076 	ldrb.w	r3, [r5, #118]	; 0x76
   10b10:	2b01      	cmp	r3, #1
   10b12:	d03b      	beq.n	10b8c <Hash_DRBG_Generate+0x19c>
   10b14:	f109 33ff 	add.w	r3, r9, #4294967295
   10b18:	455b      	cmp	r3, fp
   10b1a:	f04f 0301 	mov.w	r3, #1
   10b1e:	bf08      	it	eq
   10b20:	f109 0901 	addeq.w	r9, r9, #1
   10b24:	f885 3076 	strb.w	r3, [r5, #118]	; 0x76
   10b28:	f1ba 0f00 	cmp.w	sl, #0
   10b2c:	d018      	beq.n	10b60 <Hash_DRBG_Generate+0x170>
   10b2e:	f1b8 0f00 	cmp.w	r8, #0
   10b32:	d015      	beq.n	10b60 <Hash_DRBG_Generate+0x170>
   10b34:	f1b8 0f1f 	cmp.w	r8, #31
   10b38:	d91a      	bls.n	10b70 <Hash_DRBG_Generate+0x180>
   10b3a:	2220      	movs	r2, #32
   10b3c:	4650      	mov	r0, sl
   10b3e:	a904      	add	r1, sp, #16
   10b40:	f1a8 0820 	sub.w	r8, r8, #32
   10b44:	f7ff ec72 	blx	1042c <memcpy@plt>
   10b48:	f10a 0a20 	add.w	sl, sl, #32
   10b4c:	f10d 0267 	add.w	r2, sp, #103	; 0x67
   10b50:	f812 3d01 	ldrb.w	r3, [r2, #-1]!
   10b54:	3301      	adds	r3, #1
   10b56:	b2db      	uxtb	r3, r3
   10b58:	7013      	strb	r3, [r2, #0]
   10b5a:	b90b      	cbnz	r3, 10b60 <Hash_DRBG_Generate+0x170>
   10b5c:	42b2      	cmp	r2, r6
   10b5e:	d1f7      	bne.n	10b50 <Hash_DRBG_Generate+0x160>
   10b60:	f10b 0b01 	add.w	fp, fp, #1
   10b64:	e76c      	b.n	10a40 <Hash_DRBG_Generate+0x50>
   10b66:	2200      	movs	r2, #0
   10b68:	606b      	str	r3, [r5, #4]
   10b6a:	f885 2076 	strb.w	r2, [r5, #118]	; 0x76
   10b6e:	e7db      	b.n	10b28 <Hash_DRBG_Generate+0x138>
   10b70:	4642      	mov	r2, r8
   10b72:	a904      	add	r1, sp, #16
   10b74:	4650      	mov	r0, sl
   10b76:	f04f 0800 	mov.w	r8, #0
   10b7a:	f7ff ec58 	blx	1042c <memcpy@plt>
   10b7e:	e7ef      	b.n	10b60 <Hash_DRBG_Generate+0x170>
   10b80:	2401      	movs	r4, #1
   10b82:	e797      	b.n	10ab4 <Hash_DRBG_Generate+0xc4>
   10b84:	2001      	movs	r0, #1
   10b86:	e79c      	b.n	10ac2 <Hash_DRBG_Generate+0xd2>
   10b88:	2002      	movs	r0, #2
   10b8a:	e79a      	b.n	10ac2 <Hash_DRBG_Generate+0xd2>
   10b8c:	2403      	movs	r4, #3
   10b8e:	e791      	b.n	10ab4 <Hash_DRBG_Generate+0xc4>
   10b90:	000f4240 	.word	0x000f4240

00010b94 <Hash_df.constprop.0>:
   10b94:	e92d 4ff0 	stmdb	sp!, {r4, r5, r6, r7, r8, r9, sl, fp, lr}
   10b98:	4698      	mov	r8, r3
   10b9a:	b0a9      	sub	sp, #164	; 0xa4
   10b9c:	4605      	mov	r5, r0
   10b9e:	4617      	mov	r7, r2
   10ba0:	f04f 0902 	mov.w	r9, #2
   10ba4:	2637      	movs	r6, #55	; 0x37
   10ba6:	4b37      	ldr	r3, [pc, #220]	; (10c84 <Hash_df.constprop.0+0xf0>)
   10ba8:	f88d 1007 	strb.w	r1, [sp, #7]
   10bac:	e9dd ab32 	ldrd	sl, fp, [sp, #200]	; 0xc8
   10bb0:	9303      	str	r3, [sp, #12]
   10bb2:	2301      	movs	r3, #1
   10bb4:	f88d 300b 	strb.w	r3, [sp, #11]
   10bb8:	a80c      	add	r0, sp, #48	; 0x30
   10bba:	f002 fffd 	bl	13bb8 <wc_InitSha256>
   10bbe:	4604      	mov	r4, r0
   10bc0:	bb70      	cbnz	r0, 10c20 <Hash_df.constprop.0+0x8c>
   10bc2:	2201      	movs	r2, #1
   10bc4:	f10d 010b 	add.w	r1, sp, #11
   10bc8:	a80c      	add	r0, sp, #48	; 0x30
   10bca:	f002 ff21 	bl	13a10 <wc_Sha256Update>
   10bce:	4604      	mov	r4, r0
   10bd0:	b9b0      	cbnz	r0, 10c00 <Hash_df.constprop.0+0x6c>
   10bd2:	f89d 300b 	ldrb.w	r3, [sp, #11]
   10bd6:	2204      	movs	r2, #4
   10bd8:	a903      	add	r1, sp, #12
   10bda:	a80c      	add	r0, sp, #48	; 0x30
   10bdc:	3301      	adds	r3, #1
   10bde:	f88d 300b 	strb.w	r3, [sp, #11]
   10be2:	f002 ff15 	bl	13a10 <wc_Sha256Update>
   10be6:	4604      	mov	r4, r0
   10be8:	b950      	cbnz	r0, 10c00 <Hash_df.constprop.0+0x6c>
   10bea:	f89d 3007 	ldrb.w	r3, [sp, #7]
   10bee:	2b04      	cmp	r3, #4
   10bf0:	d123      	bne.n	10c3a <Hash_df.constprop.0+0xa6>
   10bf2:	4642      	mov	r2, r8
   10bf4:	4639      	mov	r1, r7
   10bf6:	a80c      	add	r0, sp, #48	; 0x30
   10bf8:	f002 ff0a 	bl	13a10 <wc_Sha256Update>
   10bfc:	4604      	mov	r4, r0
   10bfe:	b330      	cbz	r0, 10c4e <Hash_df.constprop.0+0xba>
   10c00:	a80c      	add	r0, sp, #48	; 0x30
   10c02:	f002 ffde 	bl	13bc2 <wc_Sha256Free>
   10c06:	b944      	cbnz	r4, 10c1a <Hash_df.constprop.0+0x86>
   10c08:	2e20      	cmp	r6, #32
   10c0a:	d935      	bls.n	10c78 <Hash_df.constprop.0+0xe4>
   10c0c:	4628      	mov	r0, r5
   10c0e:	2220      	movs	r2, #32
   10c10:	a904      	add	r1, sp, #16
   10c12:	3520      	adds	r5, #32
   10c14:	2617      	movs	r6, #23
   10c16:	f7ff ec0a 	blx	1042c <memcpy@plt>
   10c1a:	f1b9 0f01 	cmp.w	r9, #1
   10c1e:	d109      	bne.n	10c34 <Hash_df.constprop.0+0xa0>
   10c20:	a804      	add	r0, sp, #16
   10c22:	2120      	movs	r1, #32
   10c24:	f7ff fe9a 	bl	1095c <ForceZero>
   10c28:	1e20      	subs	r0, r4, #0
   10c2a:	bf18      	it	ne
   10c2c:	2001      	movne	r0, #1
   10c2e:	b029      	add	sp, #164	; 0xa4
   10c30:	e8bd 8ff0 	ldmia.w	sp!, {r4, r5, r6, r7, r8, r9, sl, fp, pc}
   10c34:	f04f 0901 	mov.w	r9, #1
   10c38:	e7be      	b.n	10bb8 <Hash_df.constprop.0+0x24>
   10c3a:	2201      	movs	r2, #1
   10c3c:	f10d 0107 	add.w	r1, sp, #7
   10c40:	a80c      	add	r0, sp, #48	; 0x30
   10c42:	f002 fee5 	bl	13a10 <wc_Sha256Update>
   10c46:	4604      	mov	r4, r0
   10c48:	2800      	cmp	r0, #0
   10c4a:	d1d9      	bne.n	10c00 <Hash_df.constprop.0+0x6c>
   10c4c:	e7d1      	b.n	10bf2 <Hash_df.constprop.0+0x5e>
   10c4e:	f1ba 0f00 	cmp.w	sl, #0
   10c52:	d105      	bne.n	10c60 <Hash_df.constprop.0+0xcc>
   10c54:	a904      	add	r1, sp, #16
   10c56:	a80c      	add	r0, sp, #48	; 0x30
   10c58:	f002 feec 	bl	13a34 <wc_Sha256Final>
   10c5c:	4604      	mov	r4, r0
   10c5e:	e7cf      	b.n	10c00 <Hash_df.constprop.0+0x6c>
   10c60:	f1bb 0f00 	cmp.w	fp, #0
   10c64:	d0f6      	beq.n	10c54 <Hash_df.constprop.0+0xc0>
   10c66:	465a      	mov	r2, fp
   10c68:	4651      	mov	r1, sl
   10c6a:	a80c      	add	r0, sp, #48	; 0x30
   10c6c:	f002 fed0 	bl	13a10 <wc_Sha256Update>
   10c70:	4604      	mov	r4, r0
   10c72:	2800      	cmp	r0, #0
   10c74:	d1c4      	bne.n	10c00 <Hash_df.constprop.0+0x6c>
   10c76:	e7ed      	b.n	10c54 <Hash_df.constprop.0+0xc0>
   10c78:	4632      	mov	r2, r6
   10c7a:	a904      	add	r1, sp, #16
   10c7c:	4628      	mov	r0, r5
   10c7e:	f7ff ebd6 	blx	1042c <memcpy@plt>
   10c82:	e7ca      	b.n	10c1a <Hash_df.constprop.0+0x86>
   10c84:	b8010000 	.word	0xb8010000

00010c88 <Hash_DRBG_Instantiate.constprop.0>:
   10c88:	e92d 41f3 	stmdb	sp!, {r0, r1, r4, r5, r6, r7, r8, lr}
   10c8c:	460d      	mov	r5, r1
   10c8e:	4616      	mov	r6, r2
   10c90:	2100      	movs	r1, #0
   10c92:	2278      	movs	r2, #120	; 0x78
   10c94:	461f      	mov	r7, r3
   10c96:	4604      	mov	r4, r0
   10c98:	f7ff ebe6 	blx	10468 <memset@plt>
   10c9c:	9b08      	ldr	r3, [sp, #32]
   10c9e:	f104 0808 	add.w	r8, r4, #8
   10ca2:	2104      	movs	r1, #4
   10ca4:	462a      	mov	r2, r5
   10ca6:	4640      	mov	r0, r8
   10ca8:	e9cd 7300 	strd	r7, r3, [sp]
   10cac:	4633      	mov	r3, r6
   10cae:	f7ff ff71 	bl	10b94 <Hash_df.constprop.0>
   10cb2:	4601      	mov	r1, r0
   10cb4:	b118      	cbz	r0, 10cbe <Hash_DRBG_Instantiate.constprop.0+0x36>
   10cb6:	2001      	movs	r0, #1
   10cb8:	b002      	add	sp, #8
   10cba:	e8bd 81f0 	ldmia.w	sp!, {r4, r5, r6, r7, r8, pc}
   10cbe:	2337      	movs	r3, #55	; 0x37
   10cc0:	4642      	mov	r2, r8
   10cc2:	e9cd 1100 	strd	r1, r1, [sp]
   10cc6:	f104 003f 	add.w	r0, r4, #63	; 0x3f
   10cca:	f7ff ff63 	bl	10b94 <Hash_df.constprop.0>
   10cce:	2800      	cmp	r0, #0
   10cd0:	d1f1      	bne.n	10cb6 <Hash_DRBG_Instantiate.constprop.0+0x2e>
   10cd2:	2301      	movs	r3, #1
   10cd4:	e9c4 3000 	strd	r3, r0, [r4]
   10cd8:	f884 0076 	strb.w	r0, [r4, #118]	; 0x76
   10cdc:	e7ec      	b.n	10cb8 <Hash_DRBG_Instantiate.constprop.0+0x30>

00010cde <Hash_DRBG_Reseed>:
   10cde:	b5f0      	push	{r4, r5, r6, r7, lr}
   10ce0:	460d      	mov	r5, r1
   10ce2:	b091      	sub	sp, #68	; 0x44
   10ce4:	4617      	mov	r7, r2
   10ce6:	4604      	mov	r4, r0
   10ce8:	b180      	cbz	r0, 10d0c <Hash_DRBG_Reseed+0x2e>
   10cea:	2237      	movs	r2, #55	; 0x37
   10cec:	2100      	movs	r1, #0
   10cee:	a802      	add	r0, sp, #8
   10cf0:	f104 0608 	add.w	r6, r4, #8
   10cf4:	f7ff ebb8 	blx	10468 <memset@plt>
   10cf8:	2337      	movs	r3, #55	; 0x37
   10cfa:	4632      	mov	r2, r6
   10cfc:	e9cd 5700 	strd	r5, r7, [sp]
   10d00:	2101      	movs	r1, #1
   10d02:	a802      	add	r0, sp, #8
   10d04:	f7ff ff46 	bl	10b94 <Hash_df.constprop.0>
   10d08:	4605      	mov	r5, r0
   10d0a:	b108      	cbz	r0, 10d10 <Hash_DRBG_Reseed+0x32>
   10d0c:	2001      	movs	r0, #1
   10d0e:	e018      	b.n	10d42 <Hash_DRBG_Reseed+0x64>
   10d10:	2237      	movs	r2, #55	; 0x37
   10d12:	a902      	add	r1, sp, #8
   10d14:	4630      	mov	r0, r6
   10d16:	f7ff eb8a 	blx	1042c <memcpy@plt>
   10d1a:	2137      	movs	r1, #55	; 0x37
   10d1c:	a802      	add	r0, sp, #8
   10d1e:	f7ff fe1d 	bl	1095c <ForceZero>
   10d22:	4632      	mov	r2, r6
   10d24:	2337      	movs	r3, #55	; 0x37
   10d26:	e9cd 5500 	strd	r5, r5, [sp]
   10d2a:	4629      	mov	r1, r5
   10d2c:	f104 003f 	add.w	r0, r4, #63	; 0x3f
   10d30:	f7ff ff30 	bl	10b94 <Hash_df.constprop.0>
   10d34:	2800      	cmp	r0, #0
   10d36:	d1e9      	bne.n	10d0c <Hash_DRBG_Reseed+0x2e>
   10d38:	2301      	movs	r3, #1
   10d3a:	e9c4 3000 	strd	r3, r0, [r4]
   10d3e:	f884 0076 	strb.w	r0, [r4, #118]	; 0x76
   10d42:	b011      	add	sp, #68	; 0x44
   10d44:	bdf0      	pop	{r4, r5, r6, r7, pc}

00010d46 <wc_RNG_TestSeed>:
   10d46:	e92d 41f0 	stmdb	sp!, {r4, r5, r6, r7, r8, lr}
   10d4a:	f1a1 0804 	sub.w	r8, r1, #4
   10d4e:	2400      	movs	r4, #0
   10d50:	4642      	mov	r2, r8
   10d52:	4605      	mov	r5, r0
   10d54:	2a04      	cmp	r2, #4
   10d56:	460e      	mov	r6, r1
   10d58:	bf28      	it	cs
   10d5a:	2204      	movcs	r2, #4
   10d5c:	4627      	mov	r7, r4
   10d5e:	45a0      	cmp	r8, r4
   10d60:	d802      	bhi.n	10d68 <wc_RNG_TestSeed+0x22>
   10d62:	4638      	mov	r0, r7
   10d64:	e8bd 81f0 	ldmia.w	sp!, {r4, r5, r6, r7, r8, pc}
   10d68:	18a1      	adds	r1, r4, r2
   10d6a:	1928      	adds	r0, r5, r4
   10d6c:	4429      	add	r1, r5
   10d6e:	3404      	adds	r4, #4
   10d70:	f7ff fdfc 	bl	1096c <ConstantCompare>
   10d74:	2800      	cmp	r0, #0
   10d76:	eba6 0204 	sub.w	r2, r6, r4
   10d7a:	bf08      	it	eq
   10d7c:	2703      	moveq	r7, #3
   10d7e:	2a04      	cmp	r2, #4
   10d80:	bf28      	it	cs
   10d82:	2204      	movcs	r2, #4
   10d84:	e7eb      	b.n	10d5e <wc_RNG_TestSeed+0x18>

00010d86 <wc_RNG_HealthTest_ex>:
   10d86:	e92d 47f3 	stmdb	sp!, {r0, r1, r4, r5, r6, r7, r8, r9, sl, lr}
   10d8a:	4604      	mov	r4, r0
   10d8c:	4688      	mov	r8, r1
   10d8e:	4691      	mov	r9, r2
   10d90:	461e      	mov	r6, r3
   10d92:	f8dd a02c 	ldr.w	sl, [sp, #44]	; 0x2c
   10d96:	9f0d      	ldr	r7, [sp, #52]	; 0x34
   10d98:	2b00      	cmp	r3, #0
   10d9a:	d040      	beq.n	10e1e <wc_RNG_HealthTest_ex+0x98>
   10d9c:	2f00      	cmp	r7, #0
   10d9e:	d03e      	beq.n	10e1e <wc_RNG_HealthTest_ex+0x98>
   10da0:	b110      	cbz	r0, 10da8 <wc_RNG_HealthTest_ex+0x22>
   10da2:	f1ba 0f00 	cmp.w	sl, #0
   10da6:	d03a      	beq.n	10e1e <wc_RNG_HealthTest_ex+0x98>
   10da8:	9b0e      	ldr	r3, [sp, #56]	; 0x38
   10daa:	2b80      	cmp	r3, #128	; 0x80
   10dac:	d13a      	bne.n	10e24 <wc_RNG_HealthTest_ex+0x9e>
   10dae:	2078      	movs	r0, #120	; 0x78
   10db0:	f7ff eb48 	blx	10444 <malloc@plt>
   10db4:	4605      	mov	r5, r0
   10db6:	2800      	cmp	r0, #0
   10db8:	d037      	beq.n	10e2a <wc_RNG_HealthTest_ex+0xa4>
   10dba:	4643      	mov	r3, r8
   10dbc:	4631      	mov	r1, r6
   10dbe:	f8cd 9000 	str.w	r9, [sp]
   10dc2:	9a0a      	ldr	r2, [sp, #40]	; 0x28
   10dc4:	f7ff ff60 	bl	10c88 <Hash_DRBG_Instantiate.constprop.0>
   10dc8:	b178      	cbz	r0, 10dea <wc_RNG_HealthTest_ex+0x64>
   10dca:	f04f 34ff 	mov.w	r4, #4294967295
   10dce:	4628      	mov	r0, r5
   10dd0:	f7ff fdd9 	bl	10986 <Hash_DRBG_Uninstantiate>
   10dd4:	2800      	cmp	r0, #0
   10dd6:	4628      	mov	r0, r5
   10dd8:	bf18      	it	ne
   10dda:	f04f 34ff 	movne.w	r4, #4294967295
   10dde:	f7ff eb1a 	blx	10414 <free@plt>
   10de2:	4620      	mov	r0, r4
   10de4:	b002      	add	sp, #8
   10de6:	e8bd 87f0 	ldmia.w	sp!, {r4, r5, r6, r7, r8, r9, sl, pc}
   10dea:	b984      	cbnz	r4, 10e0e <wc_RNG_HealthTest_ex+0x88>
   10dec:	2280      	movs	r2, #128	; 0x80
   10dee:	4639      	mov	r1, r7
   10df0:	4628      	mov	r0, r5
   10df2:	f7ff fdfd 	bl	109f0 <Hash_DRBG_Generate>
   10df6:	2800      	cmp	r0, #0
   10df8:	d1e7      	bne.n	10dca <wc_RNG_HealthTest_ex+0x44>
   10dfa:	2280      	movs	r2, #128	; 0x80
   10dfc:	4639      	mov	r1, r7
   10dfe:	4628      	mov	r0, r5
   10e00:	f7ff fdf6 	bl	109f0 <Hash_DRBG_Generate>
   10e04:	1e04      	subs	r4, r0, #0
   10e06:	bf18      	it	ne
   10e08:	2401      	movne	r4, #1
   10e0a:	4264      	negs	r4, r4
   10e0c:	e7df      	b.n	10dce <wc_RNG_HealthTest_ex+0x48>
   10e0e:	4651      	mov	r1, sl
   10e10:	4628      	mov	r0, r5
   10e12:	9a0c      	ldr	r2, [sp, #48]	; 0x30
   10e14:	f7ff ff63 	bl	10cde <Hash_DRBG_Reseed>
   10e18:	2800      	cmp	r0, #0
   10e1a:	d0e7      	beq.n	10dec <wc_RNG_HealthTest_ex+0x66>
   10e1c:	e7d5      	b.n	10dca <wc_RNG_HealthTest_ex+0x44>
   10e1e:	f06f 04ac 	mvn.w	r4, #172	; 0xac
   10e22:	e7de      	b.n	10de2 <wc_RNG_HealthTest_ex+0x5c>
   10e24:	f04f 34ff 	mov.w	r4, #4294967295
   10e28:	e7db      	b.n	10de2 <wc_RNG_HealthTest_ex+0x5c>
   10e2a:	f06f 047c 	mvn.w	r4, #124	; 0x7c
   10e2e:	e7d8      	b.n	10de2 <wc_RNG_HealthTest_ex+0x5c>

00010e30 <wc_RNG_HealthTest>:
   10e30:	b530      	push	{r4, r5, lr}
   10e32:	b089      	sub	sp, #36	; 0x24
   10e34:	f06f 0401 	mvn.w	r4, #1
   10e38:	9d0e      	ldr	r5, [sp, #56]	; 0x38
   10e3a:	e9cd 2300 	strd	r2, r3, [sp]
   10e3e:	460b      	mov	r3, r1
   10e40:	9406      	str	r4, [sp, #24]
   10e42:	2400      	movs	r4, #0
   10e44:	4622      	mov	r2, r4
   10e46:	4621      	mov	r1, r4
   10e48:	9504      	str	r5, [sp, #16]
   10e4a:	9d0d      	ldr	r5, [sp, #52]	; 0x34
   10e4c:	9405      	str	r4, [sp, #20]
   10e4e:	9503      	str	r5, [sp, #12]
   10e50:	9d0c      	ldr	r5, [sp, #48]	; 0x30
   10e52:	9502      	str	r5, [sp, #8]
   10e54:	f7ff ff97 	bl	10d86 <wc_RNG_HealthTest_ex>
   10e58:	b009      	add	sp, #36	; 0x24
   10e5a:	bd30      	pop	{r4, r5, pc}

00010e5c <wc_GenerateSeed>:
   10e5c:	e92d 41f0 	stmdb	sp!, {r4, r5, r6, r7, r8, lr}
   10e60:	460e      	mov	r6, r1
   10e62:	4615      	mov	r5, r2
   10e64:	2400      	movs	r4, #0
   10e66:	42ac      	cmp	r4, r5
   10e68:	d302      	bcc.n	10e70 <wc_GenerateSeed+0x14>
   10e6a:	2000      	movs	r0, #0
   10e6c:	e8bd 81f0 	ldmia.w	sp!, {r4, r5, r6, r7, r8, pc}
   10e70:	1d27      	adds	r7, r4, #4
   10e72:	eb06 0804 	add.w	r8, r6, r4
   10e76:	42af      	cmp	r7, r5
   10e78:	d802      	bhi.n	10e80 <wc_GenerateSeed+0x24>
   10e7a:	f018 0f03 	tst.w	r8, #3
   10e7e:	d006      	beq.n	10e8e <wc_GenerateSeed+0x32>
   10e80:	1c67      	adds	r7, r4, #1
   10e82:	f7ff fd65 	bl	10950 <my_rng_seed_gen>
   10e86:	f888 0000 	strb.w	r0, [r8]
   10e8a:	463c      	mov	r4, r7
   10e8c:	e7eb      	b.n	10e66 <wc_GenerateSeed+0xa>
   10e8e:	f7ff fd5f 	bl	10950 <my_rng_seed_gen>
   10e92:	f8c8 0000 	str.w	r0, [r8]
   10e96:	e7f8      	b.n	10e8a <wc_GenerateSeed+0x2e>

00010e98 <wc_RNG_GenerateBlock>:
   10e98:	e92d 47f0 	stmdb	sp!, {r4, r5, r6, r7, r8, r9, sl, lr}
   10e9c:	460f      	mov	r7, r1
   10e9e:	b08e      	sub	sp, #56	; 0x38
   10ea0:	4616      	mov	r6, r2
   10ea2:	4605      	mov	r5, r0
   10ea4:	2800      	cmp	r0, #0
   10ea6:	d063      	beq.n	10f70 <wc_RNG_GenerateBlock+0xd8>
   10ea8:	2900      	cmp	r1, #0
   10eaa:	d061      	beq.n	10f70 <wc_RNG_GenerateBlock+0xd8>
   10eac:	b91a      	cbnz	r2, 10eb6 <wc_RNG_GenerateBlock+0x1e>
   10eae:	2000      	movs	r0, #0
   10eb0:	b00e      	add	sp, #56	; 0x38
   10eb2:	e8bd 87f0 	ldmia.w	sp!, {r4, r5, r6, r7, r8, r9, sl, pc}
   10eb6:	f5b2 3f80 	cmp.w	r2, #65536	; 0x10000
   10eba:	d859      	bhi.n	10f70 <wc_RNG_GenerateBlock+0xd8>
   10ebc:	f890 a00c 	ldrb.w	sl, [r0, #12]
   10ec0:	f1ba 0f01 	cmp.w	sl, #1
   10ec4:	d14f      	bne.n	10f66 <wc_RNG_GenerateBlock+0xce>
   10ec6:	6880      	ldr	r0, [r0, #8]
   10ec8:	f7ff fd92 	bl	109f0 <Hash_DRBG_Generate>
   10ecc:	2802      	cmp	r0, #2
   10ece:	4604      	mov	r4, r0
   10ed0:	d143      	bne.n	10f5a <wc_RNG_GenerateBlock+0xc2>
   10ed2:	2080      	movs	r0, #128	; 0x80
   10ed4:	f7ff eab6 	blx	10444 <malloc@plt>
   10ed8:	4680      	mov	r8, r0
   10eda:	b920      	cbnz	r0, 10ee6 <wc_RNG_GenerateBlock+0x4e>
   10edc:	2303      	movs	r3, #3
   10ede:	f06f 00d0 	mvn.w	r0, #208	; 0xd0
   10ee2:	732b      	strb	r3, [r5, #12]
   10ee4:	e7e4      	b.n	10eb0 <wc_RNG_GenerateBlock+0x18>
   10ee6:	2320      	movs	r3, #32
   10ee8:	f04f 0980 	mov.w	r9, #128	; 0x80
   10eec:	4922      	ldr	r1, [pc, #136]	; (10f78 <wc_RNG_GenerateBlock+0xe0>)
   10eee:	2230      	movs	r2, #48	; 0x30
   10ef0:	4650      	mov	r0, sl
   10ef2:	e9cd 3800 	strd	r3, r8, [sp]
   10ef6:	4b21      	ldr	r3, [pc, #132]	; (10f7c <wc_RNG_GenerateBlock+0xe4>)
   10ef8:	f8cd 9008 	str.w	r9, [sp, #8]
   10efc:	f7ff ff98 	bl	10e30 <wc_RNG_HealthTest>
   10f00:	4604      	mov	r4, r0
   10f02:	b940      	cbnz	r0, 10f16 <wc_RNG_GenerateBlock+0x7e>
   10f04:	491e      	ldr	r1, [pc, #120]	; (10f80 <wc_RNG_GenerateBlock+0xe8>)
   10f06:	464a      	mov	r2, r9
   10f08:	4640      	mov	r0, r8
   10f0a:	f7ff fd2f 	bl	1096c <ConstantCompare>
   10f0e:	1e04      	subs	r4, r0, #0
   10f10:	bf18      	it	ne
   10f12:	2401      	movne	r4, #1
   10f14:	4264      	negs	r4, r4
   10f16:	4640      	mov	r0, r8
   10f18:	f7ff ea7c 	blx	10414 <free@plt>
   10f1c:	2c00      	cmp	r4, #0
   10f1e:	d1dd      	bne.n	10edc <wc_RNG_GenerateBlock+0x44>
   10f20:	2224      	movs	r2, #36	; 0x24
   10f22:	a905      	add	r1, sp, #20
   10f24:	4628      	mov	r0, r5
   10f26:	f7ff ff99 	bl	10e5c <wc_GenerateSeed>
   10f2a:	b9f8      	cbnz	r0, 10f6c <wc_RNG_GenerateBlock+0xd4>
   10f2c:	2124      	movs	r1, #36	; 0x24
   10f2e:	a805      	add	r0, sp, #20
   10f30:	f7ff ff09 	bl	10d46 <wc_RNG_TestSeed>
   10f34:	4604      	mov	r4, r0
   10f36:	b960      	cbnz	r0, 10f52 <wc_RNG_GenerateBlock+0xba>
   10f38:	2220      	movs	r2, #32
   10f3a:	a906      	add	r1, sp, #24
   10f3c:	68a8      	ldr	r0, [r5, #8]
   10f3e:	f7ff fece 	bl	10cde <Hash_DRBG_Reseed>
   10f42:	4604      	mov	r4, r0
   10f44:	b928      	cbnz	r0, 10f52 <wc_RNG_GenerateBlock+0xba>
   10f46:	4632      	mov	r2, r6
   10f48:	4639      	mov	r1, r7
   10f4a:	68a8      	ldr	r0, [r5, #8]
   10f4c:	f7ff fd50 	bl	109f0 <Hash_DRBG_Generate>
   10f50:	4604      	mov	r4, r0
   10f52:	2124      	movs	r1, #36	; 0x24
   10f54:	a805      	add	r0, sp, #20
   10f56:	f7ff fd01 	bl	1095c <ForceZero>
   10f5a:	2c00      	cmp	r4, #0
   10f5c:	d0a7      	beq.n	10eae <wc_RNG_GenerateBlock+0x16>
   10f5e:	2c03      	cmp	r4, #3
   10f60:	d0bc      	beq.n	10edc <wc_RNG_GenerateBlock+0x44>
   10f62:	2302      	movs	r3, #2
   10f64:	732b      	strb	r3, [r5, #12]
   10f66:	f06f 00c6 	mvn.w	r0, #198	; 0xc6
   10f6a:	e7a1      	b.n	10eb0 <wc_RNG_GenerateBlock+0x18>
   10f6c:	2401      	movs	r4, #1
   10f6e:	e7f0      	b.n	10f52 <wc_RNG_GenerateBlock+0xba>
   10f70:	f06f 00ac 	mvn.w	r0, #172	; 0xac
   10f74:	e79c      	b.n	10eb0 <wc_RNG_GenerateBlock+0x18>
   10f76:	bf00      	nop
   10f78:	0001cbc4 	.word	0x0001cbc4
   10f7c:	0001cba4 	.word	0x0001cba4
   10f80:	0001caa4 	.word	0x0001caa4

00010f84 <_InitRng.isra.0>:
   10f84:	e92d 47f0 	stmdb	sp!, {r4, r5, r6, r7, r8, r9, sl, lr}
   10f88:	4688      	mov	r8, r1
   10f8a:	b096      	sub	sp, #88	; 0x58
   10f8c:	4616      	mov	r6, r2
   10f8e:	4605      	mov	r5, r0
   10f90:	2800      	cmp	r0, #0
   10f92:	f000 808c 	beq.w	110ae <_InitRng.isra.0+0x12a>
   10f96:	b911      	cbnz	r1, 10f9e <_InitRng.isra.0+0x1a>
   10f98:	2a00      	cmp	r2, #0
   10f9a:	f040 8088 	bne.w	110ae <_InitRng.isra.0+0x12a>
   10f9e:	2400      	movs	r4, #0
   10fa0:	2080      	movs	r0, #128	; 0x80
   10fa2:	42a6      	cmp	r6, r4
   10fa4:	e9c5 3401 	strd	r3, r4, [r5, #4]
   10fa8:	bf14      	ite	ne
   10faa:	2724      	movne	r7, #36	; 0x24
   10fac:	2734      	moveq	r7, #52	; 0x34
   10fae:	732c      	strb	r4, [r5, #12]
   10fb0:	f7ff ea48 	blx	10444 <malloc@plt>
   10fb4:	4681      	mov	r9, r0
   10fb6:	b938      	cbnz	r0, 10fc8 <_InitRng.isra.0+0x44>
   10fb8:	2303      	movs	r3, #3
   10fba:	f06f 04d0 	mvn.w	r4, #208	; 0xd0
   10fbe:	732b      	strb	r3, [r5, #12]
   10fc0:	4620      	mov	r0, r4
   10fc2:	b016      	add	sp, #88	; 0x58
   10fc4:	e8bd 87f0 	ldmia.w	sp!, {r4, r5, r6, r7, r8, r9, sl, pc}
   10fc8:	f04f 0a80 	mov.w	sl, #128	; 0x80
   10fcc:	4623      	mov	r3, r4
   10fce:	4939      	ldr	r1, [pc, #228]	; (110b4 <_InitRng.isra.0+0x130>)
   10fd0:	4620      	mov	r0, r4
   10fd2:	2230      	movs	r2, #48	; 0x30
   10fd4:	e9cd 4900 	strd	r4, r9, [sp]
   10fd8:	f8cd a008 	str.w	sl, [sp, #8]
   10fdc:	f7ff ff28 	bl	10e30 <wc_RNG_HealthTest>
   10fe0:	4604      	mov	r4, r0
   10fe2:	bb00      	cbnz	r0, 11026 <_InitRng.isra.0+0xa2>
   10fe4:	4934      	ldr	r1, [pc, #208]	; (110b8 <_InitRng.isra.0+0x134>)
   10fe6:	4652      	mov	r2, sl
   10fe8:	4648      	mov	r0, r9
   10fea:	f7ff fcbf 	bl	1096c <ConstantCompare>
   10fee:	bba0      	cbnz	r0, 1105a <_InitRng.isra.0+0xd6>
   10ff0:	f06f 0301 	mvn.w	r3, #1
   10ff4:	2210      	movs	r2, #16
   10ff6:	e9cd 4401 	strd	r4, r4, [sp, #4]
   10ffa:	e9cd 9a03 	strd	r9, sl, [sp, #12]
   10ffe:	e9cd 4305 	strd	r4, r3, [sp, #20]
   11002:	2320      	movs	r3, #32
   11004:	9300      	str	r3, [sp, #0]
   11006:	4b2b      	ldr	r3, [pc, #172]	; (110b4 <_InitRng.isra.0+0x130>)
   11008:	f103 0120 	add.w	r1, r3, #32
   1100c:	f7ff febb 	bl	10d86 <wc_RNG_HealthTest_ex>
   11010:	4604      	mov	r4, r0
   11012:	b940      	cbnz	r0, 11026 <_InitRng.isra.0+0xa2>
   11014:	4928      	ldr	r1, [pc, #160]	; (110b8 <_InitRng.isra.0+0x134>)
   11016:	4652      	mov	r2, sl
   11018:	4648      	mov	r0, r9
   1101a:	f7ff fca7 	bl	1096c <ConstantCompare>
   1101e:	1e04      	subs	r4, r0, #0
   11020:	bf18      	it	ne
   11022:	2401      	movne	r4, #1
   11024:	4264      	negs	r4, r4
   11026:	4648      	mov	r0, r9
   11028:	f7ff e9f4 	blx	10414 <free@plt>
   1102c:	2c00      	cmp	r4, #0
   1102e:	d1c3      	bne.n	10fb8 <_InitRng.isra.0+0x34>
   11030:	2078      	movs	r0, #120	; 0x78
   11032:	f7ff ea08 	blx	10444 <malloc@plt>
   11036:	60a8      	str	r0, [r5, #8]
   11038:	b190      	cbz	r0, 11060 <_InitRng.isra.0+0xdc>
   1103a:	463a      	mov	r2, r7
   1103c:	a909      	add	r1, sp, #36	; 0x24
   1103e:	4628      	mov	r0, r5
   11040:	f7ff ff0c 	bl	10e5c <wc_GenerateSeed>
   11044:	b1c0      	cbz	r0, 11078 <_InitRng.isra.0+0xf4>
   11046:	2302      	movs	r3, #2
   11048:	2401      	movs	r4, #1
   1104a:	732b      	strb	r3, [r5, #12]
   1104c:	68a8      	ldr	r0, [r5, #8]
   1104e:	b108      	cbz	r0, 11054 <_InitRng.isra.0+0xd0>
   11050:	f7ff e9e0 	blx	10414 <free@plt>
   11054:	2300      	movs	r3, #0
   11056:	60ab      	str	r3, [r5, #8]
   11058:	e006      	b.n	11068 <_InitRng.isra.0+0xe4>
   1105a:	f04f 34ff 	mov.w	r4, #4294967295
   1105e:	e7e2      	b.n	11026 <_InitRng.isra.0+0xa2>
   11060:	2302      	movs	r3, #2
   11062:	f06f 047c 	mvn.w	r4, #124	; 0x7c
   11066:	732b      	strb	r3, [r5, #12]
   11068:	4639      	mov	r1, r7
   1106a:	a809      	add	r0, sp, #36	; 0x24
   1106c:	f7ff fc76 	bl	1095c <ForceZero>
   11070:	b9a4      	cbnz	r4, 1109c <_InitRng.isra.0+0x118>
   11072:	2301      	movs	r3, #1
   11074:	732b      	strb	r3, [r5, #12]
   11076:	e7a3      	b.n	10fc0 <_InitRng.isra.0+0x3c>
   11078:	4639      	mov	r1, r7
   1107a:	a809      	add	r0, sp, #36	; 0x24
   1107c:	f7ff fe63 	bl	10d46 <wc_RNG_TestSeed>
   11080:	4604      	mov	r4, r0
   11082:	2800      	cmp	r0, #0
   11084:	d1e2      	bne.n	1104c <_InitRng.isra.0+0xc8>
   11086:	4643      	mov	r3, r8
   11088:	1f3a      	subs	r2, r7, #4
   1108a:	9600      	str	r6, [sp, #0]
   1108c:	a90a      	add	r1, sp, #40	; 0x28
   1108e:	68a8      	ldr	r0, [r5, #8]
   11090:	f7ff fdfa 	bl	10c88 <Hash_DRBG_Instantiate.constprop.0>
   11094:	4604      	mov	r4, r0
   11096:	2800      	cmp	r0, #0
   11098:	d0e6      	beq.n	11068 <_InitRng.isra.0+0xe4>
   1109a:	e7d7      	b.n	1104c <_InitRng.isra.0+0xc8>
   1109c:	2c03      	cmp	r4, #3
   1109e:	d08b      	beq.n	10fb8 <_InitRng.isra.0+0x34>
   110a0:	2302      	movs	r3, #2
   110a2:	2c01      	cmp	r4, #1
   110a4:	732b      	strb	r3, [r5, #12]
   110a6:	d18b      	bne.n	10fc0 <_InitRng.isra.0+0x3c>
   110a8:	f06f 04c6 	mvn.w	r4, #198	; 0xc6
   110ac:	e788      	b.n	10fc0 <_InitRng.isra.0+0x3c>
   110ae:	f06f 04ac 	mvn.w	r4, #172	; 0xac
   110b2:	e785      	b.n	10fc0 <_InitRng.isra.0+0x3c>
   110b4:	0001cbf4 	.word	0x0001cbf4
   110b8:	0001cb24 	.word	0x0001cb24

000110bc <wc_InitRng>:
   110bc:	2300      	movs	r3, #0
   110be:	461a      	mov	r2, r3
   110c0:	4619      	mov	r1, r3
   110c2:	f7ff bf5f 	b.w	10f84 <_InitRng.isra.0>

000110c6 <ctMaskNotEq>:
   110c6:	1e4b      	subs	r3, r1, #1
   110c8:	1a1b      	subs	r3, r3, r0
   110ca:	1a40      	subs	r0, r0, r1
   110cc:	3801      	subs	r0, #1
   110ce:	0fdb      	lsrs	r3, r3, #31
   110d0:	0fc0      	lsrs	r0, r0, #31
   110d2:	3b01      	subs	r3, #1
   110d4:	3801      	subs	r0, #1
   110d6:	4318      	orrs	r0, r3
   110d8:	b2c0      	uxtb	r0, r0
   110da:	4770      	bx	lr

000110dc <wc_RsaCleanup>:
   110dc:	b510      	push	{r4, lr}
   110de:	b1b8      	cbz	r0, 11110 <wc_RsaCleanup+0x34>
   110e0:	f500 5480 	add.w	r4, r0, #4096	; 0x1000
   110e4:	f8d4 3884 	ldr.w	r3, [r4, #2180]	; 0x884
   110e8:	b193      	cbz	r3, 11110 <wc_RsaCleanup+0x34>
   110ea:	f894 2898 	ldrb.w	r2, [r4, #2200]	; 0x898
   110ee:	b152      	cbz	r2, 11106 <wc_RsaCleanup+0x2a>
   110f0:	f8d4 2888 	ldr.w	r2, [r4, #2184]	; 0x888
   110f4:	3a02      	subs	r2, #2
   110f6:	2a01      	cmp	r2, #1
   110f8:	d90b      	bls.n	11112 <wc_RsaCleanup+0x36>
   110fa:	f8d4 0884 	ldr.w	r0, [r4, #2180]	; 0x884
   110fe:	b988      	cbnz	r0, 11124 <wc_RsaCleanup+0x48>
   11100:	2300      	movs	r3, #0
   11102:	f884 3898 	strb.w	r3, [r4, #2200]	; 0x898
   11106:	2300      	movs	r3, #0
   11108:	f8c4 3884 	str.w	r3, [r4, #2180]	; 0x884
   1110c:	f8c4 3890 	str.w	r3, [r4, #2192]	; 0x890
   11110:	bd10      	pop	{r4, pc}
   11112:	f8d4 2890 	ldr.w	r2, [r4, #2192]	; 0x890
   11116:	2100      	movs	r1, #0
   11118:	441a      	add	r2, r3
   1111a:	429a      	cmp	r2, r3
   1111c:	d0ed      	beq.n	110fa <wc_RsaCleanup+0x1e>
   1111e:	f803 1b01 	strb.w	r1, [r3], #1
   11122:	e7fa      	b.n	1111a <wc_RsaCleanup+0x3e>
   11124:	f7ff e976 	blx	10414 <free@plt>
   11128:	e7ea      	b.n	11100 <wc_RsaCleanup+0x24>
	...

0001112c <_CheckProbablePrime>:
   1112c:	e92d 4ff7 	stmdb	sp!, {r0, r1, r2, r4, r5, r6, r7, r8, r9, sl, fp, lr}
   11130:	4688      	mov	r8, r1
   11132:	4692      	mov	sl, r2
   11134:	461f      	mov	r7, r3
   11136:	4604      	mov	r4, r0
   11138:	f8dd 9030 	ldr.w	r9, [sp, #48]	; 0x30
   1113c:	2800      	cmp	r0, #0
   1113e:	f000 80ac 	beq.w	1129a <_CheckProbablePrime+0x16e>
   11142:	2a00      	cmp	r2, #0
   11144:	f000 80a9 	beq.w	1129a <_CheckProbablePrime+0x16e>
   11148:	f1b9 0f00 	cmp.w	r9, #0
   1114c:	f000 80a5 	beq.w	1129a <_CheckProbablePrime+0x16e>
   11150:	f5a3 7300 	sub.w	r3, r3, #512	; 0x200
   11154:	f5b3 6f60 	cmp.w	r3, #3584	; 0xe00
   11158:	f200 809f 	bhi.w	1129a <_CheckProbablePrime+0x16e>
   1115c:	f04f 0b00 	mov.w	fp, #0
   11160:	f8c9 b000 	str.w	fp, [r9]
   11164:	2900      	cmp	r1, #0
   11166:	d041      	beq.n	111ec <_CheckProbablePrime+0xc0>
   11168:	f44f 7044 	mov.w	r0, #784	; 0x310
   1116c:	f7ff e96a 	blx	10444 <malloc@plt>
   11170:	4605      	mov	r5, r0
   11172:	2800      	cmp	r0, #0
   11174:	f000 8094 	beq.w	112a0 <_CheckProbablePrime+0x174>
   11178:	f44f 7044 	mov.w	r0, #784	; 0x310
   1117c:	f7ff e962 	blx	10444 <malloc@plt>
   11180:	4606      	mov	r6, r0
   11182:	2800      	cmp	r0, #0
   11184:	f000 8083 	beq.w	1128e <_CheckProbablePrime+0x162>
   11188:	465b      	mov	r3, fp
   1118a:	465a      	mov	r2, fp
   1118c:	e9cd bb00 	strd	fp, fp, [sp]
   11190:	4601      	mov	r1, r0
   11192:	4628      	mov	r0, r5
   11194:	f009 ff9d 	bl	1b0d2 <sp_init_multi>
   11198:	4683      	mov	fp, r0
   1119a:	b990      	cbnz	r0, 111c2 <_CheckProbablePrime+0x96>
   1119c:	1079      	asrs	r1, r7, #1
   1119e:	4628      	mov	r0, r5
   111a0:	3964      	subs	r1, #100	; 0x64
   111a2:	f00a f85b 	bl	1b25c <sp_2expt>
   111a6:	4683      	mov	fp, r0
   111a8:	b958      	cbnz	r0, 111c2 <_CheckProbablePrime+0x96>
   111aa:	4632      	mov	r2, r6
   111ac:	4641      	mov	r1, r8
   111ae:	4620      	mov	r0, r4
   111b0:	f00a f8e5 	bl	1b37e <sp_sub>
   111b4:	4683      	mov	fp, r0
   111b6:	b920      	cbnz	r0, 111c2 <_CheckProbablePrime+0x96>
   111b8:	4629      	mov	r1, r5
   111ba:	4630      	mov	r0, r6
   111bc:	f009 fffe 	bl	1b1bc <sp_cmp>
   111c0:	4683      	mov	fp, r0
   111c2:	f1bb 0f01 	cmp.w	fp, #1
   111c6:	4630      	mov	r0, r6
   111c8:	bf08      	it	eq
   111ca:	f04f 0b00 	moveq.w	fp, #0
   111ce:	f009 ffbe 	bl	1b14e <sp_clear>
   111d2:	4630      	mov	r0, r6
   111d4:	f7ff e91e 	blx	10414 <free@plt>
   111d8:	4628      	mov	r0, r5
   111da:	f009 ffb8 	bl	1b14e <sp_clear>
   111de:	4628      	mov	r0, r5
   111e0:	f7ff e918 	blx	10414 <free@plt>
   111e4:	f1bb 0f00 	cmp.w	fp, #0
   111e8:	d14d      	bne.n	11286 <_CheckProbablePrime+0x15a>
   111ea:	4644      	mov	r4, r8
   111ec:	f44f 7044 	mov.w	r0, #784	; 0x310
   111f0:	f7ff e928 	blx	10444 <malloc@plt>
   111f4:	4605      	mov	r5, r0
   111f6:	2800      	cmp	r0, #0
   111f8:	d052      	beq.n	112a0 <_CheckProbablePrime+0x174>
   111fa:	f44f 7044 	mov.w	r0, #784	; 0x310
   111fe:	f7ff e922 	blx	10444 <malloc@plt>
   11202:	4606      	mov	r6, r0
   11204:	2800      	cmp	r0, #0
   11206:	d04e      	beq.n	112a6 <_CheckProbablePrime+0x17a>
   11208:	2300      	movs	r3, #0
   1120a:	4601      	mov	r1, r0
   1120c:	461a      	mov	r2, r3
   1120e:	4628      	mov	r0, r5
   11210:	e9cd 3300 	strd	r3, r3, [sp]
   11214:	f009 ff5d 	bl	1b0d2 <sp_init_multi>
   11218:	4683      	mov	fp, r0
   1121a:	bb38      	cbnz	r0, 1126c <_CheckProbablePrime+0x140>
   1121c:	4923      	ldr	r1, [pc, #140]	; (112ac <_CheckProbablePrime+0x180>)
   1121e:	113a      	asrs	r2, r7, #4
   11220:	4628      	mov	r0, r5
   11222:	f00a fefb 	bl	1c01c <sp_read_unsigned_bin>
   11226:	4683      	mov	fp, r0
   11228:	bb00      	cbnz	r0, 1126c <_CheckProbablePrime+0x140>
   1122a:	4629      	mov	r1, r5
   1122c:	4620      	mov	r0, r4
   1122e:	f009 ffc5 	bl	1b1bc <sp_cmp>
   11232:	3001      	adds	r0, #1
   11234:	d01a      	beq.n	1126c <_CheckProbablePrime+0x140>
   11236:	462a      	mov	r2, r5
   11238:	2101      	movs	r1, #1
   1123a:	4620      	mov	r0, r4
   1123c:	f00a f884 	bl	1b348 <sp_sub_d>
   11240:	4683      	mov	fp, r0
   11242:	b998      	cbnz	r0, 1126c <_CheckProbablePrime+0x140>
   11244:	4632      	mov	r2, r6
   11246:	4651      	mov	r1, sl
   11248:	4628      	mov	r0, r5
   1124a:	f00b f907 	bl	1c45c <sp_gcd>
   1124e:	4683      	mov	fp, r0
   11250:	b960      	cbnz	r0, 1126c <_CheckProbablePrime+0x140>
   11252:	2101      	movs	r1, #1
   11254:	4630      	mov	r0, r6
   11256:	f00a f820 	bl	1b29a <sp_cmp_d>
   1125a:	b938      	cbnz	r0, 1126c <_CheckProbablePrime+0x140>
   1125c:	9b0d      	ldr	r3, [sp, #52]	; 0x34
   1125e:	464a      	mov	r2, r9
   11260:	2108      	movs	r1, #8
   11262:	4620      	mov	r0, r4
   11264:	b1b3      	cbz	r3, 11294 <_CheckProbablePrime+0x168>
   11266:	f00a ffe7 	bl	1c238 <sp_prime_is_prime_ex>
   1126a:	4683      	mov	fp, r0
   1126c:	4628      	mov	r0, r5
   1126e:	f009 ff6e 	bl	1b14e <sp_clear>
   11272:	4628      	mov	r0, r5
   11274:	f7ff e8ce 	blx	10414 <free@plt>
   11278:	b12e      	cbz	r6, 11286 <_CheckProbablePrime+0x15a>
   1127a:	4630      	mov	r0, r6
   1127c:	f009 ff67 	bl	1b14e <sp_clear>
   11280:	4630      	mov	r0, r6
   11282:	f7ff e8c8 	blx	10414 <free@plt>
   11286:	4658      	mov	r0, fp
   11288:	b003      	add	sp, #12
   1128a:	e8bd 8ff0 	ldmia.w	sp!, {r4, r5, r6, r7, r8, r9, sl, fp, pc}
   1128e:	f06f 0b7c 	mvn.w	fp, #124	; 0x7c
   11292:	e7a1      	b.n	111d8 <_CheckProbablePrime+0xac>
   11294:	f00a ff14 	bl	1c0c0 <sp_prime_is_prime>
   11298:	e7e7      	b.n	1126a <_CheckProbablePrime+0x13e>
   1129a:	f06f 0bac 	mvn.w	fp, #172	; 0xac
   1129e:	e7f2      	b.n	11286 <_CheckProbablePrime+0x15a>
   112a0:	f06f 0b7c 	mvn.w	fp, #124	; 0x7c
   112a4:	e7ef      	b.n	11286 <_CheckProbablePrime+0x15a>
   112a6:	f06f 0b7c 	mvn.w	fp, #124	; 0x7c
   112aa:	e7df      	b.n	1126c <_CheckProbablePrime+0x140>
   112ac:	0001cc43 	.word	0x0001cc43

000112b0 <RsaMGF1.constprop.0>:
   112b0:	e92d 4ff0 	stmdb	sp!, {r4, r5, r6, r7, r8, r9, sl, fp, lr}
   112b4:	4617      	mov	r7, r2
   112b6:	ed2d 8b02 	vpush	{d8}
   112ba:	b097      	sub	sp, #92	; 0x5c
   112bc:	ee08 0a10 	vmov	s16, r0
   112c0:	ee08 1a90 	vmov	s17, r1
   112c4:	9302      	str	r3, [sp, #8]
   112c6:	f006 f869 	bl	1739c <wc_HashGetDigestSize>
   112ca:	1e05      	subs	r5, r0, #0
   112cc:	db5a      	blt.n	11384 <RsaMGF1.constprop.0+0xd4>
   112ce:	f107 0904 	add.w	r9, r7, #4
   112d2:	f1b9 0f44 	cmp.w	r9, #68	; 0x44
   112d6:	d801      	bhi.n	112dc <RsaMGF1.constprop.0+0x2c>
   112d8:	2d44      	cmp	r5, #68	; 0x44
   112da:	dd43      	ble.n	11364 <RsaMGF1.constprop.0+0xb4>
   112dc:	454d      	cmp	r5, r9
   112de:	46aa      	mov	sl, r5
   112e0:	bf38      	it	cc
   112e2:	46ca      	movcc	sl, r9
   112e4:	4650      	mov	r0, sl
   112e6:	f7ff e8ae 	blx	10444 <malloc@plt>
   112ea:	4603      	mov	r3, r0
   112ec:	2800      	cmp	r0, #0
   112ee:	d04b      	beq.n	11388 <RsaMGF1.constprop.0+0xd8>
   112f0:	f04f 0801 	mov.w	r8, #1
   112f4:	2400      	movs	r4, #0
   112f6:	eb03 0b07 	add.w	fp, r3, r7
   112fa:	4626      	mov	r6, r4
   112fc:	ee18 1a90 	vmov	r1, s17
   11300:	463a      	mov	r2, r7
   11302:	4618      	mov	r0, r3
   11304:	9303      	str	r3, [sp, #12]
   11306:	f7ff e892 	blx	1042c <memcpy@plt>
   1130a:	9b03      	ldr	r3, [sp, #12]
   1130c:	0e32      	lsrs	r2, r6, #24
   1130e:	ee18 0a10 	vmov	r0, s16
   11312:	55da      	strb	r2, [r3, r7]
   11314:	0c32      	lsrs	r2, r6, #16
   11316:	4619      	mov	r1, r3
   11318:	f88b 2001 	strb.w	r2, [fp, #1]
   1131c:	0a32      	lsrs	r2, r6, #8
   1131e:	f88b 6003 	strb.w	r6, [fp, #3]
   11322:	f88b 2002 	strb.w	r2, [fp, #2]
   11326:	464a      	mov	r2, r9
   11328:	f8cd a000 	str.w	sl, [sp]
   1132c:	f006 fa20 	bl	17770 <wc_Hash>
   11330:	4602      	mov	r2, r0
   11332:	9b03      	ldr	r3, [sp, #12]
   11334:	b940      	cbnz	r0, 11348 <RsaMGF1.constprop.0+0x98>
   11336:	f103 3eff 	add.w	lr, r3, #4294967295
   1133a:	1928      	adds	r0, r5, r4
   1133c:	42a0      	cmp	r0, r4
   1133e:	d117      	bne.n	11370 <RsaMGF1.constprop.0+0xc0>
   11340:	9922      	ldr	r1, [sp, #136]	; 0x88
   11342:	3601      	adds	r6, #1
   11344:	42a1      	cmp	r1, r4
   11346:	d8d9      	bhi.n	112fc <RsaMGF1.constprop.0+0x4c>
   11348:	f1b8 0f00 	cmp.w	r8, #0
   1134c:	d004      	beq.n	11358 <RsaMGF1.constprop.0+0xa8>
   1134e:	4618      	mov	r0, r3
   11350:	9202      	str	r2, [sp, #8]
   11352:	f7ff e860 	blx	10414 <free@plt>
   11356:	9a02      	ldr	r2, [sp, #8]
   11358:	4610      	mov	r0, r2
   1135a:	b017      	add	sp, #92	; 0x5c
   1135c:	ecbd 8b02 	vpop	{d8}
   11360:	e8bd 8ff0 	ldmia.w	sp!, {r4, r5, r6, r7, r8, r9, sl, fp, pc}
   11364:	f04f 0a44 	mov.w	sl, #68	; 0x44
   11368:	f04f 0800 	mov.w	r8, #0
   1136c:	ab05      	add	r3, sp, #20
   1136e:	e7c1      	b.n	112f4 <RsaMGF1.constprop.0+0x44>
   11370:	9922      	ldr	r1, [sp, #136]	; 0x88
   11372:	42a1      	cmp	r1, r4
   11374:	d9e4      	bls.n	11340 <RsaMGF1.constprop.0+0x90>
   11376:	f81e cf01 	ldrb.w	ip, [lr, #1]!
   1137a:	9902      	ldr	r1, [sp, #8]
   1137c:	f801 c004 	strb.w	ip, [r1, r4]
   11380:	3401      	adds	r4, #1
   11382:	e7db      	b.n	1133c <RsaMGF1.constprop.0+0x8c>
   11384:	462a      	mov	r2, r5
   11386:	e7e7      	b.n	11358 <RsaMGF1.constprop.0+0xa8>
   11388:	f06f 027c 	mvn.w	r2, #124	; 0x7c
   1138c:	e7e4      	b.n	11358 <RsaMGF1.constprop.0+0xa8>

0001138e <RsaMGF.isra.0>:
   1138e:	b4f0      	push	{r4, r5, r6, r7}
   11390:	2806      	cmp	r0, #6
   11392:	461e      	mov	r6, r3
   11394:	9f04      	ldr	r7, [sp, #16]
   11396:	dc0a      	bgt.n	113ae <RsaMGF.isra.0+0x20>
   11398:	2800      	cmp	r0, #0
   1139a:	dd21      	ble.n	113e0 <RsaMGF.isra.0+0x52>
   1139c:	3802      	subs	r0, #2
   1139e:	9704      	str	r7, [sp, #16]
   113a0:	2804      	cmp	r0, #4
   113a2:	d80e      	bhi.n	113c2 <RsaMGF.isra.0+0x34>
   113a4:	e8df f000 	tbb	[pc, r0]
   113a8:	160a1310 	.word	0x160a1310
   113ac:	19          	.byte	0x19
   113ad:	00          	.byte	0x00
   113ae:	281a      	cmp	r0, #26
   113b0:	d116      	bne.n	113e0 <RsaMGF.isra.0+0x52>
   113b2:	2004      	movs	r0, #4
   113b4:	9704      	str	r7, [sp, #16]
   113b6:	bcf0      	pop	{r4, r5, r6, r7}
   113b8:	f7ff bf7a 	b.w	112b0 <RsaMGF1.constprop.0>
   113bc:	4633      	mov	r3, r6
   113be:	2005      	movs	r0, #5
   113c0:	e7f9      	b.n	113b6 <RsaMGF.isra.0+0x28>
   113c2:	4633      	mov	r3, r6
   113c4:	2006      	movs	r0, #6
   113c6:	e7f6      	b.n	113b6 <RsaMGF.isra.0+0x28>
   113c8:	4633      	mov	r3, r6
   113ca:	2007      	movs	r0, #7
   113cc:	e7f3      	b.n	113b6 <RsaMGF.isra.0+0x28>
   113ce:	4633      	mov	r3, r6
   113d0:	2008      	movs	r0, #8
   113d2:	e7f0      	b.n	113b6 <RsaMGF.isra.0+0x28>
   113d4:	4633      	mov	r3, r6
   113d6:	2010      	movs	r0, #16
   113d8:	e7ed      	b.n	113b6 <RsaMGF.isra.0+0x28>
   113da:	4633      	mov	r3, r6
   113dc:	2011      	movs	r0, #17
   113de:	e7ea      	b.n	113b6 <RsaMGF.isra.0+0x28>
   113e0:	f06f 00ac 	mvn.w	r0, #172	; 0xac
   113e4:	bcf0      	pop	{r4, r5, r6, r7}
   113e6:	4770      	bx	lr

000113e8 <wc_InitRsaKey_ex>:
   113e8:	b573      	push	{r0, r1, r4, r5, r6, lr}
   113ea:	460d      	mov	r5, r1
   113ec:	4604      	mov	r4, r0
   113ee:	2800      	cmp	r0, #0
   113f0:	d03e      	beq.n	11470 <wc_InitRsaKey_ex+0x88>
   113f2:	f641 029c 	movw	r2, #6300	; 0x189c
   113f6:	2100      	movs	r1, #0
   113f8:	f7ff e836 	blx	10468 <memset@plt>
   113fc:	f504 5280 	add.w	r2, r4, #4096	; 0x1000
   11400:	f04f 33ff 	mov.w	r3, #4294967295
   11404:	f504 7644 	add.w	r6, r4, #784	; 0x310
   11408:	4620      	mov	r0, r4
   1140a:	4631      	mov	r1, r6
   1140c:	f8c2 5880 	str.w	r5, [r2, #2176]	; 0x880
   11410:	f8c2 3888 	str.w	r3, [r2, #2184]	; 0x888
   11414:	2300      	movs	r3, #0
   11416:	f8c2 3884 	str.w	r3, [r2, #2180]	; 0x884
   1141a:	f8c2 388c 	str.w	r3, [r2, #2188]	; 0x88c
   1141e:	f8c2 3890 	str.w	r3, [r2, #2192]	; 0x890
   11422:	f8c2 3894 	str.w	r3, [r2, #2196]	; 0x894
   11426:	f882 3898 	strb.w	r3, [r2, #2200]	; 0x898
   1142a:	461a      	mov	r2, r3
   1142c:	e9cd 3300 	strd	r3, r3, [sp]
   11430:	f009 fe4f 	bl	1b0d2 <sp_init_multi>
   11434:	4605      	mov	r5, r0
   11436:	b9c0      	cbnz	r0, 1146a <wc_InitRsaKey_ex+0x82>
   11438:	f504 53ab 	add.w	r3, r4, #5472	; 0x1560
   1143c:	f504 6244 	add.w	r2, r4, #3136	; 0xc40
   11440:	3310      	adds	r3, #16
   11442:	f504 6113 	add.w	r1, r4, #2352	; 0x930
   11446:	f504 60c4 	add.w	r0, r4, #1568	; 0x620
   1144a:	9301      	str	r3, [sp, #4]
   1144c:	f504 5393 	add.w	r3, r4, #4704	; 0x1260
   11450:	9300      	str	r3, [sp, #0]
   11452:	f504 6375 	add.w	r3, r4, #3920	; 0xf50
   11456:	f009 fe3c 	bl	1b0d2 <sp_init_multi>
   1145a:	4605      	mov	r5, r0
   1145c:	b128      	cbz	r0, 1146a <wc_InitRsaKey_ex+0x82>
   1145e:	4620      	mov	r0, r4
   11460:	f009 fe75 	bl	1b14e <sp_clear>
   11464:	4630      	mov	r0, r6
   11466:	f009 fe72 	bl	1b14e <sp_clear>
   1146a:	4628      	mov	r0, r5
   1146c:	b002      	add	sp, #8
   1146e:	bd70      	pop	{r4, r5, r6, pc}
   11470:	f06f 05ac 	mvn.w	r5, #172	; 0xac
   11474:	e7f9      	b.n	1146a <wc_InitRsaKey_ex+0x82>

00011476 <wc_InitRsaKey>:
   11476:	f06f 0201 	mvn.w	r2, #1
   1147a:	f7ff bfb5 	b.w	113e8 <wc_InitRsaKey_ex>

0001147e <wc_FreeRsaKey>:
   1147e:	e92d 47f0 	stmdb	sp!, {r4, r5, r6, r7, r8, r9, sl, lr}
   11482:	4604      	mov	r4, r0
   11484:	2800      	cmp	r0, #0
   11486:	d042      	beq.n	1150e <wc_FreeRsaKey+0x90>
   11488:	f504 55ab 	add.w	r5, r4, #5472	; 0x1560
   1148c:	f504 5a93 	add.w	sl, r4, #4704	; 0x1260
   11490:	3510      	adds	r5, #16
   11492:	f504 6975 	add.w	r9, r4, #3920	; 0xf50
   11496:	f7ff fe21 	bl	110dc <wc_RsaCleanup>
   1149a:	f504 5380 	add.w	r3, r4, #4096	; 0x1000
   1149e:	f504 6844 	add.w	r8, r4, #3136	; 0xc40
   114a2:	f8d3 3888 	ldr.w	r3, [r3, #2184]	; 0x888
   114a6:	f504 6713 	add.w	r7, r4, #2352	; 0x930
   114aa:	f504 66c4 	add.w	r6, r4, #1568	; 0x620
   114ae:	2b01      	cmp	r3, #1
   114b0:	d111      	bne.n	114d6 <wc_FreeRsaKey+0x58>
   114b2:	4628      	mov	r0, r5
   114b4:	f009 fe5b 	bl	1b16e <sp_forcezero>
   114b8:	4650      	mov	r0, sl
   114ba:	f009 fe58 	bl	1b16e <sp_forcezero>
   114be:	4648      	mov	r0, r9
   114c0:	f009 fe55 	bl	1b16e <sp_forcezero>
   114c4:	4640      	mov	r0, r8
   114c6:	f009 fe52 	bl	1b16e <sp_forcezero>
   114ca:	4638      	mov	r0, r7
   114cc:	f009 fe4f 	bl	1b16e <sp_forcezero>
   114d0:	4630      	mov	r0, r6
   114d2:	f009 fe4c 	bl	1b16e <sp_forcezero>
   114d6:	4628      	mov	r0, r5
   114d8:	f009 fe39 	bl	1b14e <sp_clear>
   114dc:	4650      	mov	r0, sl
   114de:	f009 fe36 	bl	1b14e <sp_clear>
   114e2:	4648      	mov	r0, r9
   114e4:	f009 fe33 	bl	1b14e <sp_clear>
   114e8:	4640      	mov	r0, r8
   114ea:	f009 fe30 	bl	1b14e <sp_clear>
   114ee:	4638      	mov	r0, r7
   114f0:	f009 fe2d 	bl	1b14e <sp_clear>
   114f4:	4630      	mov	r0, r6
   114f6:	f009 fe2a 	bl	1b14e <sp_clear>
   114fa:	f504 7044 	add.w	r0, r4, #784	; 0x310
   114fe:	f009 fe26 	bl	1b14e <sp_clear>
   11502:	4620      	mov	r0, r4
   11504:	f009 fe23 	bl	1b14e <sp_clear>
   11508:	2000      	movs	r0, #0
   1150a:	e8bd 87f0 	ldmia.w	sp!, {r4, r5, r6, r7, r8, r9, sl, pc}
   1150e:	f06f 00ac 	mvn.w	r0, #172	; 0xac
   11512:	e7fa      	b.n	1150a <wc_FreeRsaKey+0x8c>

00011514 <wc_RsaPad_ex>:
   11514:	e92d 4ff0 	stmdb	sp!, {r4, r5, r6, r7, r8, r9, sl, fp, lr}
   11518:	4698      	mov	r8, r3
   1151a:	4693      	mov	fp, r2
   1151c:	460f      	mov	r7, r1
   1151e:	ed2d 8b02 	vpush	{d8}
   11522:	b087      	sub	sp, #28
   11524:	9b14      	ldr	r3, [sp, #80]	; 0x50
   11526:	ee08 0a10 	vmov	s16, r0
   1152a:	f89d 2048 	ldrb.w	r2, [sp, #72]	; 0x48
   1152e:	f89d 9054 	ldrb.w	r9, [sp, #84]	; 0x54
   11532:	f8dd a05c 	ldr.w	sl, [sp, #92]	; 0x5c
   11536:	b123      	cbz	r3, 11542 <wc_RsaPad_ex+0x2e>
   11538:	2b01      	cmp	r3, #1
   1153a:	d04b      	beq.n	115d4 <wc_RsaPad_ex+0xc0>
   1153c:	f06f 09c8 	mvn.w	r9, #200	; 0xc8
   11540:	e02b      	b.n	1159a <wc_RsaPad_ex+0x86>
   11542:	2800      	cmp	r0, #0
   11544:	d07f      	beq.n	11646 <wc_RsaPad_ex+0x132>
   11546:	2f00      	cmp	r7, #0
   11548:	d07d      	beq.n	11646 <wc_RsaPad_ex+0x132>
   1154a:	f1bb 0f00 	cmp.w	fp, #0
   1154e:	d07a      	beq.n	11646 <wc_RsaPad_ex+0x132>
   11550:	f1b8 0f00 	cmp.w	r8, #0
   11554:	d077      	beq.n	11646 <wc_RsaPad_ex+0x132>
   11556:	f1a8 010b 	sub.w	r1, r8, #11
   1155a:	428f      	cmp	r7, r1
   1155c:	d8ee      	bhi.n	1153c <wc_RsaPad_ex+0x28>
   1155e:	2a01      	cmp	r2, #1
   11560:	f108 34ff 	add.w	r4, r8, #4294967295
   11564:	f88b 3000 	strb.w	r3, [fp]
   11568:	f10b 0502 	add.w	r5, fp, #2
   1156c:	f88b 2001 	strb.w	r2, [fp, #1]
   11570:	d119      	bne.n	115a6 <wc_RsaPad_ex+0x92>
   11572:	f1a8 0203 	sub.w	r2, r8, #3
   11576:	21ff      	movs	r1, #255	; 0xff
   11578:	1bd2      	subs	r2, r2, r7
   1157a:	4628      	mov	r0, r5
   1157c:	f7fe ef74 	blx	10468 <memset@plt>
   11580:	1be4      	subs	r4, r4, r7
   11582:	f04f 0900 	mov.w	r9, #0
   11586:	ee18 1a10 	vmov	r1, s16
   1158a:	463a      	mov	r2, r7
   1158c:	f80b 9004 	strb.w	r9, [fp, r4]
   11590:	3401      	adds	r4, #1
   11592:	eb0b 0004 	add.w	r0, fp, r4
   11596:	f7fe ef4a 	blx	1042c <memcpy@plt>
   1159a:	4648      	mov	r0, r9
   1159c:	b007      	add	sp, #28
   1159e:	ecbd 8b02 	vpop	{d8}
   115a2:	e8bd 8ff0 	ldmia.w	sp!, {r4, r5, r6, r7, r8, r9, sl, fp, pc}
   115a6:	f1a8 0602 	sub.w	r6, r8, #2
   115aa:	4629      	mov	r1, r5
   115ac:	9813      	ldr	r0, [sp, #76]	; 0x4c
   115ae:	1bf6      	subs	r6, r6, r7
   115b0:	4632      	mov	r2, r6
   115b2:	f7ff fc71 	bl	10e98 <wc_RNG_GenerateBlock>
   115b6:	4681      	mov	r9, r0
   115b8:	2800      	cmp	r0, #0
   115ba:	d1ee      	bne.n	1159a <wc_RsaPad_ex+0x86>
   115bc:	4628      	mov	r0, r5
   115be:	ea6f 020b 	mvn.w	r2, fp
   115c2:	2101      	movs	r1, #1
   115c4:	1813      	adds	r3, r2, r0
   115c6:	429e      	cmp	r6, r3
   115c8:	d9da      	bls.n	11580 <wc_RsaPad_ex+0x6c>
   115ca:	7803      	ldrb	r3, [r0, #0]
   115cc:	b903      	cbnz	r3, 115d0 <wc_RsaPad_ex+0xbc>
   115ce:	7001      	strb	r1, [r0, #0]
   115d0:	3001      	adds	r0, #1
   115d2:	e7f7      	b.n	115c4 <wc_RsaPad_ex+0xb0>
   115d4:	f1ba 0f00 	cmp.w	sl, #0
   115d8:	d102      	bne.n	115e0 <wc_RsaPad_ex+0xcc>
   115da:	9b18      	ldr	r3, [sp, #96]	; 0x60
   115dc:	2b00      	cmp	r3, #0
   115de:	d14b      	bne.n	11678 <wc_RsaPad_ex+0x164>
   115e0:	4648      	mov	r0, r9
   115e2:	f005 fedb 	bl	1739c <wc_HashGetDigestSize>
   115e6:	1e04      	subs	r4, r0, #0
   115e8:	f2c0 80cd 	blt.w	11786 <wc_RsaPad_ex+0x272>
   115ec:	f7fe ef2a 	blx	10444 <malloc@plt>
   115f0:	4606      	mov	r6, r0
   115f2:	b138      	cbz	r0, 11604 <wc_RsaPad_ex+0xf0>
   115f4:	4620      	mov	r0, r4
   115f6:	f7fe ef26 	blx	10444 <malloc@plt>
   115fa:	4605      	mov	r5, r0
   115fc:	b928      	cbnz	r0, 1160a <wc_RsaPad_ex+0xf6>
   115fe:	4630      	mov	r0, r6
   11600:	f7fe ef08 	blx	10414 <free@plt>
   11604:	f06f 097c 	mvn.w	r9, #124	; 0x7c
   11608:	e7c7      	b.n	1159a <wc_RsaPad_ex+0x86>
   1160a:	4648      	mov	r0, r9
   1160c:	4633      	mov	r3, r6
   1160e:	9400      	str	r4, [sp, #0]
   11610:	4651      	mov	r1, sl
   11612:	9a18      	ldr	r2, [sp, #96]	; 0x60
   11614:	f006 f8ac 	bl	17770 <wc_Hash>
   11618:	4681      	mov	r9, r0
   1161a:	b130      	cbz	r0, 1162a <wc_RsaPad_ex+0x116>
   1161c:	4630      	mov	r0, r6
   1161e:	f7fe eefa 	blx	10414 <free@plt>
   11622:	4628      	mov	r0, r5
   11624:	f7fe eef6 	blx	10414 <free@plt>
   11628:	e7b7      	b.n	1159a <wc_RsaPad_ex+0x86>
   1162a:	1c63      	adds	r3, r4, #1
   1162c:	1c62      	adds	r2, r4, #1
   1162e:	ebb8 0f42 	cmp.w	r8, r2, lsl #1
   11632:	9304      	str	r3, [sp, #16]
   11634:	ea4f 0343 	mov.w	r3, r3, lsl #1
   11638:	d208      	bcs.n	1164c <wc_RsaPad_ex+0x138>
   1163a:	4630      	mov	r0, r6
   1163c:	f7fe eeea 	blx	10414 <free@plt>
   11640:	4628      	mov	r0, r5
   11642:	f7fe eee8 	blx	10414 <free@plt>
   11646:	f06f 09ac 	mvn.w	r9, #172	; 0xac
   1164a:	e7a6      	b.n	1159a <wc_RsaPad_ex+0x86>
   1164c:	1e9a      	subs	r2, r3, #2
   1164e:	eba8 0303 	sub.w	r3, r8, r3
   11652:	429f      	cmp	r7, r3
   11654:	d8f1      	bhi.n	1163a <wc_RsaPad_ex+0x126>
   11656:	eba8 0007 	sub.w	r0, r8, r7
   1165a:	4547      	cmp	r7, r8
   1165c:	f100 33ff 	add.w	r3, r0, #4294967295
   11660:	f1a0 0a02 	sub.w	sl, r0, #2
   11664:	9303      	str	r3, [sp, #12]
   11666:	ebaa 0302 	sub.w	r3, sl, r2
   1166a:	d908      	bls.n	1167e <wc_RsaPad_ex+0x16a>
   1166c:	4630      	mov	r0, r6
   1166e:	f7fe eed2 	blx	10414 <free@plt>
   11672:	4628      	mov	r0, r5
   11674:	f7fe eece 	blx	10414 <free@plt>
   11678:	f06f 0983 	mvn.w	r9, #131	; 0x83
   1167c:	e78d      	b.n	1159a <wc_RsaPad_ex+0x86>
   1167e:	463a      	mov	r2, r7
   11680:	ee18 1a10 	vmov	r1, s16
   11684:	4458      	add	r0, fp
   11686:	9305      	str	r3, [sp, #20]
   11688:	f7fe eed0 	blx	1042c <memcpy@plt>
   1168c:	9b03      	ldr	r3, [sp, #12]
   1168e:	2201      	movs	r2, #1
   11690:	4648      	mov	r0, r9
   11692:	f80b 2003 	strb.w	r2, [fp, r3]
   11696:	9b05      	ldr	r3, [sp, #20]
   11698:	2b00      	cmp	r3, #0
   1169a:	dd02      	ble.n	116a2 <wc_RsaPad_ex+0x18e>
   1169c:	f1ba 0f00 	cmp.w	sl, #0
   116a0:	d11c      	bne.n	116dc <wc_RsaPad_ex+0x1c8>
   116a2:	f1c4 0001 	rsb	r0, r4, #1
   116a6:	4622      	mov	r2, r4
   116a8:	4450      	add	r0, sl
   116aa:	4631      	mov	r1, r6
   116ac:	4458      	add	r0, fp
   116ae:	f7fe eebe 	blx	1042c <memcpy@plt>
   116b2:	4622      	mov	r2, r4
   116b4:	4629      	mov	r1, r5
   116b6:	9813      	ldr	r0, [sp, #76]	; 0x4c
   116b8:	f7ff fbee 	bl	10e98 <wc_RNG_GenerateBlock>
   116bc:	4681      	mov	r9, r0
   116be:	2800      	cmp	r0, #0
   116c0:	d1ac      	bne.n	1161c <wc_RsaPad_ex+0x108>
   116c2:	f108 37ff 	add.w	r7, r8, #4294967295
   116c6:	1b3f      	subs	r7, r7, r4
   116c8:	4638      	mov	r0, r7
   116ca:	f7fe eebc 	blx	10444 <malloc@plt>
   116ce:	4682      	mov	sl, r0
   116d0:	b950      	cbnz	r0, 116e8 <wc_RsaPad_ex+0x1d4>
   116d2:	4630      	mov	r0, r6
   116d4:	f7fe ee9e 	blx	10414 <free@plt>
   116d8:	4628      	mov	r0, r5
   116da:	e791      	b.n	11600 <wc_RsaPad_ex+0xec>
   116dc:	3b01      	subs	r3, #1
   116de:	f80b 000a 	strb.w	r0, [fp, sl]
   116e2:	f10a 3aff 	add.w	sl, sl, #4294967295
   116e6:	e7d7      	b.n	11698 <wc_RsaPad_ex+0x184>
   116e8:	4649      	mov	r1, r9
   116ea:	463a      	mov	r2, r7
   116ec:	f7fe eebc 	blx	10468 <memset@plt>
   116f0:	4653      	mov	r3, sl
   116f2:	4622      	mov	r2, r4
   116f4:	9700      	str	r7, [sp, #0]
   116f6:	4629      	mov	r1, r5
   116f8:	9816      	ldr	r0, [sp, #88]	; 0x58
   116fa:	f7ff fe48 	bl	1138e <RsaMGF.isra.0>
   116fe:	4681      	mov	r9, r0
   11700:	b118      	cbz	r0, 1170a <wc_RsaPad_ex+0x1f6>
   11702:	4650      	mov	r0, sl
   11704:	f7fe ee86 	blx	10414 <free@plt>
   11708:	e788      	b.n	1161c <wc_RsaPad_ex+0x108>
   1170a:	4652      	mov	r2, sl
   1170c:	eb0b 0304 	add.w	r3, fp, r4
   11710:	eb07 000a 	add.w	r0, r7, sl
   11714:	f1cb 0c01 	rsb	ip, fp, #1
   11718:	eb0c 0103 	add.w	r1, ip, r3
   1171c:	f8cd b00c 	str.w	fp, [sp, #12]
   11720:	4588      	cmp	r8, r1
   11722:	d901      	bls.n	11728 <wc_RsaPad_ex+0x214>
   11724:	4282      	cmp	r2, r0
   11726:	d126      	bne.n	11776 <wc_RsaPad_ex+0x262>
   11728:	4650      	mov	r0, sl
   1172a:	f7fe ee74 	blx	10414 <free@plt>
   1172e:	465b      	mov	r3, fp
   11730:	2200      	movs	r2, #0
   11732:	9816      	ldr	r0, [sp, #88]	; 0x58
   11734:	1c61      	adds	r1, r4, #1
   11736:	4459      	add	r1, fp
   11738:	f803 2b01 	strb.w	r2, [r3], #1
   1173c:	463a      	mov	r2, r7
   1173e:	9400      	str	r4, [sp, #0]
   11740:	f7ff fe25 	bl	1138e <RsaMGF.isra.0>
   11744:	4681      	mov	r9, r0
   11746:	2800      	cmp	r0, #0
   11748:	f47f af68 	bne.w	1161c <wc_RsaPad_ex+0x108>
   1174c:	1e69      	subs	r1, r5, #1
   1174e:	2301      	movs	r3, #1
   11750:	9a04      	ldr	r2, [sp, #16]
   11752:	429a      	cmp	r2, r3
   11754:	f67f af62 	bls.w	1161c <wc_RsaPad_ex+0x108>
   11758:	1e5a      	subs	r2, r3, #1
   1175a:	4294      	cmp	r4, r2
   1175c:	f77f af5e 	ble.w	1161c <wc_RsaPad_ex+0x108>
   11760:	9803      	ldr	r0, [sp, #12]
   11762:	3301      	adds	r3, #1
   11764:	f810 2f01 	ldrb.w	r2, [r0, #1]!
   11768:	9003      	str	r0, [sp, #12]
   1176a:	f811 0f01 	ldrb.w	r0, [r1, #1]!
   1176e:	4042      	eors	r2, r0
   11770:	9803      	ldr	r0, [sp, #12]
   11772:	7002      	strb	r2, [r0, #0]
   11774:	e7ec      	b.n	11750 <wc_RsaPad_ex+0x23c>
   11776:	f813 ef01 	ldrb.w	lr, [r3, #1]!
   1177a:	f812 1b01 	ldrb.w	r1, [r2], #1
   1177e:	ea81 010e 	eor.w	r1, r1, lr
   11782:	7019      	strb	r1, [r3, #0]
   11784:	e7c8      	b.n	11718 <wc_RsaPad_ex+0x204>
   11786:	46a1      	mov	r9, r4
   11788:	e707      	b.n	1159a <wc_RsaPad_ex+0x86>

0001178a <wc_RsaUnPad_ex>:
   1178a:	e92d 4ff0 	stmdb	sp!, {r4, r5, r6, r7, r8, r9, sl, fp, lr}
   1178e:	b095      	sub	sp, #84	; 0x54
   11790:	460e      	mov	r6, r1
   11792:	4604      	mov	r4, r0
   11794:	4691      	mov	r9, r2
   11796:	461f      	mov	r7, r3
   11798:	991e      	ldr	r1, [sp, #120]	; 0x78
   1179a:	f89d b07c 	ldrb.w	fp, [sp, #124]	; 0x7c
   1179e:	b121      	cbz	r1, 117aa <wc_RsaUnPad_ex+0x20>
   117a0:	2901      	cmp	r1, #1
   117a2:	d05b      	beq.n	1185c <wc_RsaUnPad_ex+0xd2>
   117a4:	f06f 01c8 	mvn.w	r1, #200	; 0xc8
   117a8:	e050      	b.n	1184c <wc_RsaUnPad_ex+0xc2>
   117aa:	2a00      	cmp	r2, #0
   117ac:	f000 80df 	beq.w	1196e <wc_RsaUnPad_ex+0x1e4>
   117b0:	1eb2      	subs	r2, r6, #2
   117b2:	f64f 73fd 	movw	r3, #65533	; 0xfffd
   117b6:	429a      	cmp	r2, r3
   117b8:	f200 80d9 	bhi.w	1196e <wc_RsaUnPad_ex+0x1e4>
   117bc:	2f01      	cmp	r7, #1
   117be:	7800      	ldrb	r0, [r0, #0]
   117c0:	d148      	bne.n	11854 <wc_RsaUnPad_ex+0xca>
   117c2:	2800      	cmp	r0, #0
   117c4:	d1ee      	bne.n	117a4 <wc_RsaUnPad_ex+0x1a>
   117c6:	7863      	ldrb	r3, [r4, #1]
   117c8:	2b01      	cmp	r3, #1
   117ca:	d1eb      	bne.n	117a4 <wc_RsaUnPad_ex+0x1a>
   117cc:	2102      	movs	r1, #2
   117ce:	428e      	cmp	r6, r1
   117d0:	460b      	mov	r3, r1
   117d2:	d904      	bls.n	117de <wc_RsaUnPad_ex+0x54>
   117d4:	5ce3      	ldrb	r3, [r4, r3]
   117d6:	3101      	adds	r1, #1
   117d8:	b289      	uxth	r1, r1
   117da:	2bff      	cmp	r3, #255	; 0xff
   117dc:	d0f7      	beq.n	117ce <wc_RsaUnPad_ex+0x44>
   117de:	290a      	cmp	r1, #10
   117e0:	d9e0      	bls.n	117a4 <wc_RsaUnPad_ex+0x1a>
   117e2:	440c      	add	r4, r1
   117e4:	f814 3c01 	ldrb.w	r3, [r4, #-1]
   117e8:	2b00      	cmp	r3, #0
   117ea:	d1db      	bne.n	117a4 <wc_RsaUnPad_ex+0x1a>
   117ec:	1a71      	subs	r1, r6, r1
   117ee:	f8c9 4000 	str.w	r4, [r9]
   117f2:	e02b      	b.n	1184c <wc_RsaUnPad_ex+0xc2>
   117f4:	f814 500c 	ldrb.w	r5, [r4, ip]
   117f8:	f10c 0c01 	add.w	ip, ip, #1
   117fc:	3d01      	subs	r5, #1
   117fe:	17ed      	asrs	r5, r5, #31
   11800:	b2ad      	uxth	r5, r5
   11802:	ea03 0205 	and.w	r2, r3, r5
   11806:	4329      	orrs	r1, r5
   11808:	ea02 020c 	and.w	r2, r2, ip
   1180c:	ea48 0802 	orr.w	r8, r8, r2
   11810:	4566      	cmp	r6, ip
   11812:	ea6f 0301 	mvn.w	r3, r1
   11816:	d1ed      	bne.n	117f4 <wc_RsaUnPad_ex+0x6a>
   11818:	f1c8 020a 	rsb	r2, r8, #10
   1181c:	2100      	movs	r1, #0
   1181e:	0fd2      	lsrs	r2, r2, #31
   11820:	eba6 0608 	sub.w	r6, r6, r8
   11824:	3a01      	subs	r2, #1
   11826:	431a      	orrs	r2, r3
   11828:	f7ff fc4d 	bl	110c6 <ctMaskNotEq>
   1182c:	4605      	mov	r5, r0
   1182e:	4639      	mov	r1, r7
   11830:	7860      	ldrb	r0, [r4, #1]
   11832:	f7ff fc48 	bl	110c6 <ctMaskNotEq>
   11836:	b2d2      	uxtb	r2, r2
   11838:	ea45 0100 	orr.w	r1, r5, r0
   1183c:	4311      	orrs	r1, r2
   1183e:	4444      	add	r4, r8
   11840:	f3c1 11c0 	ubfx	r1, r1, #7, #1
   11844:	f8c9 4000 	str.w	r4, [r9]
   11848:	3901      	subs	r1, #1
   1184a:	4031      	ands	r1, r6
   1184c:	4608      	mov	r0, r1
   1184e:	b015      	add	sp, #84	; 0x54
   11850:	e8bd 8ff0 	ldmia.w	sp!, {r4, r5, r6, r7, r8, r9, sl, fp, pc}
   11854:	f04f 0c02 	mov.w	ip, #2
   11858:	4688      	mov	r8, r1
   1185a:	e7d9      	b.n	11810 <wc_RsaUnPad_ex+0x86>
   1185c:	9b21      	ldr	r3, [sp, #132]	; 0x84
   1185e:	b913      	cbnz	r3, 11866 <wc_RsaUnPad_ex+0xdc>
   11860:	9b22      	ldr	r3, [sp, #136]	; 0x88
   11862:	2b00      	cmp	r3, #0
   11864:	d17d      	bne.n	11962 <wc_RsaUnPad_ex+0x1d8>
   11866:	4658      	mov	r0, fp
   11868:	f005 fd98 	bl	1739c <wc_HashGetDigestSize>
   1186c:	1e05      	subs	r5, r0, #0
   1186e:	db7e      	blt.n	1196e <wc_RsaUnPad_ex+0x1e4>
   11870:	f105 0801 	add.w	r8, r5, #1
   11874:	ebb6 0f48 	cmp.w	r6, r8, lsl #1
   11878:	d379      	bcc.n	1196e <wc_RsaUnPad_ex+0x1e4>
   1187a:	4630      	mov	r0, r6
   1187c:	f7fe ede2 	blx	10444 <malloc@plt>
   11880:	4607      	mov	r7, r0
   11882:	2800      	cmp	r0, #0
   11884:	d070      	beq.n	11968 <wc_RsaUnPad_ex+0x1de>
   11886:	4632      	mov	r2, r6
   11888:	2100      	movs	r1, #0
   1188a:	f106 3aff 	add.w	sl, r6, #4294967295
   1188e:	44a0      	add	r8, r4
   11890:	f7fe edea 	blx	10468 <memset@plt>
   11894:	ebaa 0205 	sub.w	r2, sl, r5
   11898:	4641      	mov	r1, r8
   1189a:	9500      	str	r5, [sp, #0]
   1189c:	463b      	mov	r3, r7
   1189e:	9820      	ldr	r0, [sp, #128]	; 0x80
   118a0:	9203      	str	r2, [sp, #12]
   118a2:	f7ff fd74 	bl	1138e <RsaMGF.isra.0>
   118a6:	4601      	mov	r1, r0
   118a8:	2800      	cmp	r0, #0
   118aa:	d143      	bne.n	11934 <wc_RsaUnPad_ex+0x1aa>
   118ac:	9a03      	ldr	r2, [sp, #12]
   118ae:	463b      	mov	r3, r7
   118b0:	eb07 0c05 	add.w	ip, r7, r5
   118b4:	4620      	mov	r0, r4
   118b6:	459c      	cmp	ip, r3
   118b8:	d134      	bne.n	11924 <wc_RsaUnPad_ex+0x19a>
   118ba:	197b      	adds	r3, r7, r5
   118bc:	4639      	mov	r1, r7
   118be:	9200      	str	r2, [sp, #0]
   118c0:	462a      	mov	r2, r5
   118c2:	9820      	ldr	r0, [sp, #128]	; 0x80
   118c4:	9303      	str	r3, [sp, #12]
   118c6:	f7ff fd62 	bl	1138e <RsaMGF.isra.0>
   118ca:	4601      	mov	r1, r0
   118cc:	bb90      	cbnz	r0, 11934 <wc_RsaUnPad_ex+0x1aa>
   118ce:	9b03      	ldr	r3, [sp, #12]
   118d0:	1962      	adds	r2, r4, r5
   118d2:	eb04 000a 	add.w	r0, r4, sl
   118d6:	4290      	cmp	r0, r2
   118d8:	d132      	bne.n	11940 <wc_RsaUnPad_ex+0x1b6>
   118da:	4638      	mov	r0, r7
   118dc:	1c6f      	adds	r7, r5, #1
   118de:	442f      	add	r7, r5
   118e0:	f7fe ed98 	blx	10414 <free@plt>
   118e4:	4557      	cmp	r7, sl
   118e6:	d201      	bcs.n	118ec <wc_RsaUnPad_ex+0x162>
   118e8:	5de3      	ldrb	r3, [r4, r7]
   118ea:	b38b      	cbz	r3, 11950 <wc_RsaUnPad_ex+0x1c6>
   118ec:	ab04      	add	r3, sp, #16
   118ee:	4658      	mov	r0, fp
   118f0:	9500      	str	r5, [sp, #0]
   118f2:	e9dd 1221 	ldrd	r1, r2, [sp, #132]	; 0x84
   118f6:	f005 ff3b 	bl	17770 <wc_Hash>
   118fa:	4601      	mov	r1, r0
   118fc:	2800      	cmp	r0, #0
   118fe:	d1a5      	bne.n	1184c <wc_RsaUnPad_ex+0xc2>
   11900:	ab04      	add	r3, sp, #16
   11902:	4445      	add	r5, r8
   11904:	4545      	cmp	r5, r8
   11906:	d125      	bne.n	11954 <wc_RsaUnPad_ex+0x1ca>
   11908:	5de0      	ldrb	r0, [r4, r7]
   1190a:	f080 0001 	eor.w	r0, r0, #1
   1190e:	4408      	add	r0, r1
   11910:	7821      	ldrb	r1, [r4, #0]
   11912:	4401      	add	r1, r0
   11914:	1e48      	subs	r0, r1, #1
   11916:	1c79      	adds	r1, r7, #1
   11918:	4071      	eors	r1, r6
   1191a:	ea01 71e0 	and.w	r1, r1, r0, asr #31
   1191e:	4071      	eors	r1, r6
   11920:	440c      	add	r4, r1
   11922:	e763      	b.n	117ec <wc_RsaUnPad_ex+0x62>
   11924:	7819      	ldrb	r1, [r3, #0]
   11926:	f810 ef01 	ldrb.w	lr, [r0, #1]!
   1192a:	ea81 010e 	eor.w	r1, r1, lr
   1192e:	f803 1b01 	strb.w	r1, [r3], #1
   11932:	e7c0      	b.n	118b6 <wc_RsaUnPad_ex+0x12c>
   11934:	4638      	mov	r0, r7
   11936:	9103      	str	r1, [sp, #12]
   11938:	f7fe ed6c 	blx	10414 <free@plt>
   1193c:	9903      	ldr	r1, [sp, #12]
   1193e:	e785      	b.n	1184c <wc_RsaUnPad_ex+0xc2>
   11940:	f812 cf01 	ldrb.w	ip, [r2, #1]!
   11944:	f813 1b01 	ldrb.w	r1, [r3], #1
   11948:	ea81 010c 	eor.w	r1, r1, ip
   1194c:	7011      	strb	r1, [r2, #0]
   1194e:	e7c2      	b.n	118d6 <wc_RsaUnPad_ex+0x14c>
   11950:	3701      	adds	r7, #1
   11952:	e7c7      	b.n	118e4 <wc_RsaUnPad_ex+0x15a>
   11954:	f818 2b01 	ldrb.w	r2, [r8], #1
   11958:	f813 0b01 	ldrb.w	r0, [r3], #1
   1195c:	4042      	eors	r2, r0
   1195e:	4311      	orrs	r1, r2
   11960:	e7d0      	b.n	11904 <wc_RsaUnPad_ex+0x17a>
   11962:	f06f 0183 	mvn.w	r1, #131	; 0x83
   11966:	e771      	b.n	1184c <wc_RsaUnPad_ex+0xc2>
   11968:	f06f 017c 	mvn.w	r1, #124	; 0x7c
   1196c:	e76e      	b.n	1184c <wc_RsaUnPad_ex+0xc2>
   1196e:	f06f 01ac 	mvn.w	r1, #172	; 0xac
   11972:	e76b      	b.n	1184c <wc_RsaUnPad_ex+0xc2>

00011974 <wc_hash2mgf>:
   11974:	3804      	subs	r0, #4
   11976:	b2c0      	uxtb	r0, r0
   11978:	2804      	cmp	r0, #4
   1197a:	bf9a      	itte	ls
   1197c:	4b01      	ldrls	r3, [pc, #4]	; (11984 <wc_hash2mgf+0x10>)
   1197e:	5618      	ldrsbls	r0, [r3, r0]
   11980:	2000      	movhi	r0, #0
   11982:	4770      	bx	lr
   11984:	0001cc3e 	.word	0x0001cc3e

00011988 <wc_RsaEncryptSize>:
   11988:	b108      	cbz	r0, 1198e <wc_RsaEncryptSize+0x6>
   1198a:	f00a bb3d 	b.w	1c008 <sp_unsigned_bin_size>
   1198e:	f06f 00ac 	mvn.w	r0, #172	; 0xac
   11992:	4770      	bx	lr

00011994 <wc_RsaFunction_ex>:
   11994:	e92d 4ff0 	stmdb	sp!, {r4, r5, r6, r7, r8, r9, sl, fp, lr}
   11998:	b089      	sub	sp, #36	; 0x24
   1199a:	4680      	mov	r8, r0
   1199c:	460e      	mov	r6, r1
   1199e:	4692      	mov	sl, r2
   119a0:	4699      	mov	r9, r3
   119a2:	e9dd 5412 	ldrd	r5, r4, [sp, #72]	; 0x48
   119a6:	9f15      	ldr	r7, [sp, #84]	; 0x54
   119a8:	2c00      	cmp	r4, #0
   119aa:	f000 8102 	beq.w	11bb2 <wc_RsaFunction_ex+0x21e>
   119ae:	2800      	cmp	r0, #0
   119b0:	f000 80ff 	beq.w	11bb2 <wc_RsaFunction_ex+0x21e>
   119b4:	2900      	cmp	r1, #0
   119b6:	f000 80fc 	beq.w	11bb2 <wc_RsaFunction_ex+0x21e>
   119ba:	2a00      	cmp	r2, #0
   119bc:	f000 80f9 	beq.w	11bb2 <wc_RsaFunction_ex+0x21e>
   119c0:	2b00      	cmp	r3, #0
   119c2:	f000 80f6 	beq.w	11bb2 <wc_RsaFunction_ex+0x21e>
   119c6:	681b      	ldr	r3, [r3, #0]
   119c8:	2b00      	cmp	r3, #0
   119ca:	f000 80f2 	beq.w	11bb2 <wc_RsaFunction_ex+0x21e>
   119ce:	1c6a      	adds	r2, r5, #1
   119d0:	f000 80ef 	beq.w	11bb2 <wc_RsaFunction_ex+0x21e>
   119d4:	2d03      	cmp	r5, #3
   119d6:	d007      	beq.n	119e8 <wc_RsaFunction_ex+0x54>
   119d8:	4620      	mov	r0, r4
   119da:	f7ff ffd5 	bl	11988 <wc_RsaEncryptSize>
   119de:	4286      	cmp	r6, r0
   119e0:	d949      	bls.n	11a76 <wc_RsaFunction_ex+0xe2>
   119e2:	f06f 07ac 	mvn.w	r7, #172	; 0xac
   119e6:	e067      	b.n	11ab8 <wc_RsaFunction_ex+0x124>
   119e8:	f504 5380 	add.w	r3, r4, #4096	; 0x1000
   119ec:	f8d3 388c 	ldr.w	r3, [r3, #2188]	; 0x88c
   119f0:	2b04      	cmp	r3, #4
   119f2:	d1f1      	bne.n	119d8 <wc_RsaFunction_ex+0x44>
   119f4:	f44f 7044 	mov.w	r0, #784	; 0x310
   119f8:	f7fe ed24 	blx	10444 <malloc@plt>
   119fc:	4683      	mov	fp, r0
   119fe:	b370      	cbz	r0, 11a5e <wc_RsaFunction_ex+0xca>
   11a00:	f009 fb55 	bl	1b0ae <sp_init>
   11a04:	bb70      	cbnz	r0, 11a64 <wc_RsaFunction_ex+0xd0>
   11a06:	4632      	mov	r2, r6
   11a08:	4641      	mov	r1, r8
   11a0a:	4658      	mov	r0, fp
   11a0c:	f00a fb06 	bl	1c01c <sp_read_unsigned_bin>
   11a10:	bb58      	cbnz	r0, 11a6a <wc_RsaFunction_ex+0xd6>
   11a12:	b9df      	cbnz	r7, 11a4c <wc_RsaFunction_ex+0xb8>
   11a14:	465a      	mov	r2, fp
   11a16:	2101      	movs	r1, #1
   11a18:	4658      	mov	r0, fp
   11a1a:	f009 fc55 	bl	1b2c8 <sp_add_d>
   11a1e:	4607      	mov	r7, r0
   11a20:	bb30      	cbnz	r0, 11a70 <wc_RsaFunction_ex+0xdc>
   11a22:	4621      	mov	r1, r4
   11a24:	4658      	mov	r0, fp
   11a26:	f009 fbc9 	bl	1b1bc <sp_cmp>
   11a2a:	3001      	adds	r0, #1
   11a2c:	d114      	bne.n	11a58 <wc_RsaFunction_ex+0xc4>
   11a2e:	4658      	mov	r0, fp
   11a30:	f009 fb8d 	bl	1b14e <sp_clear>
   11a34:	f1bb 0f00 	cmp.w	fp, #0
   11a38:	d002      	beq.n	11a40 <wc_RsaFunction_ex+0xac>
   11a3a:	4658      	mov	r0, fp
   11a3c:	f7fe ecea 	blx	10414 <free@plt>
   11a40:	2f00      	cmp	r7, #0
   11a42:	d0c9      	beq.n	119d8 <wc_RsaFunction_ex+0x44>
   11a44:	4638      	mov	r0, r7
   11a46:	b009      	add	sp, #36	; 0x24
   11a48:	e8bd 8ff0 	ldmia.w	sp!, {r4, r5, r6, r7, r8, r9, sl, fp, pc}
   11a4c:	2101      	movs	r1, #1
   11a4e:	4658      	mov	r0, fp
   11a50:	f009 fc23 	bl	1b29a <sp_cmp_d>
   11a54:	2801      	cmp	r0, #1
   11a56:	d0dd      	beq.n	11a14 <wc_RsaFunction_ex+0x80>
   11a58:	f06f 07fc 	mvn.w	r7, #252	; 0xfc
   11a5c:	e7e7      	b.n	11a2e <wc_RsaFunction_ex+0x9a>
   11a5e:	f06f 077c 	mvn.w	r7, #124	; 0x7c
   11a62:	e7e4      	b.n	11a2e <wc_RsaFunction_ex+0x9a>
   11a64:	f06f 076d 	mvn.w	r7, #109	; 0x6d
   11a68:	e7e1      	b.n	11a2e <wc_RsaFunction_ex+0x9a>
   11a6a:	f06f 076e 	mvn.w	r7, #110	; 0x6e
   11a6e:	e7de      	b.n	11a2e <wc_RsaFunction_ex+0x9a>
   11a70:	f06f 0772 	mvn.w	r7, #114	; 0x72
   11a74:	e7db      	b.n	11a2e <wc_RsaFunction_ex+0x9a>
   11a76:	6823      	ldr	r3, [r4, #0]
   11a78:	b11b      	cbz	r3, 11a82 <wc_RsaFunction_ex+0xee>
   11a7a:	68a3      	ldr	r3, [r4, #8]
   11a7c:	07db      	lsls	r3, r3, #31
   11a7e:	f140 8095 	bpl.w	11bac <wc_RsaFunction_ex+0x218>
   11a82:	4620      	mov	r0, r4
   11a84:	f009 fba7 	bl	1b1d6 <sp_count_bits>
   11a88:	f5b0 6f00 	cmp.w	r0, #2048	; 0x800
   11a8c:	d14a      	bne.n	11b24 <wc_RsaFunction_ex+0x190>
   11a8e:	2d01      	cmp	r5, #1
   11a90:	dc0b      	bgt.n	11aaa <wc_RsaFunction_ex+0x116>
   11a92:	2d00      	cmp	r5, #0
   11a94:	db46      	blt.n	11b24 <wc_RsaFunction_ex+0x190>
   11a96:	4623      	mov	r3, r4
   11a98:	f504 7244 	add.w	r2, r4, #784	; 0x310
   11a9c:	e9cd a900 	strd	sl, r9, [sp]
   11aa0:	4631      	mov	r1, r6
   11aa2:	4640      	mov	r0, r8
   11aa4:	f008 fc1b 	bl	1a2de <sp_RsaPublic_2048>
   11aa8:	e035      	b.n	11b16 <wc_RsaFunction_ex+0x182>
   11aaa:	1eab      	subs	r3, r5, #2
   11aac:	2b01      	cmp	r3, #1
   11aae:	d839      	bhi.n	11b24 <wc_RsaFunction_ex+0x190>
   11ab0:	9b14      	ldr	r3, [sp, #80]	; 0x50
   11ab2:	b953      	cbnz	r3, 11aca <wc_RsaFunction_ex+0x136>
   11ab4:	f06f 07eb 	mvn.w	r7, #235	; 0xeb
   11ab8:	f504 5380 	add.w	r3, r4, #4096	; 0x1000
   11abc:	2200      	movs	r2, #0
   11abe:	4620      	mov	r0, r4
   11ac0:	f8c3 288c 	str.w	r2, [r3, #2188]	; 0x88c
   11ac4:	f7ff fb0a 	bl	110dc <wc_RsaCleanup>
   11ac8:	e7bc      	b.n	11a44 <wc_RsaFunction_ex+0xb0>
   11aca:	f504 6713 	add.w	r7, r4, #2352	; 0x930
   11ace:	4638      	mov	r0, r7
   11ad0:	f009 fb81 	bl	1b1d6 <sp_count_bits>
   11ad4:	f5b0 6f80 	cmp.w	r0, #1024	; 0x400
   11ad8:	d124      	bne.n	11b24 <wc_RsaFunction_ex+0x190>
   11ada:	f504 6b44 	add.w	fp, r4, #3136	; 0xc40
   11ade:	4658      	mov	r0, fp
   11ae0:	f009 fb79 	bl	1b1d6 <sp_count_bits>
   11ae4:	f5b0 6f80 	cmp.w	r0, #1024	; 0x400
   11ae8:	d11c      	bne.n	11b24 <wc_RsaFunction_ex+0x190>
   11aea:	f504 52ab 	add.w	r2, r4, #5472	; 0x1560
   11aee:	463b      	mov	r3, r7
   11af0:	f8cd b000 	str.w	fp, [sp]
   11af4:	3210      	adds	r2, #16
   11af6:	4631      	mov	r1, r6
   11af8:	4640      	mov	r0, r8
   11afa:	e9cd 2403 	strd	r2, r4, [sp, #12]
   11afe:	f504 5293 	add.w	r2, r4, #4704	; 0x1260
   11b02:	9202      	str	r2, [sp, #8]
   11b04:	f504 6275 	add.w	r2, r4, #3920	; 0xf50
   11b08:	e9cd a905 	strd	sl, r9, [sp, #20]
   11b0c:	9201      	str	r2, [sp, #4]
   11b0e:	f504 62c4 	add.w	r2, r4, #1568	; 0x620
   11b12:	f008 fceb 	bl	1a4ec <sp_RsaPrivate_2048>
   11b16:	2800      	cmp	r0, #0
   11b18:	4607      	mov	r7, r0
   11b1a:	da93      	bge.n	11a44 <wc_RsaFunction_ex+0xb0>
   11b1c:	f110 0f6c 	cmn.w	r0, #108	; 0x6c
   11b20:	d090      	beq.n	11a44 <wc_RsaFunction_ex+0xb0>
   11b22:	e7c9      	b.n	11ab8 <wc_RsaFunction_ex+0x124>
   11b24:	4620      	mov	r0, r4
   11b26:	f009 fb56 	bl	1b1d6 <sp_count_bits>
   11b2a:	f5b0 6f40 	cmp.w	r0, #3072	; 0xc00
   11b2e:	d002      	beq.n	11b36 <wc_RsaFunction_ex+0x1a2>
   11b30:	f06f 07e9 	mvn.w	r7, #233	; 0xe9
   11b34:	e7c0      	b.n	11ab8 <wc_RsaFunction_ex+0x124>
   11b36:	2d01      	cmp	r5, #1
   11b38:	dc0b      	bgt.n	11b52 <wc_RsaFunction_ex+0x1be>
   11b3a:	2d00      	cmp	r5, #0
   11b3c:	dbf8      	blt.n	11b30 <wc_RsaFunction_ex+0x19c>
   11b3e:	4623      	mov	r3, r4
   11b40:	f504 7244 	add.w	r2, r4, #784	; 0x310
   11b44:	e9cd a900 	strd	sl, r9, [sp]
   11b48:	4631      	mov	r1, r6
   11b4a:	4640      	mov	r0, r8
   11b4c:	f008 fe33 	bl	1a7b6 <sp_RsaPublic_3072>
   11b50:	e7e1      	b.n	11b16 <wc_RsaFunction_ex+0x182>
   11b52:	3d02      	subs	r5, #2
   11b54:	2d01      	cmp	r5, #1
   11b56:	d8eb      	bhi.n	11b30 <wc_RsaFunction_ex+0x19c>
   11b58:	9b14      	ldr	r3, [sp, #80]	; 0x50
   11b5a:	2b00      	cmp	r3, #0
   11b5c:	d0aa      	beq.n	11ab4 <wc_RsaFunction_ex+0x120>
   11b5e:	f504 6513 	add.w	r5, r4, #2352	; 0x930
   11b62:	4628      	mov	r0, r5
   11b64:	f009 fb37 	bl	1b1d6 <sp_count_bits>
   11b68:	f5b0 6fc0 	cmp.w	r0, #1536	; 0x600
   11b6c:	d1e0      	bne.n	11b30 <wc_RsaFunction_ex+0x19c>
   11b6e:	f504 6744 	add.w	r7, r4, #3136	; 0xc40
   11b72:	4638      	mov	r0, r7
   11b74:	f009 fb2f 	bl	1b1d6 <sp_count_bits>
   11b78:	f5b0 6fc0 	cmp.w	r0, #1536	; 0x600
   11b7c:	d1d8      	bne.n	11b30 <wc_RsaFunction_ex+0x19c>
   11b7e:	f504 52ab 	add.w	r2, r4, #5472	; 0x1560
   11b82:	f504 5393 	add.w	r3, r4, #4704	; 0x1260
   11b86:	9700      	str	r7, [sp, #0]
   11b88:	3210      	adds	r2, #16
   11b8a:	4631      	mov	r1, r6
   11b8c:	4640      	mov	r0, r8
   11b8e:	e9cd 3202 	strd	r3, r2, [sp, #8]
   11b92:	f504 6375 	add.w	r3, r4, #3920	; 0xf50
   11b96:	f504 62c4 	add.w	r2, r4, #1568	; 0x620
   11b9a:	9301      	str	r3, [sp, #4]
   11b9c:	462b      	mov	r3, r5
   11b9e:	e9cd 4a04 	strd	r4, sl, [sp, #16]
   11ba2:	f8cd 9018 	str.w	r9, [sp, #24]
   11ba6:	f008 ff0e 	bl	1a9c6 <sp_RsaPrivate_3072>
   11baa:	e7b4      	b.n	11b16 <wc_RsaFunction_ex+0x182>
   11bac:	f06f 0702 	mvn.w	r7, #2
   11bb0:	e782      	b.n	11ab8 <wc_RsaFunction_ex+0x124>
   11bb2:	f06f 07ac 	mvn.w	r7, #172	; 0xac
   11bb6:	e745      	b.n	11a44 <wc_RsaFunction_ex+0xb0>

00011bb8 <wc_RsaFunction>:
   11bb8:	b51f      	push	{r0, r1, r2, r3, r4, lr}
   11bba:	2401      	movs	r4, #1
   11bbc:	9403      	str	r4, [sp, #12]
   11bbe:	9c08      	ldr	r4, [sp, #32]
   11bc0:	9402      	str	r4, [sp, #8]
   11bc2:	9c07      	ldr	r4, [sp, #28]
   11bc4:	9401      	str	r4, [sp, #4]
   11bc6:	9c06      	ldr	r4, [sp, #24]
   11bc8:	9400      	str	r4, [sp, #0]
   11bca:	f7ff fee3 	bl	11994 <wc_RsaFunction_ex>
   11bce:	b004      	add	sp, #16
   11bd0:	bd10      	pop	{r4, pc}

00011bd2 <RsaPrivateDecryptEx>:
   11bd2:	e92d 4ff0 	stmdb	sp!, {r4, r5, r6, r7, r8, r9, sl, fp, lr}
   11bd6:	461d      	mov	r5, r3
   11bd8:	b08d      	sub	sp, #52	; 0x34
   11bda:	2300      	movs	r3, #0
   11bdc:	460c      	mov	r4, r1
   11bde:	4690      	mov	r8, r2
   11be0:	4683      	mov	fp, r0
   11be2:	930b      	str	r3, [sp, #44]	; 0x2c
   11be4:	e9dd 9616 	ldrd	r9, r6, [sp, #88]	; 0x58
   11be8:	f8dd a060 	ldr.w	sl, [sp, #96]	; 0x60
   11bec:	2800      	cmp	r0, #0
   11bee:	f000 80e0 	beq.w	11db2 <RsaPrivateDecryptEx+0x1e0>
   11bf2:	2900      	cmp	r1, #0
   11bf4:	f000 80dd 	beq.w	11db2 <RsaPrivateDecryptEx+0x1e0>
   11bf8:	2a00      	cmp	r2, #0
   11bfa:	f000 80da 	beq.w	11db2 <RsaPrivateDecryptEx+0x1e0>
   11bfe:	2e00      	cmp	r6, #0
   11c00:	f000 80d7 	beq.w	11db2 <RsaPrivateDecryptEx+0x1e0>
   11c04:	f506 5780 	add.w	r7, r6, #4096	; 0x1000
   11c08:	f8d7 388c 	ldr.w	r3, [r7, #2188]	; 0x88c
   11c0c:	2b06      	cmp	r3, #6
   11c0e:	f200 80c7 	bhi.w	11da0 <RsaPrivateDecryptEx+0x1ce>
   11c12:	e8df f003 	tbb	[pc, r3]
   11c16:	c50f      	.short	0xc50f
   11c18:	4c2ec5c5 	.word	0x4c2ec5c5
   11c1c:	04          	.byte	0x04
   11c1d:	00          	.byte	0x00
   11c1e:	f06f 0481 	mvn.w	r4, #129	; 0x81
   11c22:	f506 5380 	add.w	r3, r6, #4096	; 0x1000
   11c26:	2200      	movs	r2, #0
   11c28:	4630      	mov	r0, r6
   11c2a:	f8c3 288c 	str.w	r2, [r3, #2188]	; 0x88c
   11c2e:	f7ff fa55 	bl	110dc <wc_RsaCleanup>
   11c32:	e08f      	b.n	11d54 <RsaPrivateDecryptEx+0x182>
   11c34:	f8d7 3884 	ldr.w	r3, [r7, #2180]	; 0x884
   11c38:	f8c7 1890 	str.w	r1, [r7, #2192]	; 0x890
   11c3c:	2b00      	cmp	r3, #0
   11c3e:	f040 80af 	bne.w	11da0 <RsaPrivateDecryptEx+0x1ce>
   11c42:	f1b9 0f00 	cmp.w	r9, #0
   11c46:	f040 8089 	bne.w	11d5c <RsaPrivateDecryptEx+0x18a>
   11c4a:	4608      	mov	r0, r1
   11c4c:	f7fe ebfa 	blx	10444 <malloc@plt>
   11c50:	2201      	movs	r2, #1
   11c52:	f8c7 0884 	str.w	r0, [r7, #2180]	; 0x884
   11c56:	f887 2898 	strb.w	r2, [r7, #2200]	; 0x898
   11c5a:	2800      	cmp	r0, #0
   11c5c:	f000 80a3 	beq.w	11da6 <RsaPrivateDecryptEx+0x1d4>
   11c60:	4622      	mov	r2, r4
   11c62:	4659      	mov	r1, fp
   11c64:	f7fe ebe2 	blx	1042c <memcpy@plt>
   11c68:	f506 5380 	add.w	r3, r6, #4096	; 0x1000
   11c6c:	2204      	movs	r2, #4
   11c6e:	f8c3 288c 	str.w	r2, [r3, #2188]	; 0x88c
   11c72:	9b1a      	ldr	r3, [sp, #104]	; 0x68
   11c74:	f506 5780 	add.w	r7, r6, #4096	; 0x1000
   11c78:	4621      	mov	r1, r4
   11c7a:	e9cd a600 	strd	sl, r6, [sp]
   11c7e:	3b01      	subs	r3, #1
   11c80:	bf18      	it	ne
   11c82:	2301      	movne	r3, #1
   11c84:	9303      	str	r3, [sp, #12]
   11c86:	9b20      	ldr	r3, [sp, #128]	; 0x80
   11c88:	9302      	str	r3, [sp, #8]
   11c8a:	f506 53c4 	add.w	r3, r6, #6272	; 0x1880
   11c8e:	f8d7 2884 	ldr.w	r2, [r7, #2180]	; 0x884
   11c92:	3310      	adds	r3, #16
   11c94:	4610      	mov	r0, r2
   11c96:	f7ff fe7d 	bl	11994 <wc_RsaFunction_ex>
   11c9a:	1e04      	subs	r4, r0, #0
   11c9c:	da02      	bge.n	11ca4 <RsaPrivateDecryptEx+0xd2>
   11c9e:	f114 0f6c 	cmn.w	r4, #108	; 0x6c
   11ca2:	d1be      	bne.n	11c22 <RsaPrivateDecryptEx+0x50>
   11ca4:	2305      	movs	r3, #5
   11ca6:	2c00      	cmp	r4, #0
   11ca8:	f8c7 388c 	str.w	r3, [r7, #2188]	; 0x88c
   11cac:	db4e      	blt.n	11d4c <RsaPrivateDecryptEx+0x17a>
   11cae:	f506 5780 	add.w	r7, r6, #4096	; 0x1000
   11cb2:	4630      	mov	r0, r6
   11cb4:	f8d7 4884 	ldr.w	r4, [r7, #2180]	; 0x884
   11cb8:	f8d7 1890 	ldr.w	r1, [r7, #2192]	; 0x890
   11cbc:	9109      	str	r1, [sp, #36]	; 0x24
   11cbe:	f009 fa8a 	bl	1b1d6 <sp_count_bits>
   11cc2:	f8d7 3880 	ldr.w	r3, [r7, #2176]	; 0x880
   11cc6:	aa0b      	add	r2, sp, #44	; 0x2c
   11cc8:	9909      	ldr	r1, [sp, #36]	; 0x24
   11cca:	e9cd 0306 	strd	r0, r3, [sp, #24]
   11cce:	4620      	mov	r0, r4
   11cd0:	9b1f      	ldr	r3, [sp, #124]	; 0x7c
   11cd2:	9305      	str	r3, [sp, #20]
   11cd4:	9b1e      	ldr	r3, [sp, #120]	; 0x78
   11cd6:	9304      	str	r3, [sp, #16]
   11cd8:	9b1d      	ldr	r3, [sp, #116]	; 0x74
   11cda:	9303      	str	r3, [sp, #12]
   11cdc:	9b1c      	ldr	r3, [sp, #112]	; 0x70
   11cde:	9302      	str	r3, [sp, #8]
   11ce0:	f89d 306c 	ldrb.w	r3, [sp, #108]	; 0x6c
   11ce4:	9301      	str	r3, [sp, #4]
   11ce6:	9b1a      	ldr	r3, [sp, #104]	; 0x68
   11ce8:	9300      	str	r3, [sp, #0]
   11cea:	f89d 3064 	ldrb.w	r3, [sp, #100]	; 0x64
   11cee:	f7ff fd4c 	bl	1178a <wc_RsaUnPad_ex>
   11cf2:	f1ba 0f01 	cmp.w	sl, #1
   11cf6:	4604      	mov	r4, r0
   11cf8:	d101      	bne.n	11cfe <RsaPrivateDecryptEx+0x12c>
   11cfa:	4285      	cmp	r5, r0
   11cfc:	db56      	blt.n	11dac <RsaPrivateDecryptEx+0x1da>
   11cfe:	2c00      	cmp	r4, #0
   11d00:	db21      	blt.n	11d46 <RsaPrivateDecryptEx+0x174>
   11d02:	990b      	ldr	r1, [sp, #44]	; 0x2c
   11d04:	b1f9      	cbz	r1, 11d46 <RsaPrivateDecryptEx+0x174>
   11d06:	f1b9 0f00 	cmp.w	r9, #0
   11d0a:	d146      	bne.n	11d9a <RsaPrivateDecryptEx+0x1c8>
   11d0c:	f1ba 0f03 	cmp.w	sl, #3
   11d10:	d13e      	bne.n	11d90 <RsaPrivateDecryptEx+0x1be>
   11d12:	f8d7 2884 	ldr.w	r2, [r7, #2180]	; 0x884
   11d16:	464b      	mov	r3, r9
   11d18:	4648      	mov	r0, r9
   11d1a:	f105 3eff 	add.w	lr, r5, #4294967295
   11d1e:	1a51      	subs	r1, r2, r1
   11d20:	f8d7 2890 	ldr.w	r2, [r7, #2192]	; 0x890
   11d24:	429a      	cmp	r2, r3
   11d26:	d81e      	bhi.n	11d66 <RsaPrivateDecryptEx+0x194>
   11d28:	1b2a      	subs	r2, r5, r4
   11d2a:	f06f 0582 	mvn.w	r5, #130	; 0x82
   11d2e:	0fd2      	lsrs	r2, r2, #31
   11d30:	406c      	eors	r4, r5
   11d32:	2100      	movs	r1, #0
   11d34:	3a01      	subs	r2, #1
   11d36:	4014      	ands	r4, r2
   11d38:	ea84 0005 	eor.w	r0, r4, r5
   11d3c:	f7ff f9c3 	bl	110c6 <ctMaskNotEq>
   11d40:	b240      	sxtb	r0, r0
   11d42:	4004      	ands	r4, r0
   11d44:	406c      	eors	r4, r5
   11d46:	2306      	movs	r3, #6
   11d48:	f8c7 388c 	str.w	r3, [r7, #2188]	; 0x88c
   11d4c:	f114 0f6c 	cmn.w	r4, #108	; 0x6c
   11d50:	f47f af67 	bne.w	11c22 <RsaPrivateDecryptEx+0x50>
   11d54:	4620      	mov	r0, r4
   11d56:	b00d      	add	sp, #52	; 0x34
   11d58:	e8bd 8ff0 	ldmia.w	sp!, {r4, r5, r6, r7, r8, r9, sl, fp, pc}
   11d5c:	f8c7 8884 	str.w	r8, [r7, #2180]	; 0x884
   11d60:	f887 3898 	strb.w	r3, [r7, #2200]	; 0x898
   11d64:	e780      	b.n	11c68 <RsaPrivateDecryptEx+0x96>
   11d66:	f8d7 2884 	ldr.w	r2, [r7, #2180]	; 0x884
   11d6a:	eb01 0c03 	add.w	ip, r1, r3
   11d6e:	ea4f 7cdc 	mov.w	ip, ip, lsr #31
   11d72:	f10c 3cff 	add.w	ip, ip, #4294967295
   11d76:	5cd2      	ldrb	r2, [r2, r3]
   11d78:	3301      	adds	r3, #1
   11d7a:	f808 2000 	strb.w	r2, [r8, r0]
   11d7e:	ebae 0200 	sub.w	r2, lr, r0
   11d82:	0fd2      	lsrs	r2, r2, #31
   11d84:	3a01      	subs	r2, #1
   11d86:	ea0c 0c02 	and.w	ip, ip, r2
   11d8a:	eba0 000c 	sub.w	r0, r0, ip
   11d8e:	e7c7      	b.n	11d20 <RsaPrivateDecryptEx+0x14e>
   11d90:	4622      	mov	r2, r4
   11d92:	4640      	mov	r0, r8
   11d94:	f7fe eb4a 	blx	1042c <memcpy@plt>
   11d98:	e7c6      	b.n	11d28 <RsaPrivateDecryptEx+0x156>
   11d9a:	f8c9 1000 	str.w	r1, [r9]
   11d9e:	e7c3      	b.n	11d28 <RsaPrivateDecryptEx+0x156>
   11da0:	f06f 04bf 	mvn.w	r4, #191	; 0xbf
   11da4:	e73d      	b.n	11c22 <RsaPrivateDecryptEx+0x50>
   11da6:	f06f 047c 	mvn.w	r4, #124	; 0x7c
   11daa:	e73a      	b.n	11c22 <RsaPrivateDecryptEx+0x50>
   11dac:	f06f 0482 	mvn.w	r4, #130	; 0x82
   11db0:	e737      	b.n	11c22 <RsaPrivateDecryptEx+0x50>
   11db2:	f06f 04ac 	mvn.w	r4, #172	; 0xac
   11db6:	e7cd      	b.n	11d54 <RsaPrivateDecryptEx+0x182>

00011db8 <wc_RsaPrivateDecrypt>:
   11db8:	b570      	push	{r4, r5, r6, lr}
   11dba:	b08c      	sub	sp, #48	; 0x30
   11dbc:	2602      	movs	r6, #2
   11dbe:	9d10      	ldr	r5, [sp, #64]	; 0x40
   11dc0:	f505 5480 	add.w	r4, r5, #4096	; 0x1000
   11dc4:	f8d4 4894 	ldr.w	r4, [r4, #2196]	; 0x894
   11dc8:	9501      	str	r5, [sp, #4]
   11dca:	9603      	str	r6, [sp, #12]
   11dcc:	2603      	movs	r6, #3
   11dce:	9602      	str	r6, [sp, #8]
   11dd0:	940a      	str	r4, [sp, #40]	; 0x28
   11dd2:	2400      	movs	r4, #0
   11dd4:	9400      	str	r4, [sp, #0]
   11dd6:	e9cd 4404 	strd	r4, r4, [sp, #16]
   11dda:	e9cd 4406 	strd	r4, r4, [sp, #24]
   11dde:	e9cd 4408 	strd	r4, r4, [sp, #32]
   11de2:	f7ff fef6 	bl	11bd2 <RsaPrivateDecryptEx>
   11de6:	b00c      	add	sp, #48	; 0x30
   11de8:	bd70      	pop	{r4, r5, r6, pc}

00011dea <wc_RsaSSL_VerifyInline>:
   11dea:	b510      	push	{r4, lr}
   11dec:	f503 5480 	add.w	r4, r3, #4096	; 0x1000
   11df0:	b08c      	sub	sp, #48	; 0x30
   11df2:	f8d4 4894 	ldr.w	r4, [r4, #2196]	; 0x894
   11df6:	e9cd 2300 	strd	r2, r3, [sp]
   11dfa:	460b      	mov	r3, r1
   11dfc:	4602      	mov	r2, r0
   11dfe:	940a      	str	r4, [sp, #40]	; 0x28
   11e00:	2400      	movs	r4, #0
   11e02:	e9cd 4404 	strd	r4, r4, [sp, #16]
   11e06:	e9cd 4406 	strd	r4, r4, [sp, #24]
   11e0a:	e9cd 4408 	strd	r4, r4, [sp, #32]
   11e0e:	2401      	movs	r4, #1
   11e10:	e9cd 4402 	strd	r4, r4, [sp, #8]
   11e14:	f7ff fedd 	bl	11bd2 <RsaPrivateDecryptEx>
   11e18:	b00c      	add	sp, #48	; 0x30
   11e1a:	bd10      	pop	{r4, pc}

00011e1c <wc_RsaSSL_Verify_ex2>:
   11e1c:	b5f0      	push	{r4, r5, r6, r7, lr}
   11e1e:	b08f      	sub	sp, #60	; 0x3c
   11e20:	4604      	mov	r4, r0
   11e22:	9e14      	ldr	r6, [sp, #80]	; 0x50
   11e24:	930d      	str	r3, [sp, #52]	; 0x34
   11e26:	f89d 7058 	ldrb.w	r7, [sp, #88]	; 0x58
   11e2a:	b1e6      	cbz	r6, 11e66 <wc_RsaSSL_Verify_ex2+0x4a>
   11e2c:	4638      	mov	r0, r7
   11e2e:	f506 5580 	add.w	r5, r6, #4096	; 0x1000
   11e32:	f7ff fd9f 	bl	11974 <wc_hash2mgf>
   11e36:	f8d5 5894 	ldr.w	r5, [r5, #2196]	; 0x894
   11e3a:	9601      	str	r6, [sp, #4]
   11e3c:	e9cd 7005 	strd	r7, r0, [sp, #20]
   11e40:	9b0d      	ldr	r3, [sp, #52]	; 0x34
   11e42:	9815      	ldr	r0, [sp, #84]	; 0x54
   11e44:	950a      	str	r5, [sp, #40]	; 0x28
   11e46:	f04f 35ff 	mov.w	r5, #4294967295
   11e4a:	9004      	str	r0, [sp, #16]
   11e4c:	2001      	movs	r0, #1
   11e4e:	9509      	str	r5, [sp, #36]	; 0x24
   11e50:	2500      	movs	r5, #0
   11e52:	9500      	str	r5, [sp, #0]
   11e54:	e9cd 0002 	strd	r0, r0, [sp, #8]
   11e58:	4620      	mov	r0, r4
   11e5a:	e9cd 5507 	strd	r5, r5, [sp, #28]
   11e5e:	f7ff feb8 	bl	11bd2 <RsaPrivateDecryptEx>
   11e62:	b00f      	add	sp, #60	; 0x3c
   11e64:	bdf0      	pop	{r4, r5, r6, r7, pc}
   11e66:	f06f 00ac 	mvn.w	r0, #172	; 0xac
   11e6a:	e7fa      	b.n	11e62 <wc_RsaSSL_Verify_ex2+0x46>

00011e6c <wc_RsaSSL_Verify_ex>:
   11e6c:	b51f      	push	{r0, r1, r2, r3, r4, lr}
   11e6e:	2400      	movs	r4, #0
   11e70:	9402      	str	r4, [sp, #8]
   11e72:	9c07      	ldr	r4, [sp, #28]
   11e74:	9401      	str	r4, [sp, #4]
   11e76:	9c06      	ldr	r4, [sp, #24]
   11e78:	9400      	str	r4, [sp, #0]
   11e7a:	f7ff ffcf 	bl	11e1c <wc_RsaSSL_Verify_ex2>
   11e7e:	b004      	add	sp, #16
   11e80:	bd10      	pop	{r4, pc}

00011e82 <wc_RsaSSL_Verify>:
   11e82:	b513      	push	{r0, r1, r4, lr}
   11e84:	2400      	movs	r4, #0
   11e86:	9401      	str	r4, [sp, #4]
   11e88:	9c04      	ldr	r4, [sp, #16]
   11e8a:	9400      	str	r4, [sp, #0]
   11e8c:	f7ff ffee 	bl	11e6c <wc_RsaSSL_Verify_ex>
   11e90:	b002      	add	sp, #8
   11e92:	bd10      	pop	{r4, pc}

00011e94 <RsaPublicEncryptEx.constprop.0>:
   11e94:	e92d 4ff0 	stmdb	sp!, {r4, r5, r6, r7, r8, r9, sl, fp, lr}
   11e98:	b08b      	sub	sp, #44	; 0x2c
   11e9a:	460c      	mov	r4, r1
   11e9c:	4617      	mov	r7, r2
   11e9e:	4698      	mov	r8, r3
   11ea0:	4683      	mov	fp, r0
   11ea2:	9d14      	ldr	r5, [sp, #80]	; 0x50
   11ea4:	f8dd a070 	ldr.w	sl, [sp, #112]	; 0x70
   11ea8:	2800      	cmp	r0, #0
   11eaa:	d075      	beq.n	11f98 <RsaPublicEncryptEx.constprop.0+0x104>
   11eac:	2900      	cmp	r1, #0
   11eae:	d073      	beq.n	11f98 <RsaPublicEncryptEx.constprop.0+0x104>
   11eb0:	2a00      	cmp	r2, #0
   11eb2:	d071      	beq.n	11f98 <RsaPublicEncryptEx.constprop.0+0x104>
   11eb4:	2d00      	cmp	r5, #0
   11eb6:	d06f      	beq.n	11f98 <RsaPublicEncryptEx.constprop.0+0x104>
   11eb8:	4628      	mov	r0, r5
   11eba:	f7ff fd65 	bl	11988 <wc_RsaEncryptSize>
   11ebe:	4540      	cmp	r0, r8
   11ec0:	4606      	mov	r6, r0
   11ec2:	dc6f      	bgt.n	11fa4 <RsaPublicEncryptEx.constprop.0+0x110>
   11ec4:	280a      	cmp	r0, #10
   11ec6:	dd6a      	ble.n	11f9e <RsaPublicEncryptEx.constprop.0+0x10a>
   11ec8:	f1a0 030b 	sub.w	r3, r0, #11
   11ecc:	429c      	cmp	r4, r3
   11ece:	d869      	bhi.n	11fa4 <RsaPublicEncryptEx.constprop.0+0x110>
   11ed0:	f505 5980 	add.w	r9, r5, #4096	; 0x1000
   11ed4:	f8d9 388c 	ldr.w	r3, [r9, #2188]	; 0x88c
   11ed8:	2b02      	cmp	r3, #2
   11eda:	d03b      	beq.n	11f54 <RsaPublicEncryptEx.constprop.0+0xc0>
   11edc:	dc0c      	bgt.n	11ef8 <RsaPublicEncryptEx.constprop.0+0x64>
   11ede:	2b01      	cmp	r3, #1
   11ee0:	d911      	bls.n	11f06 <RsaPublicEncryptEx.constprop.0+0x72>
   11ee2:	f06f 04bf 	mvn.w	r4, #191	; 0xbf
   11ee6:	f505 5380 	add.w	r3, r5, #4096	; 0x1000
   11eea:	2200      	movs	r2, #0
   11eec:	4628      	mov	r0, r5
   11eee:	f8c3 288c 	str.w	r2, [r3, #2188]	; 0x88c
   11ef2:	f7ff f8f3 	bl	110dc <wc_RsaCleanup>
   11ef6:	e04b      	b.n	11f90 <RsaPublicEncryptEx.constprop.0+0xfc>
   11ef8:	2b03      	cmp	r3, #3
   11efa:	d1f2      	bne.n	11ee2 <RsaPublicEncryptEx.constprop.0+0x4e>
   11efc:	f505 5380 	add.w	r3, r5, #4096	; 0x1000
   11f00:	f8d3 4890 	ldr.w	r4, [r3, #2192]	; 0x890
   11f04:	e041      	b.n	11f8a <RsaPublicEncryptEx.constprop.0+0xf6>
   11f06:	2301      	movs	r3, #1
   11f08:	4628      	mov	r0, r5
   11f0a:	f8c9 388c 	str.w	r3, [r9, #2188]	; 0x88c
   11f0e:	f009 f962 	bl	1b1d6 <sp_count_bits>
   11f12:	f8d9 3880 	ldr.w	r3, [r9, #2176]	; 0x880
   11f16:	4621      	mov	r1, r4
   11f18:	463a      	mov	r2, r7
   11f1a:	f8cd a004 	str.w	sl, [sp, #4]
   11f1e:	e9cd 0308 	strd	r0, r3, [sp, #32]
   11f22:	2300      	movs	r3, #0
   11f24:	4658      	mov	r0, fp
   11f26:	9307      	str	r3, [sp, #28]
   11f28:	9b1b      	ldr	r3, [sp, #108]	; 0x6c
   11f2a:	9306      	str	r3, [sp, #24]
   11f2c:	9b1a      	ldr	r3, [sp, #104]	; 0x68
   11f2e:	9305      	str	r3, [sp, #20]
   11f30:	9b19      	ldr	r3, [sp, #100]	; 0x64
   11f32:	9304      	str	r3, [sp, #16]
   11f34:	f89d 3060 	ldrb.w	r3, [sp, #96]	; 0x60
   11f38:	9303      	str	r3, [sp, #12]
   11f3a:	9b17      	ldr	r3, [sp, #92]	; 0x5c
   11f3c:	9302      	str	r3, [sp, #8]
   11f3e:	f89d 3058 	ldrb.w	r3, [sp, #88]	; 0x58
   11f42:	9300      	str	r3, [sp, #0]
   11f44:	4633      	mov	r3, r6
   11f46:	f7ff fae5 	bl	11514 <wc_RsaPad_ex>
   11f4a:	1e04      	subs	r4, r0, #0
   11f4c:	db1d      	blt.n	11f8a <RsaPublicEncryptEx.constprop.0+0xf6>
   11f4e:	2302      	movs	r3, #2
   11f50:	f8c9 388c 	str.w	r3, [r9, #2188]	; 0x88c
   11f54:	9b15      	ldr	r3, [sp, #84]	; 0x54
   11f56:	f505 5980 	add.w	r9, r5, #4096	; 0x1000
   11f5a:	463a      	mov	r2, r7
   11f5c:	4631      	mov	r1, r6
   11f5e:	4638      	mov	r0, r7
   11f60:	f8c9 8890 	str.w	r8, [r9, #2192]	; 0x890
   11f64:	e9cd 3500 	strd	r3, r5, [sp]
   11f68:	f505 53c4 	add.w	r3, r5, #6272	; 0x1880
   11f6c:	3310      	adds	r3, #16
   11f6e:	f8cd a008 	str.w	sl, [sp, #8]
   11f72:	f7ff fe21 	bl	11bb8 <wc_RsaFunction>
   11f76:	1e04      	subs	r4, r0, #0
   11f78:	da02      	bge.n	11f80 <RsaPublicEncryptEx.constprop.0+0xec>
   11f7a:	f114 0f6c 	cmn.w	r4, #108	; 0x6c
   11f7e:	d1b2      	bne.n	11ee6 <RsaPublicEncryptEx.constprop.0+0x52>
   11f80:	2303      	movs	r3, #3
   11f82:	2c00      	cmp	r4, #0
   11f84:	f8c9 388c 	str.w	r3, [r9, #2188]	; 0x88c
   11f88:	dab8      	bge.n	11efc <RsaPublicEncryptEx.constprop.0+0x68>
   11f8a:	f114 0f6c 	cmn.w	r4, #108	; 0x6c
   11f8e:	d1aa      	bne.n	11ee6 <RsaPublicEncryptEx.constprop.0+0x52>
   11f90:	4620      	mov	r0, r4
   11f92:	b00b      	add	sp, #44	; 0x2c
   11f94:	e8bd 8ff0 	ldmia.w	sp!, {r4, r5, r6, r7, r8, r9, sl, fp, pc}
   11f98:	f06f 04ac 	mvn.w	r4, #172	; 0xac
   11f9c:	e7f8      	b.n	11f90 <RsaPublicEncryptEx.constprop.0+0xfc>
   11f9e:	f06f 04e9 	mvn.w	r4, #233	; 0xe9
   11fa2:	e7f5      	b.n	11f90 <RsaPublicEncryptEx.constprop.0+0xfc>
   11fa4:	f06f 0482 	mvn.w	r4, #130	; 0x82
   11fa8:	e7f2      	b.n	11f90 <RsaPublicEncryptEx.constprop.0+0xfc>

00011faa <wc_RsaSSL_Sign>:
   11faa:	b510      	push	{r4, lr}
   11fac:	b08a      	sub	sp, #40	; 0x28
   11fae:	f04f 0c01 	mov.w	ip, #1
   11fb2:	9c0d      	ldr	r4, [sp, #52]	; 0x34
   11fb4:	9408      	str	r4, [sp, #32]
   11fb6:	2400      	movs	r4, #0
   11fb8:	e9cd 4403 	strd	r4, r4, [sp, #12]
   11fbc:	e9cd 4405 	strd	r4, r4, [sp, #20]
   11fc0:	9407      	str	r4, [sp, #28]
   11fc2:	2402      	movs	r4, #2
   11fc4:	e9cd 4c01 	strd	r4, ip, [sp, #4]
   11fc8:	9c0c      	ldr	r4, [sp, #48]	; 0x30
   11fca:	9400      	str	r4, [sp, #0]
   11fcc:	f7ff ff62 	bl	11e94 <RsaPublicEncryptEx.constprop.0>
   11fd0:	b00a      	add	sp, #40	; 0x28
   11fd2:	bd10      	pop	{r4, pc}

00011fd4 <_ifc_pairwise_consistency_test>:
   11fd4:	e92d 41ff 	stmdb	sp!, {r0, r1, r2, r3, r4, r5, r6, r7, r8, lr}
   11fd8:	4607      	mov	r7, r0
   11fda:	460c      	mov	r4, r1
   11fdc:	4822      	ldr	r0, [pc, #136]	; (12068 <_ifc_pairwise_consistency_test+0x94>)
   11fde:	f7fe ea3e 	blx	1045c <strlen@plt>
   11fe2:	4680      	mov	r8, r0
   11fe4:	4638      	mov	r0, r7
   11fe6:	f7ff fccf 	bl	11988 <wc_RsaEncryptSize>
   11fea:	4606      	mov	r6, r0
   11fec:	f7fe ea2a 	blx	10444 <malloc@plt>
   11ff0:	4605      	mov	r5, r0
   11ff2:	b3a8      	cbz	r0, 12060 <_ifc_pairwise_consistency_test+0x8c>
   11ff4:	4632      	mov	r2, r6
   11ff6:	2100      	movs	r1, #0
   11ff8:	f7fe ea36 	blx	10468 <memset@plt>
   11ffc:	481a      	ldr	r0, [pc, #104]	; (12068 <_ifc_pairwise_consistency_test+0x94>)
   11ffe:	4633      	mov	r3, r6
   12000:	462a      	mov	r2, r5
   12002:	4641      	mov	r1, r8
   12004:	e9cd 7400 	strd	r7, r4, [sp]
   12008:	9503      	str	r5, [sp, #12]
   1200a:	f7ff ffce 	bl	11faa <wc_RsaSSL_Sign>
   1200e:	1e04      	subs	r4, r0, #0
   12010:	dd1f      	ble.n	12052 <_ifc_pairwise_consistency_test+0x7e>
   12012:	4621      	mov	r1, r4
   12014:	463b      	mov	r3, r7
   12016:	aa03      	add	r2, sp, #12
   12018:	4628      	mov	r0, r5
   1201a:	f7ff fee6 	bl	11dea <wc_RsaSSL_VerifyInline>
   1201e:	4626      	mov	r6, r4
   12020:	1e04      	subs	r4, r0, #0
   12022:	dd16      	ble.n	12052 <_ifc_pairwise_consistency_test+0x7e>
   12024:	45a0      	cmp	r8, r4
   12026:	d116      	bne.n	12056 <_ifc_pairwise_consistency_test+0x82>
   12028:	4622      	mov	r2, r4
   1202a:	490f      	ldr	r1, [pc, #60]	; (12068 <_ifc_pairwise_consistency_test+0x94>)
   1202c:	9803      	ldr	r0, [sp, #12]
   1202e:	f7fe ea04 	blx	10438 <memcmp@plt>
   12032:	1e04      	subs	r4, r0, #0
   12034:	4b0d      	ldr	r3, [pc, #52]	; (1206c <_ifc_pairwise_consistency_test+0x98>)
   12036:	bf18      	it	ne
   12038:	461c      	movne	r4, r3
   1203a:	442e      	add	r6, r5
   1203c:	462b      	mov	r3, r5
   1203e:	2200      	movs	r2, #0
   12040:	42b3      	cmp	r3, r6
   12042:	d10a      	bne.n	1205a <_ifc_pairwise_consistency_test+0x86>
   12044:	4628      	mov	r0, r5
   12046:	f7fe e9e6 	blx	10414 <free@plt>
   1204a:	4620      	mov	r0, r4
   1204c:	b004      	add	sp, #16
   1204e:	e8bd 81f0 	ldmia.w	sp!, {r4, r5, r6, r7, r8, pc}
   12052:	2c00      	cmp	r4, #0
   12054:	e7ee      	b.n	12034 <_ifc_pairwise_consistency_test+0x60>
   12056:	4c05      	ldr	r4, [pc, #20]	; (1206c <_ifc_pairwise_consistency_test+0x98>)
   12058:	e7ef      	b.n	1203a <_ifc_pairwise_consistency_test+0x66>
   1205a:	f803 2b01 	strb.w	r2, [r3], #1
   1205e:	e7ef      	b.n	12040 <_ifc_pairwise_consistency_test+0x6c>
   12060:	f06f 047c 	mvn.w	r4, #124	; 0x7c
   12064:	e7f1      	b.n	1204a <_ifc_pairwise_consistency_test+0x76>
   12066:	bf00      	nop
   12068:	0001cc24 	.word	0x0001cc24
   1206c:	fffffefa 	.word	0xfffffefa

00012070 <wc_RsaPublicEncrypt>:
   12070:	b530      	push	{r4, r5, lr}
   12072:	b08b      	sub	sp, #44	; 0x2c
   12074:	2502      	movs	r5, #2
   12076:	9c0f      	ldr	r4, [sp, #60]	; 0x3c
   12078:	9502      	str	r5, [sp, #8]
   1207a:	9408      	str	r4, [sp, #32]
   1207c:	2400      	movs	r4, #0
   1207e:	9401      	str	r4, [sp, #4]
   12080:	e9cd 4403 	strd	r4, r4, [sp, #12]
   12084:	e9cd 4405 	strd	r4, r4, [sp, #20]
   12088:	9407      	str	r4, [sp, #28]
   1208a:	9c0e      	ldr	r4, [sp, #56]	; 0x38
   1208c:	9400      	str	r4, [sp, #0]
   1208e:	f7ff ff01 	bl	11e94 <RsaPublicEncryptEx.constprop.0>
   12092:	b00b      	add	sp, #44	; 0x2c
   12094:	bd30      	pop	{r4, r5, pc}

00012096 <wc_MakeRsaKey>:
   12096:	e92d 4ff0 	stmdb	sp!, {r4, r5, r6, r7, r8, r9, sl, fp, lr}
   1209a:	4607      	mov	r7, r0
   1209c:	ed2d 8b08 	vpush	{d8-d11}
   120a0:	b089      	sub	sp, #36	; 0x24
   120a2:	ee08 3a90 	vmov	s17, r3
   120a6:	2300      	movs	r3, #0
   120a8:	ee09 2a10 	vmov	s18, r2
   120ac:	9103      	str	r1, [sp, #12]
   120ae:	9307      	str	r3, [sp, #28]
   120b0:	2800      	cmp	r0, #0
   120b2:	f000 81bb 	beq.w	1242c <wc_MakeRsaKey+0x396>
   120b6:	ee18 3a90 	vmov	r3, s17
   120ba:	2b00      	cmp	r3, #0
   120bc:	f000 81b6 	beq.w	1242c <wc_MakeRsaKey+0x396>
   120c0:	f44f 7044 	mov.w	r0, #784	; 0x310
   120c4:	f7fe e9be 	blx	10444 <malloc@plt>
   120c8:	4604      	mov	r4, r0
   120ca:	f44f 7044 	mov.w	r0, #784	; 0x310
   120ce:	f7fe e9ba 	blx	10444 <malloc@plt>
   120d2:	4605      	mov	r5, r0
   120d4:	f44f 7044 	mov.w	r0, #784	; 0x310
   120d8:	f7fe e9b4 	blx	10444 <malloc@plt>
   120dc:	4681      	mov	r9, r0
   120de:	f44f 7044 	mov.w	r0, #784	; 0x310
   120e2:	f7fe e9b0 	blx	10444 <malloc@plt>
   120e6:	ee08 0a10 	vmov	s16, r0
   120ea:	f44f 7044 	mov.w	r0, #784	; 0x310
   120ee:	f7fe e9aa 	blx	10444 <malloc@plt>
   120f2:	4606      	mov	r6, r0
   120f4:	2c00      	cmp	r4, #0
   120f6:	f000 8179 	beq.w	123ec <wc_MakeRsaKey+0x356>
   120fa:	2d00      	cmp	r5, #0
   120fc:	f000 819e 	beq.w	1243c <wc_MakeRsaKey+0x3a6>
   12100:	f1b9 0f00 	cmp.w	r9, #0
   12104:	f000 819a 	beq.w	1243c <wc_MakeRsaKey+0x3a6>
   12108:	ee18 3a10 	vmov	r3, s16
   1210c:	2b00      	cmp	r3, #0
   1210e:	f000 8195 	beq.w	1243c <wc_MakeRsaKey+0x3a6>
   12112:	2800      	cmp	r0, #0
   12114:	f000 8192 	beq.w	1243c <wc_MakeRsaKey+0x3a6>
   12118:	9b03      	ldr	r3, [sp, #12]
   1211a:	f5a3 7300 	sub.w	r3, r3, #512	; 0x200
   1211e:	f5b3 6f60 	cmp.w	r3, #3584	; 0xe00
   12122:	f200 818e 	bhi.w	12442 <wc_MakeRsaKey+0x3ac>
   12126:	ee19 3a10 	vmov	r3, s18
   1212a:	2b02      	cmp	r3, #2
   1212c:	f340 8189 	ble.w	12442 <wc_MakeRsaKey+0x3ac>
   12130:	07db      	lsls	r3, r3, #31
   12132:	f140 8186 	bpl.w	12442 <wc_MakeRsaKey+0x3ac>
   12136:	2300      	movs	r3, #0
   12138:	4629      	mov	r1, r5
   1213a:	464a      	mov	r2, r9
   1213c:	4620      	mov	r0, r4
   1213e:	e9cd 6300 	strd	r6, r3, [sp]
   12142:	ee18 3a10 	vmov	r3, s16
   12146:	f008 ffc4 	bl	1b0d2 <sp_init_multi>
   1214a:	4601      	mov	r1, r0
   1214c:	2800      	cmp	r0, #0
   1214e:	f040 8125 	bne.w	1239c <wc_MakeRsaKey+0x306>
   12152:	ee19 1a10 	vmov	r1, s18
   12156:	4630      	mov	r0, r6
   12158:	f009 f894 	bl	1b284 <sp_set_int>
   1215c:	4601      	mov	r1, r0
   1215e:	2800      	cmp	r0, #0
   12160:	f040 811c 	bne.w	1239c <wc_MakeRsaKey+0x306>
   12164:	9b03      	ldr	r3, [sp, #12]
   12166:	9104      	str	r1, [sp, #16]
   12168:	ea4f 1a23 	mov.w	sl, r3, asr #4
   1216c:	4650      	mov	r0, sl
   1216e:	f7fe e96a 	blx	10444 <malloc@plt>
   12172:	4680      	mov	r8, r0
   12174:	9904      	ldr	r1, [sp, #16]
   12176:	2800      	cmp	r0, #0
   12178:	f040 8166 	bne.w	12448 <wc_MakeRsaKey+0x3b2>
   1217c:	f06f 017c 	mvn.w	r1, #124	; 0x7c
   12180:	e10c      	b.n	1239c <wc_MakeRsaKey+0x306>
   12182:	9b07      	ldr	r3, [sp, #28]
   12184:	2b00      	cmp	r3, #0
   12186:	f000 819b 	beq.w	124c0 <wc_MakeRsaKey+0x42a>
   1218a:	44c2      	add	sl, r8
   1218c:	4643      	mov	r3, r8
   1218e:	2200      	movs	r2, #0
   12190:	459a      	cmp	sl, r3
   12192:	f040 8128 	bne.w	123e6 <wc_MakeRsaKey+0x350>
   12196:	4640      	mov	r0, r8
   12198:	9104      	str	r1, [sp, #16]
   1219a:	f7fe e93c 	blx	10414 <free@plt>
   1219e:	9904      	ldr	r1, [sp, #16]
   121a0:	2900      	cmp	r1, #0
   121a2:	f040 80fb 	bne.w	1239c <wc_MakeRsaKey+0x306>
   121a6:	4629      	mov	r1, r5
   121a8:	4620      	mov	r0, r4
   121aa:	f009 f807 	bl	1b1bc <sp_cmp>
   121ae:	2800      	cmp	r0, #0
   121b0:	da13      	bge.n	121da <wc_MakeRsaKey+0x144>
   121b2:	4649      	mov	r1, r9
   121b4:	4620      	mov	r0, r4
   121b6:	f008 ffe9 	bl	1b18c <sp_copy>
   121ba:	4601      	mov	r1, r0
   121bc:	2800      	cmp	r0, #0
   121be:	f040 80ed 	bne.w	1239c <wc_MakeRsaKey+0x306>
   121c2:	4621      	mov	r1, r4
   121c4:	4628      	mov	r0, r5
   121c6:	f008 ffe1 	bl	1b18c <sp_copy>
   121ca:	4601      	mov	r1, r0
   121cc:	2800      	cmp	r0, #0
   121ce:	f040 80e5 	bne.w	1239c <wc_MakeRsaKey+0x306>
   121d2:	4629      	mov	r1, r5
   121d4:	4648      	mov	r0, r9
   121d6:	f008 ffd9 	bl	1b18c <sp_copy>
   121da:	f507 6344 	add.w	r3, r7, #3136	; 0xc40
   121de:	f507 7b44 	add.w	fp, r7, #784	; 0x310
   121e2:	f507 6ac4 	add.w	sl, r7, #1568	; 0x620
   121e6:	f507 6813 	add.w	r8, r7, #2352	; 0x930
   121ea:	ee09 3a90 	vmov	s19, r3
   121ee:	2300      	movs	r3, #0
   121f0:	4659      	mov	r1, fp
   121f2:	4652      	mov	r2, sl
   121f4:	4638      	mov	r0, r7
   121f6:	edcd 9a00 	vstr	s19, [sp]
   121fa:	9301      	str	r3, [sp, #4]
   121fc:	4643      	mov	r3, r8
   121fe:	f008 ff68 	bl	1b0d2 <sp_init_multi>
   12202:	4601      	mov	r1, r0
   12204:	2800      	cmp	r0, #0
   12206:	f040 80c9 	bne.w	1239c <wc_MakeRsaKey+0x306>
   1220a:	f507 6375 	add.w	r3, r7, #3920	; 0xf50
   1220e:	e9cd 1100 	strd	r1, r1, [sp]
   12212:	ee0a 3a10 	vmov	s20, r3
   12216:	f507 5393 	add.w	r3, r7, #4704	; 0x1260
   1221a:	ee0a 3a90 	vmov	s21, r3
   1221e:	f507 53ab 	add.w	r3, r7, #5472	; 0x1560
   12222:	3310      	adds	r3, #16
   12224:	9304      	str	r3, [sp, #16]
   12226:	460b      	mov	r3, r1
   12228:	9a04      	ldr	r2, [sp, #16]
   1222a:	ee1a 0a10 	vmov	r0, s20
   1222e:	ee1a 1a90 	vmov	r1, s21
   12232:	f008 ff4e 	bl	1b0d2 <sp_init_multi>
   12236:	4601      	mov	r1, r0
   12238:	2800      	cmp	r0, #0
   1223a:	f040 80af 	bne.w	1239c <wc_MakeRsaKey+0x306>
   1223e:	2101      	movs	r1, #1
   12240:	464a      	mov	r2, r9
   12242:	4620      	mov	r0, r4
   12244:	f009 f880 	bl	1b348 <sp_sub_d>
   12248:	4601      	mov	r1, r0
   1224a:	2800      	cmp	r0, #0
   1224c:	f040 80a6 	bne.w	1239c <wc_MakeRsaKey+0x306>
   12250:	2101      	movs	r1, #1
   12252:	ee18 2a10 	vmov	r2, s16
   12256:	4628      	mov	r0, r5
   12258:	f009 f876 	bl	1b348 <sp_sub_d>
   1225c:	4601      	mov	r1, r0
   1225e:	2800      	cmp	r0, #0
   12260:	f040 809c 	bne.w	1239c <wc_MakeRsaKey+0x306>
   12264:	ee18 1a10 	vmov	r1, s16
   12268:	4632      	mov	r2, r6
   1226a:	4648      	mov	r0, r9
   1226c:	f009 fa99 	bl	1b7a2 <sp_mul>
   12270:	4601      	mov	r1, r0
   12272:	2800      	cmp	r0, #0
   12274:	f040 8092 	bne.w	1239c <wc_MakeRsaKey+0x306>
   12278:	ee19 1a10 	vmov	r1, s18
   1227c:	4658      	mov	r0, fp
   1227e:	f009 f801 	bl	1b284 <sp_set_int>
   12282:	4601      	mov	r1, r0
   12284:	2800      	cmp	r0, #0
   12286:	f040 8089 	bne.w	1239c <wc_MakeRsaKey+0x306>
   1228a:	9b03      	ldr	r3, [sp, #12]
   1228c:	3b01      	subs	r3, #1
   1228e:	ee0b 3a10 	vmov	s22, r3
   12292:	4630      	mov	r0, r6
   12294:	f00a fa1c 	bl	1c6d0 <get_digit_count>
   12298:	4601      	mov	r1, r0
   1229a:	ee18 2a90 	vmov	r2, s17
   1229e:	4640      	mov	r0, r8
   122a0:	f00a fa1c 	bl	1c6dc <mp_rand>
   122a4:	4601      	mov	r1, r0
   122a6:	2800      	cmp	r0, #0
   122a8:	d178      	bne.n	1239c <wc_MakeRsaKey+0x306>
   122aa:	4640      	mov	r0, r8
   122ac:	f008 ffb1 	bl	1b212 <sp_set_bit>
   122b0:	4601      	mov	r1, r0
   122b2:	2800      	cmp	r0, #0
   122b4:	d172      	bne.n	1239c <wc_MakeRsaKey+0x306>
   122b6:	ee1b 1a10 	vmov	r1, s22
   122ba:	4640      	mov	r0, r8
   122bc:	f008 ffa9 	bl	1b212 <sp_set_bit>
   122c0:	4601      	mov	r1, r0
   122c2:	2800      	cmp	r0, #0
   122c4:	d16a      	bne.n	1239c <wc_MakeRsaKey+0x306>
   122c6:	4631      	mov	r1, r6
   122c8:	ee19 2a90 	vmov	r2, s19
   122cc:	4640      	mov	r0, r8
   122ce:	f00a f8c5 	bl	1c45c <sp_gcd>
   122d2:	4601      	mov	r1, r0
   122d4:	2800      	cmp	r0, #0
   122d6:	d161      	bne.n	1239c <wc_MakeRsaKey+0x306>
   122d8:	f8d7 3c40 	ldr.w	r3, [r7, #3136]	; 0xc40
   122dc:	2b01      	cmp	r3, #1
   122de:	d1d8      	bne.n	12292 <wc_MakeRsaKey+0x1fc>
   122e0:	f8d7 3c48 	ldr.w	r3, [r7, #3144]	; 0xc48
   122e4:	2b01      	cmp	r3, #1
   122e6:	d1d4      	bne.n	12292 <wc_MakeRsaKey+0x1fc>
   122e8:	ee19 1a10 	vmov	r1, s18
   122ec:	465a      	mov	r2, fp
   122ee:	4640      	mov	r0, r8
   122f0:	f009 f834 	bl	1b35c <sp_mul_d>
   122f4:	4601      	mov	r1, r0
   122f6:	2800      	cmp	r0, #0
   122f8:	d150      	bne.n	1239c <wc_MakeRsaKey+0x306>
   122fa:	4631      	mov	r1, r6
   122fc:	4652      	mov	r2, sl
   122fe:	4658      	mov	r0, fp
   12300:	f009 fb16 	bl	1b930 <sp_invmod>
   12304:	4601      	mov	r1, r0
   12306:	2800      	cmp	r0, #0
   12308:	d148      	bne.n	1239c <wc_MakeRsaKey+0x306>
   1230a:	4641      	mov	r1, r8
   1230c:	4653      	mov	r3, sl
   1230e:	4632      	mov	r2, r6
   12310:	4650      	mov	r0, sl
   12312:	f009 fad2 	bl	1b8ba <sp_mulmod>
   12316:	4601      	mov	r1, r0
   12318:	2800      	cmp	r0, #0
   1231a:	d13f      	bne.n	1239c <wc_MakeRsaKey+0x306>
   1231c:	ee19 1a10 	vmov	r1, s18
   12320:	4658      	mov	r0, fp
   12322:	f008 ffaf 	bl	1b284 <sp_set_int>
   12326:	4601      	mov	r1, r0
   12328:	bbc0      	cbnz	r0, 1239c <wc_MakeRsaKey+0x306>
   1232a:	4629      	mov	r1, r5
   1232c:	463a      	mov	r2, r7
   1232e:	4620      	mov	r0, r4
   12330:	f009 fa37 	bl	1b7a2 <sp_mul>
   12334:	4601      	mov	r1, r0
   12336:	bb88      	cbnz	r0, 1239c <wc_MakeRsaKey+0x306>
   12338:	4649      	mov	r1, r9
   1233a:	ee1a 2a10 	vmov	r2, s20
   1233e:	4650      	mov	r0, sl
   12340:	f009 fa25 	bl	1b78e <sp_mod>
   12344:	4601      	mov	r1, r0
   12346:	bb48      	cbnz	r0, 1239c <wc_MakeRsaKey+0x306>
   12348:	ee18 1a10 	vmov	r1, s16
   1234c:	4650      	mov	r0, sl
   1234e:	ee1a 2a90 	vmov	r2, s21
   12352:	f009 fa1c 	bl	1b78e <sp_mod>
   12356:	4601      	mov	r1, r0
   12358:	bb00      	cbnz	r0, 1239c <wc_MakeRsaKey+0x306>
   1235a:	2102      	movs	r1, #2
   1235c:	4632      	mov	r2, r6
   1235e:	4620      	mov	r0, r4
   12360:	f008 fff2 	bl	1b348 <sp_sub_d>
   12364:	4601      	mov	r1, r0
   12366:	b9c8      	cbnz	r0, 1239c <wc_MakeRsaKey+0x306>
   12368:	4631      	mov	r1, r6
   1236a:	4622      	mov	r2, r4
   1236c:	9b04      	ldr	r3, [sp, #16]
   1236e:	4628      	mov	r0, r5
   12370:	f009 fdab 	bl	1beca <sp_exptmod>
   12374:	4601      	mov	r1, r0
   12376:	b988      	cbnz	r0, 1239c <wc_MakeRsaKey+0x306>
   12378:	4641      	mov	r1, r8
   1237a:	4620      	mov	r0, r4
   1237c:	f008 ff06 	bl	1b18c <sp_copy>
   12380:	4601      	mov	r1, r0
   12382:	b958      	cbnz	r0, 1239c <wc_MakeRsaKey+0x306>
   12384:	ee19 1a90 	vmov	r1, s19
   12388:	4628      	mov	r0, r5
   1238a:	f008 feff 	bl	1b18c <sp_copy>
   1238e:	4601      	mov	r1, r0
   12390:	b920      	cbnz	r0, 1239c <wc_MakeRsaKey+0x306>
   12392:	f507 5380 	add.w	r3, r7, #4096	; 0x1000
   12396:	2201      	movs	r2, #1
   12398:	f8c3 2888 	str.w	r2, [r3, #2184]	; 0x888
   1239c:	4648      	mov	r0, r9
   1239e:	9103      	str	r1, [sp, #12]
   123a0:	f008 fed5 	bl	1b14e <sp_clear>
   123a4:	ee18 0a10 	vmov	r0, s16
   123a8:	f008 fed1 	bl	1b14e <sp_clear>
   123ac:	4630      	mov	r0, r6
   123ae:	f008 fece 	bl	1b14e <sp_clear>
   123b2:	4620      	mov	r0, r4
   123b4:	f008 fecb 	bl	1b14e <sp_clear>
   123b8:	4628      	mov	r0, r5
   123ba:	f008 fec8 	bl	1b14e <sp_clear>
   123be:	9903      	ldr	r1, [sp, #12]
   123c0:	b931      	cbnz	r1, 123d0 <wc_MakeRsaKey+0x33a>
   123c2:	ee18 1a90 	vmov	r1, s17
   123c6:	4638      	mov	r0, r7
   123c8:	f7ff fe04 	bl	11fd4 <_ifc_pairwise_consistency_test>
   123cc:	4601      	mov	r1, r0
   123ce:	b120      	cbz	r0, 123da <wc_MakeRsaKey+0x344>
   123d0:	4638      	mov	r0, r7
   123d2:	9103      	str	r1, [sp, #12]
   123d4:	f7ff f853 	bl	1147e <wc_FreeRsaKey>
   123d8:	9903      	ldr	r1, [sp, #12]
   123da:	4620      	mov	r0, r4
   123dc:	9103      	str	r1, [sp, #12]
   123de:	f7fe e81a 	blx	10414 <free@plt>
   123e2:	9903      	ldr	r1, [sp, #12]
   123e4:	e004      	b.n	123f0 <wc_MakeRsaKey+0x35a>
   123e6:	f803 2b01 	strb.w	r2, [r3], #1
   123ea:	e6d1      	b.n	12190 <wc_MakeRsaKey+0xfa>
   123ec:	f06f 017c 	mvn.w	r1, #124	; 0x7c
   123f0:	b125      	cbz	r5, 123fc <wc_MakeRsaKey+0x366>
   123f2:	4628      	mov	r0, r5
   123f4:	9103      	str	r1, [sp, #12]
   123f6:	f7fe e80e 	blx	10414 <free@plt>
   123fa:	9903      	ldr	r1, [sp, #12]
   123fc:	f1b9 0f00 	cmp.w	r9, #0
   12400:	d004      	beq.n	1240c <wc_MakeRsaKey+0x376>
   12402:	4648      	mov	r0, r9
   12404:	9103      	str	r1, [sp, #12]
   12406:	f7fe e806 	blx	10414 <free@plt>
   1240a:	9903      	ldr	r1, [sp, #12]
   1240c:	ee18 3a10 	vmov	r3, s16
   12410:	b12b      	cbz	r3, 1241e <wc_MakeRsaKey+0x388>
   12412:	ee18 0a10 	vmov	r0, s16
   12416:	9103      	str	r1, [sp, #12]
   12418:	f7fd effc 	blx	10414 <free@plt>
   1241c:	9903      	ldr	r1, [sp, #12]
   1241e:	b13e      	cbz	r6, 12430 <wc_MakeRsaKey+0x39a>
   12420:	4630      	mov	r0, r6
   12422:	9103      	str	r1, [sp, #12]
   12424:	f7fd eff6 	blx	10414 <free@plt>
   12428:	9903      	ldr	r1, [sp, #12]
   1242a:	e001      	b.n	12430 <wc_MakeRsaKey+0x39a>
   1242c:	f06f 01ac 	mvn.w	r1, #172	; 0xac
   12430:	4608      	mov	r0, r1
   12432:	b009      	add	sp, #36	; 0x24
   12434:	ecbd 8b08 	vpop	{d8-d11}
   12438:	e8bd 8ff0 	ldmia.w	sp!, {r4, r5, r6, r7, r8, r9, sl, fp, pc}
   1243c:	f06f 017c 	mvn.w	r1, #124	; 0x7c
   12440:	e7cb      	b.n	123da <wc_MakeRsaKey+0x344>
   12442:	f06f 01ac 	mvn.w	r1, #172	; 0xac
   12446:	e7c8      	b.n	123da <wc_MakeRsaKey+0x344>
   12448:	f10a 33ff 	add.w	r3, sl, #4294967295
   1244c:	f10d 0b1c 	add.w	fp, sp, #28
   12450:	9107      	str	r1, [sp, #28]
   12452:	18c3      	adds	r3, r0, r3
   12454:	9304      	str	r3, [sp, #16]
   12456:	4641      	mov	r1, r8
   12458:	ee18 0a90 	vmov	r0, s17
   1245c:	4652      	mov	r2, sl
   1245e:	f7fe fd1b 	bl	10e98 <wc_RNG_GenerateBlock>
   12462:	4601      	mov	r1, r0
   12464:	2800      	cmp	r0, #0
   12466:	f47f ae90 	bne.w	1218a <wc_MakeRsaKey+0xf4>
   1246a:	f898 3000 	ldrb.w	r3, [r8]
   1246e:	4641      	mov	r1, r8
   12470:	4620      	mov	r0, r4
   12472:	9a04      	ldr	r2, [sp, #16]
   12474:	f063 037f 	orn	r3, r3, #127	; 0x7f
   12478:	f888 3000 	strb.w	r3, [r8]
   1247c:	9b04      	ldr	r3, [sp, #16]
   1247e:	781b      	ldrb	r3, [r3, #0]
   12480:	f043 0301 	orr.w	r3, r3, #1
   12484:	7013      	strb	r3, [r2, #0]
   12486:	4652      	mov	r2, sl
   12488:	f009 fdc8 	bl	1c01c <sp_read_unsigned_bin>
   1248c:	4601      	mov	r1, r0
   1248e:	2800      	cmp	r0, #0
   12490:	f47f ae7b 	bne.w	1218a <wc_MakeRsaKey+0xf4>
   12494:	ee18 3a90 	vmov	r3, s17
   12498:	4632      	mov	r2, r6
   1249a:	4620      	mov	r0, r4
   1249c:	e9cd b300 	strd	fp, r3, [sp]
   124a0:	9b03      	ldr	r3, [sp, #12]
   124a2:	f7fe fe43 	bl	1112c <_CheckProbablePrime>
   124a6:	4601      	mov	r1, r0
   124a8:	2800      	cmp	r0, #0
   124aa:	f47f ae6e 	bne.w	1218a <wc_MakeRsaKey+0xf4>
   124ae:	9b07      	ldr	r3, [sp, #28]
   124b0:	2b00      	cmp	r3, #0
   124b2:	d0d0      	beq.n	12456 <wc_MakeRsaKey+0x3c0>
   124b4:	9b03      	ldr	r3, [sp, #12]
   124b6:	9007      	str	r0, [sp, #28]
   124b8:	ea4f 0ba3 	mov.w	fp, r3, asr #2
   124bc:	f10b 0b20 	add.w	fp, fp, #32
   124c0:	4641      	mov	r1, r8
   124c2:	ee18 0a90 	vmov	r0, s17
   124c6:	4652      	mov	r2, sl
   124c8:	f7fe fce6 	bl	10e98 <wc_RNG_GenerateBlock>
   124cc:	4601      	mov	r1, r0
   124ce:	2800      	cmp	r0, #0
   124d0:	f47f ae5b 	bne.w	1218a <wc_MakeRsaKey+0xf4>
   124d4:	f898 3000 	ldrb.w	r3, [r8]
   124d8:	4641      	mov	r1, r8
   124da:	4628      	mov	r0, r5
   124dc:	9a04      	ldr	r2, [sp, #16]
   124de:	f063 037f 	orn	r3, r3, #127	; 0x7f
   124e2:	f888 3000 	strb.w	r3, [r8]
   124e6:	9b04      	ldr	r3, [sp, #16]
   124e8:	781b      	ldrb	r3, [r3, #0]
   124ea:	f043 0301 	orr.w	r3, r3, #1
   124ee:	7013      	strb	r3, [r2, #0]
   124f0:	4652      	mov	r2, sl
   124f2:	f009 fd93 	bl	1c01c <sp_read_unsigned_bin>
   124f6:	4601      	mov	r1, r0
   124f8:	2800      	cmp	r0, #0
   124fa:	f47f ae46 	bne.w	1218a <wc_MakeRsaKey+0xf4>
   124fe:	ab07      	add	r3, sp, #28
   12500:	4629      	mov	r1, r5
   12502:	4632      	mov	r2, r6
   12504:	4620      	mov	r0, r4
   12506:	9300      	str	r3, [sp, #0]
   12508:	edcd 8a01 	vstr	s17, [sp, #4]
   1250c:	9b03      	ldr	r3, [sp, #12]
   1250e:	f7fe fe0d 	bl	1112c <_CheckProbablePrime>
   12512:	4601      	mov	r1, r0
   12514:	2800      	cmp	r0, #0
   12516:	f47f ae38 	bne.w	1218a <wc_MakeRsaKey+0xf4>
   1251a:	9b07      	ldr	r3, [sp, #28]
   1251c:	2b00      	cmp	r3, #0
   1251e:	d0cf      	beq.n	124c0 <wc_MakeRsaKey+0x42a>
   12520:	4629      	mov	r1, r5
   12522:	464a      	mov	r2, r9
   12524:	4620      	mov	r0, r4
   12526:	f008 ff2a 	bl	1b37e <sp_sub>
   1252a:	4601      	mov	r1, r0
   1252c:	2800      	cmp	r0, #0
   1252e:	f47f ae2c 	bne.w	1218a <wc_MakeRsaKey+0xf4>
   12532:	4648      	mov	r0, r9
   12534:	9105      	str	r1, [sp, #20]
   12536:	f008 fe4e 	bl	1b1d6 <sp_count_bits>
   1253a:	4558      	cmp	r0, fp
   1253c:	9905      	ldr	r1, [sp, #20]
   1253e:	f73f ae20 	bgt.w	12182 <wc_MakeRsaKey+0xec>
   12542:	9107      	str	r1, [sp, #28]
   12544:	e7bc      	b.n	124c0 <wc_MakeRsaKey+0x42a>

00012546 <wc_RsaSetRNG>:
   12546:	b130      	cbz	r0, 12556 <wc_RsaSetRNG+0x10>
   12548:	b129      	cbz	r1, 12556 <wc_RsaSetRNG+0x10>
   1254a:	f500 5080 	add.w	r0, r0, #4096	; 0x1000
   1254e:	f8c0 1894 	str.w	r1, [r0, #2196]	; 0x894
   12552:	2000      	movs	r0, #0
   12554:	4770      	bx	lr
   12556:	f06f 00ac 	mvn.w	r0, #172	; 0xac
   1255a:	4770      	bx	lr

0001255c <ByteReverseWords>:
   1255c:	0892      	lsrs	r2, r2, #2
   1255e:	2300      	movs	r3, #0
   12560:	b510      	push	{r4, lr}
   12562:	f851 4023 	ldr.w	r4, [r1, r3, lsl #2]
   12566:	ba24      	rev	r4, r4
   12568:	f840 4023 	str.w	r4, [r0, r3, lsl #2]
   1256c:	3301      	adds	r3, #1
   1256e:	429a      	cmp	r2, r3
   12570:	d1f7      	bne.n	12562 <ByteReverseWords+0x6>
   12572:	bd10      	pop	{r4, pc}

00012574 <Transform>:
   12574:	6cc3      	ldr	r3, [r0, #76]	; 0x4c
   12576:	e92d 4ff0 	stmdb	sp!, {r4, r5, r6, r7, r8, r9, sl, fp, lr}
   1257a:	b099      	sub	sp, #100	; 0x64
   1257c:	9001      	str	r0, [sp, #4]
   1257e:	930f      	str	r3, [sp, #60]	; 0x3c
   12580:	6d03      	ldr	r3, [r0, #80]	; 0x50
   12582:	e9d1 a902 	ldrd	sl, r9, [r1, #8]
   12586:	9302      	str	r3, [sp, #8]
   12588:	6d43      	ldr	r3, [r0, #84]	; 0x54
   1258a:	9306      	str	r3, [sp, #24]
   1258c:	6d83      	ldr	r3, [r0, #88]	; 0x58
   1258e:	9d06      	ldr	r5, [sp, #24]
   12590:	9310      	str	r3, [sp, #64]	; 0x40
   12592:	6dc3      	ldr	r3, [r0, #92]	; 0x5c
   12594:	9806      	ldr	r0, [sp, #24]
   12596:	9c10      	ldr	r4, [sp, #64]	; 0x40
   12598:	9313      	str	r3, [sp, #76]	; 0x4c
   1259a:	680b      	ldr	r3, [r1, #0]
   1259c:	9307      	str	r3, [sp, #28]
   1259e:	4bd9      	ldr	r3, [pc, #868]	; (12904 <Transform+0x390>)
   125a0:	9a07      	ldr	r2, [sp, #28]
   125a2:	eb02 0e03 	add.w	lr, r2, r3
   125a6:	9a13      	ldr	r2, [sp, #76]	; 0x4c
   125a8:	4496      	add	lr, r2
   125aa:	9a0f      	ldr	r2, [sp, #60]	; 0x3c
   125ac:	eb0e 62f2 	add.w	r2, lr, r2, ror #27
   125b0:	ea80 0e04 	eor.w	lr, r0, r4
   125b4:	9802      	ldr	r0, [sp, #8]
   125b6:	ea0e 0e00 	and.w	lr, lr, r0
   125ba:	9802      	ldr	r0, [sp, #8]
   125bc:	ea8e 0e04 	eor.w	lr, lr, r4
   125c0:	4496      	add	lr, r2
   125c2:	684a      	ldr	r2, [r1, #4]
   125c4:	9208      	str	r2, [sp, #32]
   125c6:	9a06      	ldr	r2, [sp, #24]
   125c8:	ea82 00b0 	eor.w	r0, r2, r0, ror #2
   125cc:	9a0f      	ldr	r2, [sp, #60]	; 0x3c
   125ce:	4010      	ands	r0, r2
   125d0:	9a06      	ldr	r2, [sp, #24]
   125d2:	4050      	eors	r0, r2
   125d4:	9a08      	ldr	r2, [sp, #32]
   125d6:	441a      	add	r2, r3
   125d8:	4422      	add	r2, r4
   125da:	4410      	add	r0, r2
   125dc:	9a0f      	ldr	r2, [sp, #60]	; 0x3c
   125de:	eb00 60fe 	add.w	r0, r0, lr, ror #27
   125e2:	ea4f 04b2 	mov.w	r4, r2, ror #2
   125e6:	9a02      	ldr	r2, [sp, #8]
   125e8:	ea84 0cbe 	eor.w	ip, r4, lr, ror #2
   125ec:	ea0c 0c00 	and.w	ip, ip, r0
   125f0:	ea84 07b2 	eor.w	r7, r4, r2, ror #2
   125f4:	ea8c 0c04 	eor.w	ip, ip, r4
   125f8:	ea07 070e 	and.w	r7, r7, lr
   125fc:	ea87 07b2 	eor.w	r7, r7, r2, ror #2
   12600:	eb0a 0203 	add.w	r2, sl, r3
   12604:	442a      	add	r2, r5
   12606:	9d02      	ldr	r5, [sp, #8]
   12608:	4417      	add	r7, r2
   1260a:	eb09 0203 	add.w	r2, r9, r3
   1260e:	eb07 67f0 	add.w	r7, r7, r0, ror #27
   12612:	f8d1 b010 	ldr.w	fp, [r1, #16]
   12616:	ea4f 00b0 	mov.w	r0, r0, ror #2
   1261a:	ea80 06be 	eor.w	r6, r0, lr, ror #2
   1261e:	eb02 02b5 	add.w	r2, r2, r5, ror #2
   12622:	403e      	ands	r6, r7
   12624:	ea86 06be 	eor.w	r6, r6, lr, ror #2
   12628:	4494      	add	ip, r2
   1262a:	eb0b 0203 	add.w	r2, fp, r3
   1262e:	4422      	add	r2, r4
   12630:	eb0c 6cf7 	add.w	ip, ip, r7, ror #27
   12634:	4416      	add	r6, r2
   12636:	694a      	ldr	r2, [r1, #20]
   12638:	ea80 04b7 	eor.w	r4, r0, r7, ror #2
   1263c:	eb06 66fc 	add.w	r6, r6, ip, ror #27
   12640:	ea04 040c 	and.w	r4, r4, ip
   12644:	ea4f 0cbc 	mov.w	ip, ip, ror #2
   12648:	4044      	eors	r4, r0
   1264a:	ea8c 05b7 	eor.w	r5, ip, r7, ror #2
   1264e:	920a      	str	r2, [sp, #40]	; 0x28
   12650:	441a      	add	r2, r3
   12652:	eb02 02be 	add.w	r2, r2, lr, ror #2
   12656:	4035      	ands	r5, r6
   12658:	f8d1 e020 	ldr.w	lr, [r1, #32]
   1265c:	ea85 05b7 	eor.w	r5, r5, r7, ror #2
   12660:	4414      	add	r4, r2
   12662:	698a      	ldr	r2, [r1, #24]
   12664:	eb04 64f6 	add.w	r4, r4, r6, ror #27
   12668:	9211      	str	r2, [sp, #68]	; 0x44
   1266a:	441a      	add	r2, r3
   1266c:	4402      	add	r2, r0
   1266e:	ea8c 00b6 	eor.w	r0, ip, r6, ror #2
   12672:	4415      	add	r5, r2
   12674:	69ca      	ldr	r2, [r1, #28]
   12676:	eb05 65f4 	add.w	r5, r5, r4, ror #27
   1267a:	4020      	ands	r0, r4
   1267c:	ea4f 04b4 	mov.w	r4, r4, ror #2
   12680:	ea80 000c 	eor.w	r0, r0, ip
   12684:	9212      	str	r2, [sp, #72]	; 0x48
   12686:	441a      	add	r2, r3
   12688:	eb02 02b7 	add.w	r2, r2, r7, ror #2
   1268c:	eb0e 0703 	add.w	r7, lr, r3
   12690:	4467      	add	r7, ip
   12692:	ea84 0cb5 	eor.w	ip, r4, r5, ror #2
   12696:	4410      	add	r0, r2
   12698:	ea84 02b6 	eor.w	r2, r4, r6, ror #2
   1269c:	eb00 60f5 	add.w	r0, r0, r5, ror #27
   126a0:	402a      	ands	r2, r5
   126a2:	ea82 02b6 	eor.w	r2, r2, r6, ror #2
   126a6:	ea0c 0c00 	and.w	ip, ip, r0
   126aa:	ea8c 0c04 	eor.w	ip, ip, r4
   126ae:	443a      	add	r2, r7
   126b0:	6a4f      	ldr	r7, [r1, #36]	; 0x24
   126b2:	eb02 62f0 	add.w	r2, r2, r0, ror #27
   126b6:	ea4f 00b0 	mov.w	r0, r0, ror #2
   126ba:	ea80 08b5 	eor.w	r8, r0, r5, ror #2
   126be:	970b      	str	r7, [sp, #44]	; 0x2c
   126c0:	441f      	add	r7, r3
   126c2:	eb07 06b6 	add.w	r6, r7, r6, ror #2
   126c6:	ea08 0802 	and.w	r8, r8, r2
   126ca:	ea88 08b5 	eor.w	r8, r8, r5, ror #2
   126ce:	44b4      	add	ip, r6
   126d0:	6a8e      	ldr	r6, [r1, #40]	; 0x28
   126d2:	eb0c 6cf2 	add.w	ip, ip, r2, ror #27
   126d6:	960c      	str	r6, [sp, #48]	; 0x30
   126d8:	441e      	add	r6, r3
   126da:	4434      	add	r4, r6
   126dc:	44a0      	add	r8, r4
   126de:	6acc      	ldr	r4, [r1, #44]	; 0x2c
   126e0:	eb08 68fc 	add.w	r8, r8, ip, ror #27
   126e4:	940d      	str	r4, [sp, #52]	; 0x34
   126e6:	ea80 04b2 	eor.w	r4, r0, r2, ror #2
   126ea:	9e0d      	ldr	r6, [sp, #52]	; 0x34
   126ec:	ea04 040c 	and.w	r4, r4, ip
   126f0:	ea4f 0cbc 	mov.w	ip, ip, ror #2
   126f4:	4044      	eors	r4, r0
   126f6:	ea8c 07b2 	eor.w	r7, ip, r2, ror #2
   126fa:	441e      	add	r6, r3
   126fc:	ea07 0708 	and.w	r7, r7, r8
   12700:	eb06 05b5 	add.w	r5, r6, r5, ror #2
   12704:	ea87 07b2 	eor.w	r7, r7, r2, ror #2
   12708:	442c      	add	r4, r5
   1270a:	6b0d      	ldr	r5, [r1, #48]	; 0x30
   1270c:	eb04 64f8 	add.w	r4, r4, r8, ror #27
   12710:	950e      	str	r5, [sp, #56]	; 0x38
   12712:	441d      	add	r5, r3
   12714:	4428      	add	r0, r5
   12716:	4407      	add	r7, r0
   12718:	6b48      	ldr	r0, [r1, #52]	; 0x34
   1271a:	eb07 67f4 	add.w	r7, r7, r4, ror #27
   1271e:	9003      	str	r0, [sp, #12]
   12720:	ea8c 00b8 	eor.w	r0, ip, r8, ror #2
   12724:	9d03      	ldr	r5, [sp, #12]
   12726:	4020      	ands	r0, r4
   12728:	ea4f 04b4 	mov.w	r4, r4, ror #2
   1272c:	ea80 000c 	eor.w	r0, r0, ip
   12730:	ea84 06b8 	eor.w	r6, r4, r8, ror #2
   12734:	441d      	add	r5, r3
   12736:	403e      	ands	r6, r7
   12738:	eb05 02b2 	add.w	r2, r5, r2, ror #2
   1273c:	9d03      	ldr	r5, [sp, #12]
   1273e:	ea86 06b8 	eor.w	r6, r6, r8, ror #2
   12742:	4410      	add	r0, r2
   12744:	6b8a      	ldr	r2, [r1, #56]	; 0x38
   12746:	eb00 60f7 	add.w	r0, r0, r7, ror #27
   1274a:	9204      	str	r2, [sp, #16]
   1274c:	441a      	add	r2, r3
   1274e:	4462      	add	r2, ip
   12750:	4416      	add	r6, r2
   12752:	6bca      	ldr	r2, [r1, #60]	; 0x3c
   12754:	ea84 01b7 	eor.w	r1, r4, r7, ror #2
   12758:	eb06 66f0 	add.w	r6, r6, r0, ror #27
   1275c:	4001      	ands	r1, r0
   1275e:	ea4f 00b0 	mov.w	r0, r0, ror #2
   12762:	4061      	eors	r1, r4
   12764:	9205      	str	r2, [sp, #20]
   12766:	441a      	add	r2, r3
   12768:	eb02 02b8 	add.w	r2, r2, r8, ror #2
   1276c:	4411      	add	r1, r2
   1276e:	9a07      	ldr	r2, [sp, #28]
   12770:	eb01 61f6 	add.w	r1, r1, r6, ror #27
   12774:	ea82 020a 	eor.w	r2, r2, sl
   12778:	ea8a 0a0b 	eor.w	sl, sl, fp
   1277c:	ea82 020e 	eor.w	r2, r2, lr
   12780:	406a      	eors	r2, r5
   12782:	ea80 05b7 	eor.w	r5, r0, r7, ror #2
   12786:	4035      	ands	r5, r6
   12788:	9207      	str	r2, [sp, #28]
   1278a:	eb03 72f2 	add.w	r2, r3, r2, ror #31
   1278e:	ea85 05b7 	eor.w	r5, r5, r7, ror #2
   12792:	4422      	add	r2, r4
   12794:	ea80 04b6 	eor.w	r4, r0, r6, ror #2
   12798:	4415      	add	r5, r2
   1279a:	9a08      	ldr	r2, [sp, #32]
   1279c:	400c      	ands	r4, r1
   1279e:	eb05 65f1 	add.w	r5, r5, r1, ror #27
   127a2:	4044      	eors	r4, r0
   127a4:	ea4f 01b1 	mov.w	r1, r1, ror #2
   127a8:	ea82 0c09 	eor.w	ip, r2, r9
   127ac:	9a0b      	ldr	r2, [sp, #44]	; 0x2c
   127ae:	ea8c 0c02 	eor.w	ip, ip, r2
   127b2:	9a04      	ldr	r2, [sp, #16]
   127b4:	ea8c 0202 	eor.w	r2, ip, r2
   127b8:	9208      	str	r2, [sp, #32]
   127ba:	eb03 72f2 	add.w	r2, r3, r2, ror #31
   127be:	eb02 02b7 	add.w	r2, r2, r7, ror #2
   127c2:	4414      	add	r4, r2
   127c4:	9a0c      	ldr	r2, [sp, #48]	; 0x30
   127c6:	eb04 64f5 	add.w	r4, r4, r5, ror #27
   127ca:	ea8a 0a02 	eor.w	sl, sl, r2
   127ce:	9a05      	ldr	r2, [sp, #20]
   127d0:	ea8a 0a02 	eor.w	sl, sl, r2
   127d4:	ea4f 72fa 	mov.w	r2, sl, ror #31
   127d8:	eb03 77fa 	add.w	r7, r3, sl, ror #31
   127dc:	9214      	str	r2, [sp, #80]	; 0x50
   127de:	ea81 02b6 	eor.w	r2, r1, r6, ror #2
   127e2:	4438      	add	r0, r7
   127e4:	402a      	ands	r2, r5
   127e6:	ea82 02b6 	eor.w	r2, r2, r6, ror #2
   127ea:	4402      	add	r2, r0
   127ec:	980a      	ldr	r0, [sp, #40]	; 0x28
   127ee:	eb02 62f4 	add.w	r2, r2, r4, ror #27
   127f2:	ea89 0700 	eor.w	r7, r9, r0
   127f6:	980d      	ldr	r0, [sp, #52]	; 0x34
   127f8:	4047      	eors	r7, r0
   127fa:	9807      	ldr	r0, [sp, #28]
   127fc:	ea87 77f0 	eor.w	r7, r7, r0, ror #31
   12800:	ea4f 70f7 	mov.w	r0, r7, ror #31
   12804:	eb03 73f7 	add.w	r3, r3, r7, ror #31
   12808:	9015      	str	r0, [sp, #84]	; 0x54
   1280a:	ea81 00b5 	eor.w	r0, r1, r5, ror #2
   1280e:	eb03 03b6 	add.w	r3, r3, r6, ror #2
   12812:	9e0e      	ldr	r6, [sp, #56]	; 0x38
   12814:	4020      	ands	r0, r4
   12816:	ea4f 04b4 	mov.w	r4, r4, ror #2
   1281a:	4048      	eors	r0, r1
   1281c:	4418      	add	r0, r3
   1281e:	9b11      	ldr	r3, [sp, #68]	; 0x44
   12820:	ea84 0cb2 	eor.w	ip, r4, r2, ror #2
   12824:	eb00 60f2 	add.w	r0, r0, r2, ror #27
   12828:	ea8c 0c00 	eor.w	ip, ip, r0
   1282c:	ea8b 0303 	eor.w	r3, fp, r3
   12830:	ea84 0bb5 	eor.w	fp, r4, r5, ror #2
   12834:	4073      	eors	r3, r6
   12836:	9e08      	ldr	r6, [sp, #32]
   12838:	ea8b 0b02 	eor.w	fp, fp, r2
   1283c:	ea83 73f6 	eor.w	r3, r3, r6, ror #31
   12840:	9309      	str	r3, [sp, #36]	; 0x24
   12842:	4b31      	ldr	r3, [pc, #196]	; (12908 <Transform+0x394>)
   12844:	9e09      	ldr	r6, [sp, #36]	; 0x24
   12846:	eb03 76f6 	add.w	r6, r3, r6, ror #31
   1284a:	4431      	add	r1, r6
   1284c:	9e12      	ldr	r6, [sp, #72]	; 0x48
   1284e:	448b      	add	fp, r1
   12850:	990a      	ldr	r1, [sp, #40]	; 0x28
   12852:	eb0b 6bf0 	add.w	fp, fp, r0, ror #27
   12856:	ea4f 00b0 	mov.w	r0, r0, ror #2
   1285a:	ea80 08b2 	eor.w	r8, r0, r2, ror #2
   1285e:	ea80 09bb 	eor.w	r9, r0, fp, ror #2
   12862:	4071      	eors	r1, r6
   12864:	9e03      	ldr	r6, [sp, #12]
   12866:	ea88 080b 	eor.w	r8, r8, fp
   1286a:	4071      	eors	r1, r6
   1286c:	ea81 71fa 	eor.w	r1, r1, sl, ror #31
   12870:	eb03 76f1 	add.w	r6, r3, r1, ror #31
   12874:	eb06 05b5 	add.w	r5, r6, r5, ror #2
   12878:	9e04      	ldr	r6, [sp, #16]
   1287a:	44ac      	add	ip, r5
   1287c:	9d11      	ldr	r5, [sp, #68]	; 0x44
   1287e:	eb0c 6cfb 	add.w	ip, ip, fp, ror #27
   12882:	ea89 090c 	eor.w	r9, r9, ip
   12886:	ea85 050e 	eor.w	r5, r5, lr
   1288a:	4075      	eors	r5, r6
   1288c:	ea85 75f7 	eor.w	r5, r5, r7, ror #31
   12890:	ea4f 76f5 	mov.w	r6, r5, ror #31
   12894:	9611      	str	r6, [sp, #68]	; 0x44
   12896:	eb03 76f5 	add.w	r6, r3, r5, ror #31
   1289a:	4434      	add	r4, r6
   1289c:	9e0b      	ldr	r6, [sp, #44]	; 0x2c
   1289e:	44a0      	add	r8, r4
   128a0:	9c12      	ldr	r4, [sp, #72]	; 0x48
   128a2:	eb08 68fc 	add.w	r8, r8, ip, ror #27
   128a6:	ea4f 0cbc 	mov.w	ip, ip, ror #2
   128aa:	4066      	eors	r6, r4
   128ac:	9c05      	ldr	r4, [sp, #20]
   128ae:	4066      	eors	r6, r4
   128b0:	9c09      	ldr	r4, [sp, #36]	; 0x24
   128b2:	ea86 76f4 	eor.w	r6, r6, r4, ror #31
   128b6:	ea4f 74f6 	mov.w	r4, r6, ror #31
   128ba:	9412      	str	r4, [sp, #72]	; 0x48
   128bc:	eb03 74f6 	add.w	r4, r3, r6, ror #31
   128c0:	eb04 02b2 	add.w	r2, r4, r2, ror #2
   128c4:	9c07      	ldr	r4, [sp, #28]
   128c6:	4491      	add	r9, r2
   128c8:	9a0c      	ldr	r2, [sp, #48]	; 0x30
   128ca:	eb09 69f8 	add.w	r9, r9, r8, ror #27
   128ce:	ea8e 0202 	eor.w	r2, lr, r2
   128d2:	ea82 72f4 	eor.w	r2, r2, r4, ror #31
   128d6:	ea8c 04bb 	eor.w	r4, ip, fp, ror #2
   128da:	ea82 72f1 	eor.w	r2, r2, r1, ror #31
   128de:	ea84 0408 	eor.w	r4, r4, r8
   128e2:	eb03 7ef2 	add.w	lr, r3, r2, ror #31
   128e6:	920a      	str	r2, [sp, #40]	; 0x28
   128e8:	4470      	add	r0, lr
   128ea:	ea8c 0eb8 	eor.w	lr, ip, r8, ror #2
   128ee:	4404      	add	r4, r0
   128f0:	980b      	ldr	r0, [sp, #44]	; 0x2c
   128f2:	ea8e 0e09 	eor.w	lr, lr, r9
   128f6:	eb04 64f9 	add.w	r4, r4, r9, ror #27
   128fa:	4602      	mov	r2, r0
   128fc:	980d      	ldr	r0, [sp, #52]	; 0x34
   128fe:	4050      	eors	r0, r2
   12900:	9a08      	ldr	r2, [sp, #32]
   12902:	e003      	b.n	1290c <Transform+0x398>
   12904:	5a827999 	.word	0x5a827999
   12908:	6ed9eba1 	.word	0x6ed9eba1
   1290c:	ea80 70f2 	eor.w	r0, r0, r2, ror #31
   12910:	ea80 72f5 	eor.w	r2, r0, r5, ror #31
   12914:	eb03 70f2 	add.w	r0, r3, r2, ror #31
   12918:	920b      	str	r2, [sp, #44]	; 0x2c
   1291a:	9a0c      	ldr	r2, [sp, #48]	; 0x30
   1291c:	eb00 00bb 	add.w	r0, r0, fp, ror #2
   12920:	4486      	add	lr, r0
   12922:	ea4f 00b9 	mov.w	r0, r9, ror #2
   12926:	eb0e 6ef4 	add.w	lr, lr, r4, ror #27
   1292a:	ea80 0bb8 	eor.w	fp, r0, r8, ror #2
   1292e:	4691      	mov	r9, r2
   12930:	9a0e      	ldr	r2, [sp, #56]	; 0x38
   12932:	ea8b 0b04 	eor.w	fp, fp, r4
   12936:	ea89 0902 	eor.w	r9, r9, r2
   1293a:	ea89 7afa 	eor.w	sl, r9, sl, ror #31
   1293e:	ea8a 7af6 	eor.w	sl, sl, r6, ror #31
   12942:	ea4f 72fa 	mov.w	r2, sl, ror #31
   12946:	eb03 79fa 	add.w	r9, r3, sl, ror #31
   1294a:	9216      	str	r2, [sp, #88]	; 0x58
   1294c:	44cc      	add	ip, r9
   1294e:	9a0d      	ldr	r2, [sp, #52]	; 0x34
   12950:	44e3      	add	fp, ip
   12952:	eb0b 6bfe 	add.w	fp, fp, lr, ror #27
   12956:	4694      	mov	ip, r2
   12958:	9a03      	ldr	r2, [sp, #12]
   1295a:	ea8c 0902 	eor.w	r9, ip, r2
   1295e:	9a0a      	ldr	r2, [sp, #40]	; 0x28
   12960:	ea80 0cb4 	eor.w	ip, r0, r4, ror #2
   12964:	ea89 77f7 	eor.w	r7, r9, r7, ror #31
   12968:	ea8c 0c0e 	eor.w	ip, ip, lr
   1296c:	ea4f 0ebe 	mov.w	lr, lr, ror #2
   12970:	ea87 77f2 	eor.w	r7, r7, r2, ror #31
   12974:	ea4f 72f7 	mov.w	r2, r7, ror #31
   12978:	eb03 79f7 	add.w	r9, r3, r7, ror #31
   1297c:	920d      	str	r2, [sp, #52]	; 0x34
   1297e:	eb09 08b8 	add.w	r8, r9, r8, ror #2
   12982:	9a0e      	ldr	r2, [sp, #56]	; 0x38
   12984:	44c4      	add	ip, r8
   12986:	eb0c 6cfb 	add.w	ip, ip, fp, ror #27
   1298a:	4690      	mov	r8, r2
   1298c:	9a04      	ldr	r2, [sp, #16]
   1298e:	ea88 0802 	eor.w	r8, r8, r2
   12992:	9a09      	ldr	r2, [sp, #36]	; 0x24
   12994:	ea88 78f2 	eor.w	r8, r8, r2, ror #31
   12998:	9a0b      	ldr	r2, [sp, #44]	; 0x2c
   1299a:	ea88 72f2 	eor.w	r2, r8, r2, ror #31
   1299e:	ea8e 08b4 	eor.w	r8, lr, r4, ror #2
   129a2:	eb03 79f2 	add.w	r9, r3, r2, ror #31
   129a6:	ea88 080b 	eor.w	r8, r8, fp
   129aa:	920c      	str	r2, [sp, #48]	; 0x30
   129ac:	4448      	add	r0, r9
   129ae:	9a03      	ldr	r2, [sp, #12]
   129b0:	ea8e 09bb 	eor.w	r9, lr, fp, ror #2
   129b4:	4480      	add	r8, r0
   129b6:	9805      	ldr	r0, [sp, #20]
   129b8:	ea89 090c 	eor.w	r9, r9, ip
   129bc:	eb08 68fc 	add.w	r8, r8, ip, ror #27
   129c0:	ea4f 0cbc 	mov.w	ip, ip, ror #2
   129c4:	4050      	eors	r0, r2
   129c6:	ea80 70f1 	eor.w	r0, r0, r1, ror #31
   129ca:	ea80 72fa 	eor.w	r2, r0, sl, ror #31
   129ce:	eb03 70f2 	add.w	r0, r3, r2, ror #31
   129d2:	9203      	str	r2, [sp, #12]
   129d4:	eb00 00b4 	add.w	r0, r0, r4, ror #2
   129d8:	9a04      	ldr	r2, [sp, #16]
   129da:	ea8c 04bb 	eor.w	r4, ip, fp, ror #2
   129de:	4481      	add	r9, r0
   129e0:	9807      	ldr	r0, [sp, #28]
   129e2:	ea84 0408 	eor.w	r4, r4, r8
   129e6:	eb09 69f8 	add.w	r9, r9, r8, ror #27
   129ea:	ea82 70f0 	eor.w	r0, r2, r0, ror #31
   129ee:	ea80 75f5 	eor.w	r5, r0, r5, ror #31
   129f2:	ea85 75f7 	eor.w	r5, r5, r7, ror #31
   129f6:	ea4f 72f5 	mov.w	r2, r5, ror #31
   129fa:	eb03 70f5 	add.w	r0, r3, r5, ror #31
   129fe:	4470      	add	r0, lr
   12a00:	920e      	str	r2, [sp, #56]	; 0x38
   12a02:	4404      	add	r4, r0
   12a04:	9a05      	ldr	r2, [sp, #20]
   12a06:	eb04 64f9 	add.w	r4, r4, r9, ror #27
   12a0a:	9808      	ldr	r0, [sp, #32]
   12a0c:	ea82 70f0 	eor.w	r0, r2, r0, ror #31
   12a10:	9a0c      	ldr	r2, [sp, #48]	; 0x30
   12a12:	ea80 70f6 	eor.w	r0, r0, r6, ror #31
   12a16:	ea8c 06b8 	eor.w	r6, ip, r8, ror #2
   12a1a:	ea80 70f2 	eor.w	r0, r0, r2, ror #31
   12a1e:	ea86 0609 	eor.w	r6, r6, r9
   12a22:	ea4f 09b9 	mov.w	r9, r9, ror #2
   12a26:	ea4f 72f0 	mov.w	r2, r0, ror #31
   12a2a:	eb03 7ef0 	add.w	lr, r3, r0, ror #31
   12a2e:	9217      	str	r2, [sp, #92]	; 0x5c
   12a30:	eb0e 0ebb 	add.w	lr, lr, fp, ror #2
   12a34:	9a14      	ldr	r2, [sp, #80]	; 0x50
   12a36:	ea89 0bb8 	eor.w	fp, r9, r8, ror #2
   12a3a:	4476      	add	r6, lr
   12a3c:	ea8b 0b04 	eor.w	fp, fp, r4
   12a40:	eb06 66f4 	add.w	r6, r6, r4, ror #27
   12a44:	4696      	mov	lr, r2
   12a46:	9a07      	ldr	r2, [sp, #28]
   12a48:	ea8e 7ef2 	eor.w	lr, lr, r2, ror #31
   12a4c:	9a0a      	ldr	r2, [sp, #40]	; 0x28
   12a4e:	ea8e 7ef2 	eor.w	lr, lr, r2, ror #31
   12a52:	9a03      	ldr	r2, [sp, #12]
   12a54:	ea8e 72f2 	eor.w	r2, lr, r2, ror #31
   12a58:	eb03 7ef2 	add.w	lr, r3, r2, ror #31
   12a5c:	9204      	str	r2, [sp, #16]
   12a5e:	9a15      	ldr	r2, [sp, #84]	; 0x54
   12a60:	44f4      	add	ip, lr
   12a62:	ea89 0eb4 	eor.w	lr, r9, r4, ror #2
   12a66:	44e3      	add	fp, ip
   12a68:	eb0b 6bf6 	add.w	fp, fp, r6, ror #27
   12a6c:	ea8e 0e06 	eor.w	lr, lr, r6
   12a70:	4694      	mov	ip, r2
   12a72:	9a08      	ldr	r2, [sp, #32]
   12a74:	ea8c 7cf2 	eor.w	ip, ip, r2, ror #31
   12a78:	9a0b      	ldr	r2, [sp, #44]	; 0x2c
   12a7a:	ea8c 7cf2 	eor.w	ip, ip, r2, ror #31
   12a7e:	ea8c 72f5 	eor.w	r2, ip, r5, ror #31
   12a82:	eb03 7cf2 	add.w	ip, r3, r2, ror #31
   12a86:	9205      	str	r2, [sp, #20]
   12a88:	eb0c 0cb8 	add.w	ip, ip, r8, ror #2
   12a8c:	9a14      	ldr	r2, [sp, #80]	; 0x50
   12a8e:	ea4f 08b6 	mov.w	r8, r6, ror #2
   12a92:	9e09      	ldr	r6, [sp, #36]	; 0x24
   12a94:	44e6      	add	lr, ip
   12a96:	eb0e 6efb 	add.w	lr, lr, fp, ror #27
   12a9a:	ea82 76f6 	eor.w	r6, r2, r6, ror #31
   12a9e:	ea86 7afa 	eor.w	sl, r6, sl, ror #31
   12aa2:	ea88 06b4 	eor.w	r6, r8, r4, ror #2
   12aa6:	ea8a 7af0 	eor.w	sl, sl, r0, ror #31
   12aaa:	ea86 060b 	eor.w	r6, r6, fp
   12aae:	ea4f 72fa 	mov.w	r2, sl, ror #31
   12ab2:	eb03 7cfa 	add.w	ip, r3, sl, ror #31
   12ab6:	9214      	str	r2, [sp, #80]	; 0x50
   12ab8:	44cc      	add	ip, r9
   12aba:	9a15      	ldr	r2, [sp, #84]	; 0x54
   12abc:	4466      	add	r6, ip
   12abe:	eb06 66fe 	add.w	r6, r6, lr, ror #27
   12ac2:	ea82 79f1 	eor.w	r9, r2, r1, ror #31
   12ac6:	9a04      	ldr	r2, [sp, #16]
   12ac8:	ea89 79f7 	eor.w	r9, r9, r7, ror #31
   12acc:	ea88 07bb 	eor.w	r7, r8, fp, ror #2
   12ad0:	ea89 79f2 	eor.w	r9, r9, r2, ror #31
   12ad4:	ea87 070e 	eor.w	r7, r7, lr
   12ad8:	ea4f 0ebe 	mov.w	lr, lr, ror #2
   12adc:	eb03 7cf9 	add.w	ip, r3, r9, ror #31
   12ae0:	ea4f 72f9 	mov.w	r2, r9, ror #31
   12ae4:	eb0c 04b4 	add.w	r4, ip, r4, ror #2
   12ae8:	4427      	add	r7, r4
   12aea:	9215      	str	r2, [sp, #84]	; 0x54
   12aec:	9c09      	ldr	r4, [sp, #36]	; 0x24
   12aee:	eb07 67f6 	add.w	r7, r7, r6, ror #27
   12af2:	9a11      	ldr	r2, [sp, #68]	; 0x44
   12af4:	ea82 74f4 	eor.w	r4, r2, r4, ror #31
   12af8:	9a0c      	ldr	r2, [sp, #48]	; 0x30
   12afa:	ea84 74f2 	eor.w	r4, r4, r2, ror #31
   12afe:	9a05      	ldr	r2, [sp, #20]
   12b00:	ea84 72f2 	eor.w	r2, r4, r2, ror #31
   12b04:	ea8e 04bb 	eor.w	r4, lr, fp, ror #2
   12b08:	eb03 7cf2 	add.w	ip, r3, r2, ror #31
   12b0c:	9207      	str	r2, [sp, #28]
   12b0e:	4074      	eors	r4, r6
   12b10:	9a12      	ldr	r2, [sp, #72]	; 0x48
   12b12:	44c4      	add	ip, r8
   12b14:	4464      	add	r4, ip
   12b16:	ea8e 0cb6 	eor.w	ip, lr, r6, ror #2
   12b1a:	eb04 64f7 	add.w	r4, r4, r7, ror #27
   12b1e:	ea8c 0c07 	eor.w	ip, ip, r7
   12b22:	ea4f 07b7 	mov.w	r7, r7, ror #2
   12b26:	ea82 71f1 	eor.w	r1, r2, r1, ror #31
   12b2a:	9a03      	ldr	r2, [sp, #12]
   12b2c:	ea81 71f2 	eor.w	r1, r1, r2, ror #31
   12b30:	ea81 72fa 	eor.w	r2, r1, sl, ror #31
   12b34:	eb03 71f2 	add.w	r1, r3, r2, ror #31
   12b38:	9208      	str	r2, [sp, #32]
   12b3a:	eb01 01bb 	add.w	r1, r1, fp, ror #2
   12b3e:	9a11      	ldr	r2, [sp, #68]	; 0x44
   12b40:	ea87 0bb6 	eor.w	fp, r7, r6, ror #2
   12b44:	448c      	add	ip, r1
   12b46:	990a      	ldr	r1, [sp, #40]	; 0x28
   12b48:	ea8b 0b04 	eor.w	fp, fp, r4
   12b4c:	eb0c 6cf4 	add.w	ip, ip, r4, ror #27
   12b50:	ea82 78f1 	eor.w	r8, r2, r1, ror #31
   12b54:	ea88 78f5 	eor.w	r8, r8, r5, ror #31
   12b58:	9d0b      	ldr	r5, [sp, #44]	; 0x2c
   12b5a:	ea88 78f9 	eor.w	r8, r8, r9, ror #31
   12b5e:	ea4f 72f8 	mov.w	r2, r8, ror #31
   12b62:	eb03 71f8 	add.w	r1, r3, r8, ror #31
   12b66:	4471      	add	r1, lr
   12b68:	9211      	str	r2, [sp, #68]	; 0x44
   12b6a:	ea87 0eb4 	eor.w	lr, r7, r4, ror #2
   12b6e:	448b      	add	fp, r1
   12b70:	990b      	ldr	r1, [sp, #44]	; 0x2c
   12b72:	eb0b 6bfc 	add.w	fp, fp, ip, ror #27
   12b76:	ea8e 0e0c 	eor.w	lr, lr, ip
   12b7a:	9a12      	ldr	r2, [sp, #72]	; 0x48
   12b7c:	ea82 71f1 	eor.w	r1, r2, r1, ror #31
   12b80:	9a07      	ldr	r2, [sp, #28]
   12b82:	ea81 70f0 	eor.w	r0, r1, r0, ror #31
   12b86:	ea80 70f2 	eor.w	r0, r0, r2, ror #31
   12b8a:	eb03 73f0 	add.w	r3, r3, r0, ror #31
   12b8e:	ea4f 72f0 	mov.w	r2, r0, ror #31
   12b92:	eb03 03b6 	add.w	r3, r3, r6, ror #2
   12b96:	4473      	add	r3, lr
   12b98:	9212      	str	r2, [sp, #72]	; 0x48
   12b9a:	eb03 6efb 	add.w	lr, r3, fp, ror #27
   12b9e:	9a0a      	ldr	r2, [sp, #40]	; 0x28
   12ba0:	9b16      	ldr	r3, [sp, #88]	; 0x58
   12ba2:	ea83 72f2 	eor.w	r2, r3, r2, ror #31
   12ba6:	9b04      	ldr	r3, [sp, #16]
   12ba8:	ea82 72f3 	eor.w	r2, r2, r3, ror #31
   12bac:	9b08      	ldr	r3, [sp, #32]
   12bae:	ea82 73f3 	eor.w	r3, r2, r3, ror #31
   12bb2:	ea4b 02bc 	orr.w	r2, fp, ip, ror #2
   12bb6:	ea02 02b4 	and.w	r2, r2, r4, ror #2
   12bba:	9309      	str	r3, [sp, #36]	; 0x24
   12bbc:	ea0b 03bc 	and.w	r3, fp, ip, ror #2
   12bc0:	9909      	ldr	r1, [sp, #36]	; 0x24
   12bc2:	431a      	orrs	r2, r3
   12bc4:	4bd7      	ldr	r3, [pc, #860]	; (12f24 <Transform+0x9b0>)
   12bc6:	eb03 71f1 	add.w	r1, r3, r1, ror #31
   12bca:	4439      	add	r1, r7
   12bcc:	440a      	add	r2, r1
   12bce:	990d      	ldr	r1, [sp, #52]	; 0x34
   12bd0:	eb02 62fe 	add.w	r2, r2, lr, ror #27
   12bd4:	ea42 07be 	orr.w	r7, r2, lr, ror #2
   12bd8:	ea81 76f5 	eor.w	r6, r1, r5, ror #31
   12bdc:	9905      	ldr	r1, [sp, #20]
   12bde:	ea86 76f1 	eor.w	r6, r6, r1, ror #31
   12be2:	ea86 71f8 	eor.w	r1, r6, r8, ror #31
   12be6:	910a      	str	r1, [sp, #40]	; 0x28
   12be8:	ea4e 01bb 	orr.w	r1, lr, fp, ror #2
   12bec:	ea01 05bc 	and.w	r5, r1, ip, ror #2
   12bf0:	ea0e 01bb 	and.w	r1, lr, fp, ror #2
   12bf4:	4329      	orrs	r1, r5
   12bf6:	9d0a      	ldr	r5, [sp, #40]	; 0x28
   12bf8:	eb03 75f5 	add.w	r5, r3, r5, ror #31
   12bfc:	eb05 04b4 	add.w	r4, r5, r4, ror #2
   12c00:	9d0c      	ldr	r5, [sp, #48]	; 0x30
   12c02:	4421      	add	r1, r4
   12c04:	9c16      	ldr	r4, [sp, #88]	; 0x58
   12c06:	eb01 61f2 	add.w	r1, r1, r2, ror #27
   12c0a:	ea41 06b2 	orr.w	r6, r1, r2, ror #2
   12c0e:	ea84 74f5 	eor.w	r4, r4, r5, ror #31
   12c12:	ea84 7afa 	eor.w	sl, r4, sl, ror #31
   12c16:	ea8a 7af0 	eor.w	sl, sl, r0, ror #31
   12c1a:	ea4f 74fa 	mov.w	r4, sl, ror #31
   12c1e:	9416      	str	r4, [sp, #88]	; 0x58
   12c20:	ea07 04bb 	and.w	r4, r7, fp, ror #2
   12c24:	ea02 07be 	and.w	r7, r2, lr, ror #2
   12c28:	4327      	orrs	r7, r4
   12c2a:	eb03 74fa 	add.w	r4, r3, sl, ror #31
   12c2e:	eb04 0cbc 	add.w	ip, r4, ip, ror #2
   12c32:	9c0d      	ldr	r4, [sp, #52]	; 0x34
   12c34:	9d03      	ldr	r5, [sp, #12]
   12c36:	4467      	add	r7, ip
   12c38:	eb07 67f1 	add.w	r7, r7, r1, ror #27
   12c3c:	ea84 74f5 	eor.w	r4, r4, r5, ror #31
   12c40:	9d0c      	ldr	r5, [sp, #48]	; 0x30
   12c42:	ea84 79f9 	eor.w	r9, r4, r9, ror #31
   12c46:	9c09      	ldr	r4, [sp, #36]	; 0x24
   12c48:	ea89 79f4 	eor.w	r9, r9, r4, ror #31
   12c4c:	ea4f 74f9 	mov.w	r4, r9, ror #31
   12c50:	940d      	str	r4, [sp, #52]	; 0x34
   12c52:	ea06 04be 	and.w	r4, r6, lr, ror #2
   12c56:	ea01 06b2 	and.w	r6, r1, r2, ror #2
   12c5a:	4326      	orrs	r6, r4
   12c5c:	eb03 74f9 	add.w	r4, r3, r9, ror #31
   12c60:	eb04 04bb 	add.w	r4, r4, fp, ror #2
   12c64:	4426      	add	r6, r4
   12c66:	9c0e      	ldr	r4, [sp, #56]	; 0x38
   12c68:	eb06 66f7 	add.w	r6, r6, r7, ror #27
   12c6c:	ea84 74f5 	eor.w	r4, r4, r5, ror #31
   12c70:	9d07      	ldr	r5, [sp, #28]
   12c72:	ea84 74f5 	eor.w	r4, r4, r5, ror #31
   12c76:	9d0a      	ldr	r5, [sp, #40]	; 0x28
   12c78:	ea84 74f5 	eor.w	r4, r4, r5, ror #31
   12c7c:	ea47 05b1 	orr.w	r5, r7, r1, ror #2
   12c80:	940b      	str	r4, [sp, #44]	; 0x2c
   12c82:	ea05 04b2 	and.w	r4, r5, r2, ror #2
   12c86:	ea07 05b1 	and.w	r5, r7, r1, ror #2
   12c8a:	4325      	orrs	r5, r4
   12c8c:	9c0b      	ldr	r4, [sp, #44]	; 0x2c
   12c8e:	eb03 74f4 	add.w	r4, r3, r4, ror #31
   12c92:	eb04 04be 	add.w	r4, r4, lr, ror #2
   12c96:	ea46 0eb7 	orr.w	lr, r6, r7, ror #2
   12c9a:	4425      	add	r5, r4
   12c9c:	9c17      	ldr	r4, [sp, #92]	; 0x5c
   12c9e:	eb05 65f6 	add.w	r5, r5, r6, ror #27
   12ca2:	46a4      	mov	ip, r4
   12ca4:	9c03      	ldr	r4, [sp, #12]
   12ca6:	ea8c 7cf4 	eor.w	ip, ip, r4, ror #31
   12caa:	9c08      	ldr	r4, [sp, #32]
   12cac:	ea8c 74f4 	eor.w	r4, ip, r4, ror #31
   12cb0:	ea84 74fa 	eor.w	r4, r4, sl, ror #31
   12cb4:	9403      	str	r4, [sp, #12]
   12cb6:	ea0e 04b1 	and.w	r4, lr, r1, ror #2
   12cba:	ea06 0eb7 	and.w	lr, r6, r7, ror #2
   12cbe:	ea44 0e0e 	orr.w	lr, r4, lr
   12cc2:	9c03      	ldr	r4, [sp, #12]
   12cc4:	eb03 74f4 	add.w	r4, r3, r4, ror #31
   12cc8:	eb04 02b2 	add.w	r2, r4, r2, ror #2
   12ccc:	9c04      	ldr	r4, [sp, #16]
   12cce:	4496      	add	lr, r2
   12cd0:	9a0e      	ldr	r2, [sp, #56]	; 0x38
   12cd2:	eb0e 6ef5 	add.w	lr, lr, r5, ror #27
   12cd6:	ea82 7cf4 	eor.w	ip, r2, r4, ror #31
   12cda:	ea45 04b6 	orr.w	r4, r5, r6, ror #2
   12cde:	ea8c 78f8 	eor.w	r8, ip, r8, ror #31
   12ce2:	ea4e 0cb5 	orr.w	ip, lr, r5, ror #2
   12ce6:	ea88 78f9 	eor.w	r8, r8, r9, ror #31
   12cea:	ea4f 72f8 	mov.w	r2, r8, ror #31
   12cee:	920c      	str	r2, [sp, #48]	; 0x30
   12cf0:	ea04 02b7 	and.w	r2, r4, r7, ror #2
   12cf4:	ea05 04b6 	and.w	r4, r5, r6, ror #2
   12cf8:	4314      	orrs	r4, r2
   12cfa:	eb03 72f8 	add.w	r2, r3, r8, ror #31
   12cfe:	eb02 02b1 	add.w	r2, r2, r1, ror #2
   12d02:	9905      	ldr	r1, [sp, #20]
   12d04:	4414      	add	r4, r2
   12d06:	9a17      	ldr	r2, [sp, #92]	; 0x5c
   12d08:	eb04 64fe 	add.w	r4, r4, lr, ror #27
   12d0c:	ea82 71f1 	eor.w	r1, r2, r1, ror #31
   12d10:	9a0b      	ldr	r2, [sp, #44]	; 0x2c
   12d12:	ea81 71f0 	eor.w	r1, r1, r0, ror #31
   12d16:	9804      	ldr	r0, [sp, #16]
   12d18:	ea81 71f2 	eor.w	r1, r1, r2, ror #31
   12d1c:	ea4f 72f1 	mov.w	r2, r1, ror #31
   12d20:	920e      	str	r2, [sp, #56]	; 0x38
   12d22:	ea0c 02b6 	and.w	r2, ip, r6, ror #2
   12d26:	ea0e 0cb5 	and.w	ip, lr, r5, ror #2
   12d2a:	ea42 0c0c 	orr.w	ip, r2, ip
   12d2e:	eb03 72f1 	add.w	r2, r3, r1, ror #31
   12d32:	eb02 02b7 	add.w	r2, r2, r7, ror #2
   12d36:	4494      	add	ip, r2
   12d38:	9a14      	ldr	r2, [sp, #80]	; 0x50
   12d3a:	eb0c 6cf4 	add.w	ip, ip, r4, ror #27
   12d3e:	ea4c 0bb4 	orr.w	fp, ip, r4, ror #2
   12d42:	ea82 72f0 	eor.w	r2, r2, r0, ror #31
   12d46:	9809      	ldr	r0, [sp, #36]	; 0x24
   12d48:	ea82 72f0 	eor.w	r2, r2, r0, ror #31
   12d4c:	9803      	ldr	r0, [sp, #12]
   12d4e:	ea82 72f0 	eor.w	r2, r2, r0, ror #31
   12d52:	9204      	str	r2, [sp, #16]
   12d54:	ea44 02be 	orr.w	r2, r4, lr, ror #2
   12d58:	ea02 00b5 	and.w	r0, r2, r5, ror #2
   12d5c:	ea04 02be 	and.w	r2, r4, lr, ror #2
   12d60:	4302      	orrs	r2, r0
   12d62:	9804      	ldr	r0, [sp, #16]
   12d64:	eb03 70f0 	add.w	r0, r3, r0, ror #31
   12d68:	eb00 00b6 	add.w	r0, r0, r6, ror #2
   12d6c:	9e05      	ldr	r6, [sp, #20]
   12d6e:	4402      	add	r2, r0
   12d70:	9815      	ldr	r0, [sp, #84]	; 0x54
   12d72:	eb02 62fc 	add.w	r2, r2, ip, ror #27
   12d76:	ea42 07bc 	orr.w	r7, r2, ip, ror #2
   12d7a:	ea80 70f6 	eor.w	r0, r0, r6, ror #31
   12d7e:	9e0a      	ldr	r6, [sp, #40]	; 0x28
   12d80:	ea80 70f6 	eor.w	r0, r0, r6, ror #31
   12d84:	ea80 70f8 	eor.w	r0, r0, r8, ror #31
   12d88:	9005      	str	r0, [sp, #20]
   12d8a:	ea0b 00be 	and.w	r0, fp, lr, ror #2
   12d8e:	ea0c 0bb4 	and.w	fp, ip, r4, ror #2
   12d92:	ea40 0b0b 	orr.w	fp, r0, fp
   12d96:	9805      	ldr	r0, [sp, #20]
   12d98:	eb03 70f0 	add.w	r0, r3, r0, ror #31
   12d9c:	eb00 00b5 	add.w	r0, r0, r5, ror #2
   12da0:	4483      	add	fp, r0
   12da2:	9814      	ldr	r0, [sp, #80]	; 0x50
   12da4:	eb0b 6bf2 	add.w	fp, fp, r2, ror #27
   12da8:	9d07      	ldr	r5, [sp, #28]
   12daa:	ea4b 06b2 	orr.w	r6, fp, r2, ror #2
   12dae:	ea80 70f5 	eor.w	r0, r0, r5, ror #31
   12db2:	9d08      	ldr	r5, [sp, #32]
   12db4:	ea80 7afa 	eor.w	sl, r0, sl, ror #31
   12db8:	ea8a 7af1 	eor.w	sl, sl, r1, ror #31
   12dbc:	ea4f 70fa 	mov.w	r0, sl, ror #31
   12dc0:	9014      	str	r0, [sp, #80]	; 0x50
   12dc2:	ea07 00b4 	and.w	r0, r7, r4, ror #2
   12dc6:	ea02 07bc 	and.w	r7, r2, ip, ror #2
   12dca:	4307      	orrs	r7, r0
   12dcc:	eb03 70fa 	add.w	r0, r3, sl, ror #31
   12dd0:	eb00 00be 	add.w	r0, r0, lr, ror #2
   12dd4:	4407      	add	r7, r0
   12dd6:	9815      	ldr	r0, [sp, #84]	; 0x54
   12dd8:	eb07 67fb 	add.w	r7, r7, fp, ror #27
   12ddc:	ea80 70f5 	eor.w	r0, r0, r5, ror #31
   12de0:	ea47 05bb 	orr.w	r5, r7, fp, ror #2
   12de4:	ea80 79f9 	eor.w	r9, r0, r9, ror #31
   12de8:	9804      	ldr	r0, [sp, #16]
   12dea:	ea89 79f0 	eor.w	r9, r9, r0, ror #31
   12dee:	ea4f 70f9 	mov.w	r0, r9, ror #31
   12df2:	9015      	str	r0, [sp, #84]	; 0x54
   12df4:	ea06 00bc 	and.w	r0, r6, ip, ror #2
   12df8:	ea0b 06b2 	and.w	r6, fp, r2, ror #2
   12dfc:	4306      	orrs	r6, r0
   12dfe:	eb03 70f9 	add.w	r0, r3, r9, ror #31
   12e02:	eb00 00b4 	add.w	r0, r0, r4, ror #2
   12e06:	9c07      	ldr	r4, [sp, #28]
   12e08:	4406      	add	r6, r0
   12e0a:	9811      	ldr	r0, [sp, #68]	; 0x44
   12e0c:	eb06 66f7 	add.w	r6, r6, r7, ror #27
   12e10:	ea80 74f4 	eor.w	r4, r0, r4, ror #31
   12e14:	980b      	ldr	r0, [sp, #44]	; 0x2c
   12e16:	ea84 74f0 	eor.w	r4, r4, r0, ror #31
   12e1a:	9805      	ldr	r0, [sp, #20]
   12e1c:	ea84 70f0 	eor.w	r0, r4, r0, ror #31
   12e20:	9c08      	ldr	r4, [sp, #32]
   12e22:	9007      	str	r0, [sp, #28]
   12e24:	ea05 00b2 	and.w	r0, r5, r2, ror #2
   12e28:	ea07 05bb 	and.w	r5, r7, fp, ror #2
   12e2c:	4305      	orrs	r5, r0
   12e2e:	9807      	ldr	r0, [sp, #28]
   12e30:	eb03 70f0 	add.w	r0, r3, r0, ror #31
   12e34:	eb00 00bc 	add.w	r0, r0, ip, ror #2
   12e38:	4405      	add	r5, r0
   12e3a:	9812      	ldr	r0, [sp, #72]	; 0x48
   12e3c:	eb05 65f6 	add.w	r5, r5, r6, ror #27
   12e40:	ea80 70f4 	eor.w	r0, r0, r4, ror #31
   12e44:	9c03      	ldr	r4, [sp, #12]
   12e46:	ea80 70f4 	eor.w	r0, r0, r4, ror #31
   12e4a:	ea80 70fa 	eor.w	r0, r0, sl, ror #31
   12e4e:	9008      	str	r0, [sp, #32]
   12e50:	ea46 00b7 	orr.w	r0, r6, r7, ror #2
   12e54:	ea00 04bb 	and.w	r4, r0, fp, ror #2
   12e58:	ea06 00b7 	and.w	r0, r6, r7, ror #2
   12e5c:	4320      	orrs	r0, r4
   12e5e:	9c08      	ldr	r4, [sp, #32]
   12e60:	eb03 74f4 	add.w	r4, r3, r4, ror #31
   12e64:	eb04 02b2 	add.w	r2, r4, r2, ror #2
   12e68:	9c09      	ldr	r4, [sp, #36]	; 0x24
   12e6a:	4410      	add	r0, r2
   12e6c:	9a11      	ldr	r2, [sp, #68]	; 0x44
   12e6e:	eb00 60f5 	add.w	r0, r0, r5, ror #27
   12e72:	ea82 7cf4 	eor.w	ip, r2, r4, ror #31
   12e76:	9c0a      	ldr	r4, [sp, #40]	; 0x28
   12e78:	ea8c 7cf8 	eor.w	ip, ip, r8, ror #31
   12e7c:	ea45 08b6 	orr.w	r8, r5, r6, ror #2
   12e80:	ea8c 7cf9 	eor.w	ip, ip, r9, ror #31
   12e84:	ea4f 72fc 	mov.w	r2, ip, ror #31
   12e88:	9211      	str	r2, [sp, #68]	; 0x44
   12e8a:	ea08 02b7 	and.w	r2, r8, r7, ror #2
   12e8e:	ea05 08b6 	and.w	r8, r5, r6, ror #2
   12e92:	ea42 0808 	orr.w	r8, r2, r8
   12e96:	eb03 72fc 	add.w	r2, r3, ip, ror #31
   12e9a:	eb02 02bb 	add.w	r2, r2, fp, ror #2
   12e9e:	4490      	add	r8, r2
   12ea0:	9a12      	ldr	r2, [sp, #72]	; 0x48
   12ea2:	eb08 68f0 	add.w	r8, r8, r0, ror #27
   12ea6:	ea48 0eb0 	orr.w	lr, r8, r0, ror #2
   12eaa:	ea82 7bf4 	eor.w	fp, r2, r4, ror #31
   12eae:	9a07      	ldr	r2, [sp, #28]
   12eb0:	ea8b 7bf1 	eor.w	fp, fp, r1, ror #31
   12eb4:	9c09      	ldr	r4, [sp, #36]	; 0x24
   12eb6:	ea40 01b5 	orr.w	r1, r0, r5, ror #2
   12eba:	ea8b 7bf2 	eor.w	fp, fp, r2, ror #31
   12ebe:	ea4f 72fb 	mov.w	r2, fp, ror #31
   12ec2:	9212      	str	r2, [sp, #72]	; 0x48
   12ec4:	ea01 02b6 	and.w	r2, r1, r6, ror #2
   12ec8:	ea00 01b5 	and.w	r1, r0, r5, ror #2
   12ecc:	4311      	orrs	r1, r2
   12ece:	eb03 72fb 	add.w	r2, r3, fp, ror #31
   12ed2:	eb02 07b7 	add.w	r7, r2, r7, ror #2
   12ed6:	9a16      	ldr	r2, [sp, #88]	; 0x58
   12ed8:	4439      	add	r1, r7
   12eda:	eb01 61f8 	add.w	r1, r1, r8, ror #27
   12ede:	ea82 77f4 	eor.w	r7, r2, r4, ror #31
   12ee2:	9a04      	ldr	r2, [sp, #16]
   12ee4:	ea87 77f2 	eor.w	r7, r7, r2, ror #31
   12ee8:	9a08      	ldr	r2, [sp, #32]
   12eea:	ea87 72f2 	eor.w	r2, r7, r2, ror #31
   12eee:	9209      	str	r2, [sp, #36]	; 0x24
   12ef0:	ea0e 02b5 	and.w	r2, lr, r5, ror #2
   12ef4:	ea08 0eb0 	and.w	lr, r8, r0, ror #2
   12ef8:	ea42 0e0e 	orr.w	lr, r2, lr
   12efc:	9a09      	ldr	r2, [sp, #36]	; 0x24
   12efe:	eb03 72f2 	add.w	r2, r3, r2, ror #31
   12f02:	eb02 02b6 	add.w	r2, r2, r6, ror #2
   12f06:	4496      	add	lr, r2
   12f08:	9a0d      	ldr	r2, [sp, #52]	; 0x34
   12f0a:	eb0e 6ef1 	add.w	lr, lr, r1, ror #27
   12f0e:	9c0a      	ldr	r4, [sp, #40]	; 0x28
   12f10:	ea82 76f4 	eor.w	r6, r2, r4, ror #31
   12f14:	9a05      	ldr	r2, [sp, #20]
   12f16:	ea86 76f2 	eor.w	r6, r6, r2, ror #31
   12f1a:	ea86 72fc 	eor.w	r2, r6, ip, ror #31
   12f1e:	9e04      	ldr	r6, [sp, #16]
   12f20:	920a      	str	r2, [sp, #40]	; 0x28
   12f22:	e001      	b.n	12f28 <Transform+0x9b4>
   12f24:	8f1bbcdc 	.word	0x8f1bbcdc
   12f28:	ea41 02b8 	orr.w	r2, r1, r8, ror #2
   12f2c:	ea02 04b0 	and.w	r4, r2, r0, ror #2
   12f30:	ea01 02b8 	and.w	r2, r1, r8, ror #2
   12f34:	4322      	orrs	r2, r4
   12f36:	9c0a      	ldr	r4, [sp, #40]	; 0x28
   12f38:	eb03 74f4 	add.w	r4, r3, r4, ror #31
   12f3c:	eb04 05b5 	add.w	r5, r4, r5, ror #2
   12f40:	9c0b      	ldr	r4, [sp, #44]	; 0x2c
   12f42:	4415      	add	r5, r2
   12f44:	9a16      	ldr	r2, [sp, #88]	; 0x58
   12f46:	eb05 65fe 	add.w	r5, r5, lr, ror #27
   12f4a:	ea82 72f4 	eor.w	r2, r2, r4, ror #31
   12f4e:	ea82 7afa 	eor.w	sl, r2, sl, ror #31
   12f52:	ea8a 7afb 	eor.w	sl, sl, fp, ror #31
   12f56:	ea4f 72fa 	mov.w	r2, sl, ror #31
   12f5a:	9216      	str	r2, [sp, #88]	; 0x58
   12f5c:	ea4e 02b1 	orr.w	r2, lr, r1, ror #2
   12f60:	ea02 04b8 	and.w	r4, r2, r8, ror #2
   12f64:	ea0e 02b1 	and.w	r2, lr, r1, ror #2
   12f68:	4322      	orrs	r2, r4
   12f6a:	eb03 74fa 	add.w	r4, r3, sl, ror #31
   12f6e:	eb04 00b0 	add.w	r0, r4, r0, ror #2
   12f72:	9c03      	ldr	r4, [sp, #12]
   12f74:	4402      	add	r2, r0
   12f76:	980d      	ldr	r0, [sp, #52]	; 0x34
   12f78:	eb02 62f5 	add.w	r2, r2, r5, ror #27
   12f7c:	ea80 70f4 	eor.w	r0, r0, r4, ror #31
   12f80:	ea45 04be 	orr.w	r4, r5, lr, ror #2
   12f84:	ea80 79f9 	eor.w	r9, r0, r9, ror #31
   12f88:	9809      	ldr	r0, [sp, #36]	; 0x24
   12f8a:	ea04 04b1 	and.w	r4, r4, r1, ror #2
   12f8e:	ea89 79f0 	eor.w	r9, r9, r0, ror #31
   12f92:	ea4f 70f9 	mov.w	r0, r9, ror #31
   12f96:	eb03 73f9 	add.w	r3, r3, r9, ror #31
   12f9a:	900d      	str	r0, [sp, #52]	; 0x34
   12f9c:	ea05 00be 	and.w	r0, r5, lr, ror #2
   12fa0:	eb03 03b8 	add.w	r3, r3, r8, ror #2
   12fa4:	4320      	orrs	r0, r4
   12fa6:	ea4f 05b5 	mov.w	r5, r5, ror #2
   12faa:	4418      	add	r0, r3
   12fac:	e9dd 430b 	ldrd	r4, r3, [sp, #44]	; 0x2c
   12fb0:	ea85 07be 	eor.w	r7, r5, lr, ror #2
   12fb4:	eb00 60f2 	add.w	r0, r0, r2, ror #27
   12fb8:	4057      	eors	r7, r2
   12fba:	ea83 78f4 	eor.w	r8, r3, r4, ror #31
   12fbe:	9b07      	ldr	r3, [sp, #28]
   12fc0:	ea88 78f3 	eor.w	r8, r8, r3, ror #31
   12fc4:	9b0a      	ldr	r3, [sp, #40]	; 0x28
   12fc6:	ea88 73f3 	eor.w	r3, r8, r3, ror #31
   12fca:	930b      	str	r3, [sp, #44]	; 0x2c
   12fcc:	4bd4      	ldr	r3, [pc, #848]	; (13320 <Transform+0xdac>)
   12fce:	9c0b      	ldr	r4, [sp, #44]	; 0x2c
   12fd0:	eb03 74f4 	add.w	r4, r3, r4, ror #31
   12fd4:	eb04 01b1 	add.w	r1, r4, r1, ror #2
   12fd8:	9c03      	ldr	r4, [sp, #12]
   12fda:	440f      	add	r7, r1
   12fdc:	990e      	ldr	r1, [sp, #56]	; 0x38
   12fde:	eb07 67f0 	add.w	r7, r7, r0, ror #27
   12fe2:	ea81 71f4 	eor.w	r1, r1, r4, ror #31
   12fe6:	9c08      	ldr	r4, [sp, #32]
   12fe8:	ea81 71f4 	eor.w	r1, r1, r4, ror #31
   12fec:	ea85 04b2 	eor.w	r4, r5, r2, ror #2
   12ff0:	ea81 71fa 	eor.w	r1, r1, sl, ror #31
   12ff4:	4044      	eors	r4, r0
   12ff6:	ea4f 00b0 	mov.w	r0, r0, ror #2
   12ffa:	9103      	str	r1, [sp, #12]
   12ffc:	eb03 71f1 	add.w	r1, r3, r1, ror #31
   13000:	eb01 01be 	add.w	r1, r1, lr, ror #2
   13004:	440c      	add	r4, r1
   13006:	990c      	ldr	r1, [sp, #48]	; 0x30
   13008:	eb04 64f7 	add.w	r4, r4, r7, ror #27
   1300c:	ea81 7ef6 	eor.w	lr, r1, r6, ror #31
   13010:	ea8e 7efc 	eor.w	lr, lr, ip, ror #31
   13014:	ea80 0cb2 	eor.w	ip, r0, r2, ror #2
   13018:	ea8e 7ef9 	eor.w	lr, lr, r9, ror #31
   1301c:	ea8c 0c07 	eor.w	ip, ip, r7
   13020:	ea4f 71fe 	mov.w	r1, lr, ror #31
   13024:	910c      	str	r1, [sp, #48]	; 0x30
   13026:	eb03 71fe 	add.w	r1, r3, lr, ror #31
   1302a:	4429      	add	r1, r5
   1302c:	9d05      	ldr	r5, [sp, #20]
   1302e:	448c      	add	ip, r1
   13030:	990e      	ldr	r1, [sp, #56]	; 0x38
   13032:	eb0c 6cf4 	add.w	ip, ip, r4, ror #27
   13036:	ea81 71f5 	eor.w	r1, r1, r5, ror #31
   1303a:	ea81 7bfb 	eor.w	fp, r1, fp, ror #31
   1303e:	990b      	ldr	r1, [sp, #44]	; 0x2c
   13040:	ea8b 7bf1 	eor.w	fp, fp, r1, ror #31
   13044:	ea4f 71fb 	mov.w	r1, fp, ror #31
   13048:	eb03 75fb 	add.w	r5, r3, fp, ror #31
   1304c:	910e      	str	r1, [sp, #56]	; 0x38
   1304e:	ea80 01b7 	eor.w	r1, r0, r7, ror #2
   13052:	eb05 02b2 	add.w	r2, r5, r2, ror #2
   13056:	4635      	mov	r5, r6
   13058:	4061      	eors	r1, r4
   1305a:	ea4f 04b4 	mov.w	r4, r4, ror #2
   1305e:	4411      	add	r1, r2
   13060:	9a14      	ldr	r2, [sp, #80]	; 0x50
   13062:	ea84 08b7 	eor.w	r8, r4, r7, ror #2
   13066:	eb01 61fc 	add.w	r1, r1, ip, ror #27
   1306a:	ea88 080c 	eor.w	r8, r8, ip
   1306e:	ea84 06bc 	eor.w	r6, r4, ip, ror #2
   13072:	ea82 72f5 	eor.w	r2, r2, r5, ror #31
   13076:	9d09      	ldr	r5, [sp, #36]	; 0x24
   13078:	404e      	eors	r6, r1
   1307a:	ea82 72f5 	eor.w	r2, r2, r5, ror #31
   1307e:	9d03      	ldr	r5, [sp, #12]
   13080:	ea82 72f5 	eor.w	r2, r2, r5, ror #31
   13084:	9204      	str	r2, [sp, #16]
   13086:	eb03 72f2 	add.w	r2, r3, r2, ror #31
   1308a:	4402      	add	r2, r0
   1308c:	4490      	add	r8, r2
   1308e:	9a15      	ldr	r2, [sp, #84]	; 0x54
   13090:	eb08 68f1 	add.w	r8, r8, r1, ror #27
   13094:	9805      	ldr	r0, [sp, #20]
   13096:	ea4f 01b1 	mov.w	r1, r1, ror #2
   1309a:	ea82 72f0 	eor.w	r2, r2, r0, ror #31
   1309e:	980a      	ldr	r0, [sp, #40]	; 0x28
   130a0:	ea82 72f0 	eor.w	r2, r2, r0, ror #31
   130a4:	9807      	ldr	r0, [sp, #28]
   130a6:	ea82 72fe 	eor.w	r2, r2, lr, ror #31
   130aa:	9205      	str	r2, [sp, #20]
   130ac:	eb03 72f2 	add.w	r2, r3, r2, ror #31
   130b0:	eb02 02b7 	add.w	r2, r2, r7, ror #2
   130b4:	ea81 07bc 	eor.w	r7, r1, ip, ror #2
   130b8:	4416      	add	r6, r2
   130ba:	9a14      	ldr	r2, [sp, #80]	; 0x50
   130bc:	ea87 0708 	eor.w	r7, r7, r8
   130c0:	eb06 66f8 	add.w	r6, r6, r8, ror #27
   130c4:	ea82 72f0 	eor.w	r2, r2, r0, ror #31
   130c8:	ea82 7afa 	eor.w	sl, r2, sl, ror #31
   130cc:	ea8a 7afb 	eor.w	sl, sl, fp, ror #31
   130d0:	eb03 72fa 	add.w	r2, r3, sl, ror #31
   130d4:	4422      	add	r2, r4
   130d6:	e9dd 4007 	ldrd	r4, r0, [sp, #28]
   130da:	4417      	add	r7, r2
   130dc:	9a15      	ldr	r2, [sp, #84]	; 0x54
   130de:	eb07 67f6 	add.w	r7, r7, r6, ror #27
   130e2:	ea82 72f0 	eor.w	r2, r2, r0, ror #31
   130e6:	ea82 79f9 	eor.w	r9, r2, r9, ror #31
   130ea:	9a04      	ldr	r2, [sp, #16]
   130ec:	ea89 79f2 	eor.w	r9, r9, r2, ror #31
   130f0:	ea81 02b8 	eor.w	r2, r1, r8, ror #2
   130f4:	eb03 70f9 	add.w	r0, r3, r9, ror #31
   130f8:	4072      	eors	r2, r6
   130fa:	ea4f 06b6 	mov.w	r6, r6, ror #2
   130fe:	eb00 00bc 	add.w	r0, r0, ip, ror #2
   13102:	ea86 0cb8 	eor.w	ip, r6, r8, ror #2
   13106:	4402      	add	r2, r0
   13108:	9811      	ldr	r0, [sp, #68]	; 0x44
   1310a:	ea8c 0c07 	eor.w	ip, ip, r7
   1310e:	eb02 62f7 	add.w	r2, r2, r7, ror #27
   13112:	ea80 74f4 	eor.w	r4, r0, r4, ror #31
   13116:	980b      	ldr	r0, [sp, #44]	; 0x2c
   13118:	ea84 74f0 	eor.w	r4, r4, r0, ror #31
   1311c:	9805      	ldr	r0, [sp, #20]
   1311e:	ea84 74f0 	eor.w	r4, r4, r0, ror #31
   13122:	eb03 70f4 	add.w	r0, r3, r4, ror #31
   13126:	4401      	add	r1, r0
   13128:	9808      	ldr	r0, [sp, #32]
   1312a:	448c      	add	ip, r1
   1312c:	9912      	ldr	r1, [sp, #72]	; 0x48
   1312e:	eb0c 6cf2 	add.w	ip, ip, r2, ror #27
   13132:	ea81 71f0 	eor.w	r1, r1, r0, ror #31
   13136:	ea81 71f5 	eor.w	r1, r1, r5, ror #31
   1313a:	ea86 05b7 	eor.w	r5, r6, r7, ror #2
   1313e:	ea81 71fa 	eor.w	r1, r1, sl, ror #31
   13142:	4055      	eors	r5, r2
   13144:	ea4f 02b2 	mov.w	r2, r2, ror #2
   13148:	eb03 70f1 	add.w	r0, r3, r1, ror #31
   1314c:	eb00 00b8 	add.w	r0, r0, r8, ror #2
   13150:	4405      	add	r5, r0
   13152:	9811      	ldr	r0, [sp, #68]	; 0x44
   13154:	eb05 65fc 	add.w	r5, r5, ip, ror #27
   13158:	4680      	mov	r8, r0
   1315a:	9809      	ldr	r0, [sp, #36]	; 0x24
   1315c:	ea88 70f0 	eor.w	r0, r8, r0, ror #31
   13160:	ea82 08b7 	eor.w	r8, r2, r7, ror #2
   13164:	ea80 70fe 	eor.w	r0, r0, lr, ror #31
   13168:	ea88 080c 	eor.w	r8, r8, ip
   1316c:	ea80 70f9 	eor.w	r0, r0, r9, ror #31
   13170:	9007      	str	r0, [sp, #28]
   13172:	eb03 70f0 	add.w	r0, r3, r0, ror #31
   13176:	4430      	add	r0, r6
   13178:	9e0a      	ldr	r6, [sp, #40]	; 0x28
   1317a:	4480      	add	r8, r0
   1317c:	9812      	ldr	r0, [sp, #72]	; 0x48
   1317e:	eb08 68f5 	add.w	r8, r8, r5, ror #27
   13182:	ea80 70f6 	eor.w	r0, r0, r6, ror #31
   13186:	ea80 70fb 	eor.w	r0, r0, fp, ror #31
   1318a:	ea80 70f4 	eor.w	r0, r0, r4, ror #31
   1318e:	9008      	str	r0, [sp, #32]
   13190:	ea82 00bc 	eor.w	r0, r2, ip, ror #2
   13194:	9e08      	ldr	r6, [sp, #32]
   13196:	4068      	eors	r0, r5
   13198:	ea4f 05b5 	mov.w	r5, r5, ror #2
   1319c:	ea85 0ebc 	eor.w	lr, r5, ip, ror #2
   131a0:	eb03 76f6 	add.w	r6, r3, r6, ror #31
   131a4:	ea8e 0e08 	eor.w	lr, lr, r8
   131a8:	eb06 06b7 	add.w	r6, r6, r7, ror #2
   131ac:	9f09      	ldr	r7, [sp, #36]	; 0x24
   131ae:	4430      	add	r0, r6
   131b0:	9e16      	ldr	r6, [sp, #88]	; 0x58
   131b2:	eb00 60f8 	add.w	r0, r0, r8, ror #27
   131b6:	ea86 77f7 	eor.w	r7, r6, r7, ror #31
   131ba:	9e04      	ldr	r6, [sp, #16]
   131bc:	ea87 77f6 	eor.w	r7, r7, r6, ror #31
   131c0:	ea87 77f1 	eor.w	r7, r7, r1, ror #31
   131c4:	eb03 76f7 	add.w	r6, r3, r7, ror #31
   131c8:	4432      	add	r2, r6
   131ca:	9e0a      	ldr	r6, [sp, #40]	; 0x28
   131cc:	4496      	add	lr, r2
   131ce:	9a0d      	ldr	r2, [sp, #52]	; 0x34
   131d0:	eb0e 6ef0 	add.w	lr, lr, r0, ror #27
   131d4:	ea82 76f6 	eor.w	r6, r2, r6, ror #31
   131d8:	9a05      	ldr	r2, [sp, #20]
   131da:	ea86 76f2 	eor.w	r6, r6, r2, ror #31
   131de:	9a07      	ldr	r2, [sp, #28]
   131e0:	ea86 72f2 	eor.w	r2, r6, r2, ror #31
   131e4:	9209      	str	r2, [sp, #36]	; 0x24
   131e6:	ea85 02b8 	eor.w	r2, r5, r8, ror #2
   131ea:	9e09      	ldr	r6, [sp, #36]	; 0x24
   131ec:	4042      	eors	r2, r0
   131ee:	ea4f 00b0 	mov.w	r0, r0, ror #2
   131f2:	eb03 7bf6 	add.w	fp, r3, r6, ror #31
   131f6:	9e16      	ldr	r6, [sp, #88]	; 0x58
   131f8:	eb0b 0cbc 	add.w	ip, fp, ip, ror #2
   131fc:	4462      	add	r2, ip
   131fe:	46b4      	mov	ip, r6
   13200:	9e0b      	ldr	r6, [sp, #44]	; 0x2c
   13202:	eb02 62fe 	add.w	r2, r2, lr, ror #27
   13206:	ea8c 7cf6 	eor.w	ip, ip, r6, ror #31
   1320a:	9e08      	ldr	r6, [sp, #32]
   1320c:	ea8c 7afa 	eor.w	sl, ip, sl, ror #31
   13210:	ea80 0cb8 	eor.w	ip, r0, r8, ror #2
   13214:	ea8a 7af6 	eor.w	sl, sl, r6, ror #31
   13218:	9e03      	ldr	r6, [sp, #12]
   1321a:	ea8c 0c0e 	eor.w	ip, ip, lr
   1321e:	eb03 7bfa 	add.w	fp, r3, sl, ror #31
   13222:	44ab      	add	fp, r5
   13224:	9d0d      	ldr	r5, [sp, #52]	; 0x34
   13226:	44dc      	add	ip, fp
   13228:	eb0c 6cf2 	add.w	ip, ip, r2, ror #27
   1322c:	ea85 75f6 	eor.w	r5, r5, r6, ror #31
   13230:	9e0c      	ldr	r6, [sp, #48]	; 0x30
   13232:	ea85 79f9 	eor.w	r9, r5, r9, ror #31
   13236:	ea80 05be 	eor.w	r5, r0, lr, ror #2
   1323a:	ea89 77f7 	eor.w	r7, r9, r7, ror #31
   1323e:	4055      	eors	r5, r2
   13240:	ea4f 02b2 	mov.w	r2, r2, ror #2
   13244:	eb03 79f7 	add.w	r9, r3, r7, ror #31
   13248:	eb09 09b8 	add.w	r9, r9, r8, ror #2
   1324c:	46b0      	mov	r8, r6
   1324e:	9e0b      	ldr	r6, [sp, #44]	; 0x2c
   13250:	444d      	add	r5, r9
   13252:	eb05 65fc 	add.w	r5, r5, ip, ror #27
   13256:	ea88 78f6 	eor.w	r8, r8, r6, ror #31
   1325a:	9e09      	ldr	r6, [sp, #36]	; 0x24
   1325c:	ea88 74f4 	eor.w	r4, r8, r4, ror #31
   13260:	ea84 76f6 	eor.w	r6, r4, r6, ror #31
   13264:	ea82 04be 	eor.w	r4, r2, lr, ror #2
   13268:	eb03 78f6 	add.w	r8, r3, r6, ror #31
   1326c:	ea84 040c 	eor.w	r4, r4, ip
   13270:	4440      	add	r0, r8
   13272:	4420      	add	r0, r4
   13274:	9c0e      	ldr	r4, [sp, #56]	; 0x38
   13276:	eb00 60f5 	add.w	r0, r0, r5, ror #27
   1327a:	46a0      	mov	r8, r4
   1327c:	9c03      	ldr	r4, [sp, #12]
   1327e:	ea88 74f4 	eor.w	r4, r8, r4, ror #31
   13282:	ea84 71f1 	eor.w	r1, r4, r1, ror #31
   13286:	9c04      	ldr	r4, [sp, #16]
   13288:	ea81 71fa 	eor.w	r1, r1, sl, ror #31
   1328c:	eb03 71f1 	add.w	r1, r3, r1, ror #31
   13290:	eb01 0ebe 	add.w	lr, r1, lr, ror #2
   13294:	ea82 01bc 	eor.w	r1, r2, ip, ror #2
   13298:	4069      	eors	r1, r5
   1329a:	ea4f 05b5 	mov.w	r5, r5, ror #2
   1329e:	448e      	add	lr, r1
   132a0:	990c      	ldr	r1, [sp, #48]	; 0x30
   132a2:	eb0e 6ef0 	add.w	lr, lr, r0, ror #27
   132a6:	ea81 71f4 	eor.w	r1, r1, r4, ror #31
   132aa:	9c07      	ldr	r4, [sp, #28]
   132ac:	ea81 71f4 	eor.w	r1, r1, r4, ror #31
   132b0:	9c05      	ldr	r4, [sp, #20]
   132b2:	ea81 71f7 	eor.w	r1, r1, r7, ror #31
   132b6:	eb03 71f1 	add.w	r1, r3, r1, ror #31
   132ba:	440a      	add	r2, r1
   132bc:	ea85 01bc 	eor.w	r1, r5, ip, ror #2
   132c0:	4041      	eors	r1, r0
   132c2:	440a      	add	r2, r1
   132c4:	ea88 71f4 	eor.w	r1, r8, r4, ror #31
   132c8:	9c08      	ldr	r4, [sp, #32]
   132ca:	eb02 62fe 	add.w	r2, r2, lr, ror #27
   132ce:	ea81 71f4 	eor.w	r1, r1, r4, ror #31
   132d2:	ea81 76f6 	eor.w	r6, r1, r6, ror #31
   132d6:	990f      	ldr	r1, [sp, #60]	; 0x3c
   132d8:	440b      	add	r3, r1
   132da:	9901      	ldr	r1, [sp, #4]
   132dc:	eb03 73f6 	add.w	r3, r3, r6, ror #31
   132e0:	eb03 0cbc 	add.w	ip, r3, ip, ror #2
   132e4:	ea85 03b0 	eor.w	r3, r5, r0, ror #2
   132e8:	ea83 030e 	eor.w	r3, r3, lr
   132ec:	4463      	add	r3, ip
   132ee:	eb03 63f2 	add.w	r3, r3, r2, ror #27
   132f2:	64cb      	str	r3, [r1, #76]	; 0x4c
   132f4:	9b02      	ldr	r3, [sp, #8]
   132f6:	441a      	add	r2, r3
   132f8:	9b06      	ldr	r3, [sp, #24]
   132fa:	650a      	str	r2, [r1, #80]	; 0x50
   132fc:	eb03 01be 	add.w	r1, r3, lr, ror #2
   13300:	9b01      	ldr	r3, [sp, #4]
   13302:	6559      	str	r1, [r3, #84]	; 0x54
   13304:	9b10      	ldr	r3, [sp, #64]	; 0x40
   13306:	eb03 00b0 	add.w	r0, r3, r0, ror #2
   1330a:	9b01      	ldr	r3, [sp, #4]
   1330c:	6598      	str	r0, [r3, #88]	; 0x58
   1330e:	2000      	movs	r0, #0
   13310:	9b13      	ldr	r3, [sp, #76]	; 0x4c
   13312:	441d      	add	r5, r3
   13314:	9b01      	ldr	r3, [sp, #4]
   13316:	65dd      	str	r5, [r3, #92]	; 0x5c
   13318:	b019      	add	sp, #100	; 0x64
   1331a:	e8bd 8ff0 	ldmia.w	sp!, {r4, r5, r6, r7, r8, r9, sl, fp, pc}
   1331e:	bf00      	nop
   13320:	ca62c1d6 	.word	0xca62c1d6

00013324 <wc_InitSha_ex>:
   13324:	b1b8      	cbz	r0, 13356 <wc_InitSha_ex+0x32>
   13326:	4b0d      	ldr	r3, [pc, #52]	; (1335c <wc_InitSha_ex+0x38>)
   13328:	64c3      	str	r3, [r0, #76]	; 0x4c
   1332a:	f103 3388 	add.w	r3, r3, #2290649224	; 0x88888888
   1332e:	6601      	str	r1, [r0, #96]	; 0x60
   13330:	6503      	str	r3, [r0, #80]	; 0x50
   13332:	f103 4329 	add.w	r3, r3, #2835349504	; 0xa9000000
   13336:	f5a3 1396 	sub.w	r3, r3, #1228800	; 0x12c000
   1333a:	f6a3 638b 	subw	r3, r3, #3723	; 0xe8b
   1333e:	6543      	str	r3, [r0, #84]	; 0x54
   13340:	f1a3 3388 	sub.w	r3, r3, #2290649224	; 0x88888888
   13344:	6583      	str	r3, [r0, #88]	; 0x58
   13346:	4b06      	ldr	r3, [pc, #24]	; (13360 <wc_InitSha_ex+0x3c>)
   13348:	65c3      	str	r3, [r0, #92]	; 0x5c
   1334a:	2300      	movs	r3, #0
   1334c:	e9c0 3300 	strd	r3, r3, [r0]
   13350:	6083      	str	r3, [r0, #8]
   13352:	4618      	mov	r0, r3
   13354:	4770      	bx	lr
   13356:	f06f 00ac 	mvn.w	r0, #172	; 0xac
   1335a:	4770      	bx	lr
   1335c:	67452301 	.word	0x67452301
   13360:	c3d2e1f0 	.word	0xc3d2e1f0

00013364 <wc_ShaUpdate>:
   13364:	e92d 47f0 	stmdb	sp!, {r4, r5, r6, r7, r8, r9, sl, lr}
   13368:	460f      	mov	r7, r1
   1336a:	4614      	mov	r4, r2
   1336c:	4605      	mov	r5, r0
   1336e:	2800      	cmp	r0, #0
   13370:	d059      	beq.n	13426 <wc_ShaUpdate+0xc2>
   13372:	b939      	cbnz	r1, 13384 <wc_ShaUpdate+0x20>
   13374:	2a00      	cmp	r2, #0
   13376:	bf14      	ite	ne
   13378:	f06f 06ac 	mvnne.w	r6, #172	; 0xac
   1337c:	2600      	moveq	r6, #0
   1337e:	4630      	mov	r0, r6
   13380:	e8bd 87f0 	ldmia.w	sp!, {r4, r5, r6, r7, r8, r9, sl, pc}
   13384:	6800      	ldr	r0, [r0, #0]
   13386:	283f      	cmp	r0, #63	; 0x3f
   13388:	d850      	bhi.n	1342c <wc_ShaUpdate+0xc8>
   1338a:	686b      	ldr	r3, [r5, #4]
   1338c:	f105 080c 	add.w	r8, r5, #12
   13390:	18d3      	adds	r3, r2, r3
   13392:	606b      	str	r3, [r5, #4]
   13394:	bf22      	ittt	cs
   13396:	68ab      	ldrcs	r3, [r5, #8]
   13398:	3301      	addcs	r3, #1
   1339a:	60ab      	strcs	r3, [r5, #8]
   1339c:	b1d0      	cbz	r0, 133d4 <wc_ShaUpdate+0x70>
   1339e:	f1c0 0640 	rsb	r6, r0, #64	; 0x40
   133a2:	4440      	add	r0, r8
   133a4:	4296      	cmp	r6, r2
   133a6:	bf28      	it	cs
   133a8:	4616      	movcs	r6, r2
   133aa:	4632      	mov	r2, r6
   133ac:	4437      	add	r7, r6
   133ae:	f7fd e83e 	blx	1042c <memcpy@plt>
   133b2:	682a      	ldr	r2, [r5, #0]
   133b4:	1ba4      	subs	r4, r4, r6
   133b6:	4432      	add	r2, r6
   133b8:	2a40      	cmp	r2, #64	; 0x40
   133ba:	602a      	str	r2, [r5, #0]
   133bc:	d10a      	bne.n	133d4 <wc_ShaUpdate+0x70>
   133be:	4641      	mov	r1, r8
   133c0:	4640      	mov	r0, r8
   133c2:	f7ff f8cb 	bl	1255c <ByteReverseWords>
   133c6:	4628      	mov	r0, r5
   133c8:	f7ff f8d4 	bl	12574 <Transform>
   133cc:	4606      	mov	r6, r0
   133ce:	2800      	cmp	r0, #0
   133d0:	d1d5      	bne.n	1337e <wc_ShaUpdate+0x1a>
   133d2:	6028      	str	r0, [r5, #0]
   133d4:	46a1      	mov	r9, r4
   133d6:	2600      	movs	r6, #0
   133d8:	eb07 0a04 	add.w	sl, r7, r4
   133dc:	f1b9 0f3f 	cmp.w	r9, #63	; 0x3f
   133e0:	ebaa 0109 	sub.w	r1, sl, r9
   133e4:	d80f      	bhi.n	13406 <wc_ShaUpdate+0xa2>
   133e6:	09a2      	lsrs	r2, r4, #6
   133e8:	f06f 033f 	mvn.w	r3, #63	; 0x3f
   133ec:	f024 013f 	bic.w	r1, r4, #63	; 0x3f
   133f0:	4439      	add	r1, r7
   133f2:	fb03 4402 	mla	r4, r3, r2, r4
   133f6:	2c00      	cmp	r4, #0
   133f8:	d0c1      	beq.n	1337e <wc_ShaUpdate+0x1a>
   133fa:	4622      	mov	r2, r4
   133fc:	4640      	mov	r0, r8
   133fe:	f7fd e816 	blx	1042c <memcpy@plt>
   13402:	602c      	str	r4, [r5, #0]
   13404:	e7bb      	b.n	1337e <wc_ShaUpdate+0x1a>
   13406:	2240      	movs	r2, #64	; 0x40
   13408:	4640      	mov	r0, r8
   1340a:	f7fd e810 	blx	1042c <memcpy@plt>
   1340e:	2240      	movs	r2, #64	; 0x40
   13410:	4641      	mov	r1, r8
   13412:	4640      	mov	r0, r8
   13414:	f1a9 0940 	sub.w	r9, r9, #64	; 0x40
   13418:	f7ff f8a0 	bl	1255c <ByteReverseWords>
   1341c:	4628      	mov	r0, r5
   1341e:	f7ff f8a9 	bl	12574 <Transform>
   13422:	4606      	mov	r6, r0
   13424:	e7da      	b.n	133dc <wc_ShaUpdate+0x78>
   13426:	f06f 06ac 	mvn.w	r6, #172	; 0xac
   1342a:	e7a8      	b.n	1337e <wc_ShaUpdate+0x1a>
   1342c:	f06f 0683 	mvn.w	r6, #131	; 0x83
   13430:	e7a5      	b.n	1337e <wc_ShaUpdate+0x1a>
	...

00013434 <wc_ShaFinal>:
   13434:	b5f8      	push	{r3, r4, r5, r6, r7, lr}
   13436:	460f      	mov	r7, r1
   13438:	4604      	mov	r4, r0
   1343a:	2800      	cmp	r0, #0
   1343c:	d065      	beq.n	1350a <wc_ShaFinal+0xd6>
   1343e:	2900      	cmp	r1, #0
   13440:	d063      	beq.n	1350a <wc_ShaFinal+0xd6>
   13442:	4606      	mov	r6, r0
   13444:	f856 3b0c 	ldr.w	r3, [r6], #12
   13448:	1c5a      	adds	r2, r3, #1
   1344a:	6002      	str	r2, [r0, #0]
   1344c:	2280      	movs	r2, #128	; 0x80
   1344e:	54f2      	strb	r2, [r6, r3]
   13450:	6800      	ldr	r0, [r0, #0]
   13452:	2838      	cmp	r0, #56	; 0x38
   13454:	d912      	bls.n	1347c <wc_ShaFinal+0x48>
   13456:	f1c0 0240 	rsb	r2, r0, #64	; 0x40
   1345a:	2100      	movs	r1, #0
   1345c:	4430      	add	r0, r6
   1345e:	f7fd e804 	blx	10468 <memset@plt>
   13462:	2240      	movs	r2, #64	; 0x40
   13464:	4631      	mov	r1, r6
   13466:	4630      	mov	r0, r6
   13468:	6022      	str	r2, [r4, #0]
   1346a:	f7ff f877 	bl	1255c <ByteReverseWords>
   1346e:	4620      	mov	r0, r4
   13470:	f7ff f880 	bl	12574 <Transform>
   13474:	4605      	mov	r5, r0
   13476:	2800      	cmp	r0, #0
   13478:	d145      	bne.n	13506 <wc_ShaFinal+0xd2>
   1347a:	6020      	str	r0, [r4, #0]
   1347c:	6820      	ldr	r0, [r4, #0]
   1347e:	2100      	movs	r1, #0
   13480:	f1c0 0238 	rsb	r2, r0, #56	; 0x38
   13484:	4430      	add	r0, r6
   13486:	f7fc eff0 	blx	10468 <memset@plt>
   1348a:	2240      	movs	r2, #64	; 0x40
   1348c:	4631      	mov	r1, r6
   1348e:	4630      	mov	r0, r6
   13490:	f7ff f864 	bl	1255c <ByteReverseWords>
   13494:	e9d4 3101 	ldrd	r3, r1, [r4, #4]
   13498:	f104 0044 	add.w	r0, r4, #68	; 0x44
   1349c:	0f5a      	lsrs	r2, r3, #29
   1349e:	00db      	lsls	r3, r3, #3
   134a0:	eb02 02c1 	add.w	r2, r2, r1, lsl #3
   134a4:	f104 0108 	add.w	r1, r4, #8
   134a8:	e9c4 3201 	strd	r3, r2, [r4, #4]
   134ac:	2204      	movs	r2, #4
   134ae:	f7fc efbe 	blx	1042c <memcpy@plt>
   134b2:	2204      	movs	r2, #4
   134b4:	f104 0048 	add.w	r0, r4, #72	; 0x48
   134b8:	18a1      	adds	r1, r4, r2
   134ba:	f7fc efb8 	blx	1042c <memcpy@plt>
   134be:	4631      	mov	r1, r6
   134c0:	4620      	mov	r0, r4
   134c2:	f7ff f857 	bl	12574 <Transform>
   134c6:	f104 014c 	add.w	r1, r4, #76	; 0x4c
   134ca:	2214      	movs	r2, #20
   134cc:	4605      	mov	r5, r0
   134ce:	4608      	mov	r0, r1
   134d0:	f7ff f844 	bl	1255c <ByteReverseWords>
   134d4:	2214      	movs	r2, #20
   134d6:	4638      	mov	r0, r7
   134d8:	f7fc efa8 	blx	1042c <memcpy@plt>
   134dc:	4b0c      	ldr	r3, [pc, #48]	; (13510 <wc_ShaFinal+0xdc>)
   134de:	64e3      	str	r3, [r4, #76]	; 0x4c
   134e0:	f103 3388 	add.w	r3, r3, #2290649224	; 0x88888888
   134e4:	6523      	str	r3, [r4, #80]	; 0x50
   134e6:	f103 4329 	add.w	r3, r3, #2835349504	; 0xa9000000
   134ea:	f5a3 1396 	sub.w	r3, r3, #1228800	; 0x12c000
   134ee:	f6a3 638b 	subw	r3, r3, #3723	; 0xe8b
   134f2:	6563      	str	r3, [r4, #84]	; 0x54
   134f4:	f1a3 3388 	sub.w	r3, r3, #2290649224	; 0x88888888
   134f8:	65a3      	str	r3, [r4, #88]	; 0x58
   134fa:	4b06      	ldr	r3, [pc, #24]	; (13514 <wc_ShaFinal+0xe0>)
   134fc:	65e3      	str	r3, [r4, #92]	; 0x5c
   134fe:	2300      	movs	r3, #0
   13500:	e9c4 3300 	strd	r3, r3, [r4]
   13504:	60a3      	str	r3, [r4, #8]
   13506:	4628      	mov	r0, r5
   13508:	bdf8      	pop	{r3, r4, r5, r6, r7, pc}
   1350a:	f06f 05ac 	mvn.w	r5, #172	; 0xac
   1350e:	e7fa      	b.n	13506 <wc_ShaFinal+0xd2>
   13510:	67452301 	.word	0x67452301
   13514:	c3d2e1f0 	.word	0xc3d2e1f0

00013518 <wc_ShaFree>:
   13518:	4770      	bx	lr

0001351a <ByteReverseWords>:
   1351a:	0892      	lsrs	r2, r2, #2
   1351c:	2300      	movs	r3, #0
   1351e:	b510      	push	{r4, lr}
   13520:	f851 4023 	ldr.w	r4, [r1, r3, lsl #2]
   13524:	ba24      	rev	r4, r4
   13526:	f840 4023 	str.w	r4, [r0, r3, lsl #2]
   1352a:	3301      	adds	r3, #1
   1352c:	429a      	cmp	r2, r3
   1352e:	d1f7      	bne.n	13520 <ByteReverseWords+0x6>
   13530:	bd10      	pop	{r4, pc}
	...

00013534 <Transform_Sha256>:
   13534:	e92d 4ff0 	stmdb	sp!, {r4, r5, r6, r7, r8, r9, sl, fp, lr}
   13538:	4604      	mov	r4, r0
   1353a:	b08d      	sub	sp, #52	; 0x34
   1353c:	f44f 7080 	mov.w	r0, #256	; 0x100
   13540:	460d      	mov	r5, r1
   13542:	f7fc ef80 	blx	10444 <malloc@plt>
   13546:	4682      	mov	sl, r0
   13548:	2800      	cmp	r0, #0
   1354a:	f000 8185 	beq.w	13858 <Transform_Sha256+0x324>
   1354e:	1f23      	subs	r3, r4, #4
   13550:	9300      	str	r3, [sp, #0]
   13552:	ab04      	add	r3, sp, #16
   13554:	9301      	str	r3, [sp, #4]
   13556:	f104 031c 	add.w	r3, r4, #28
   1355a:	9a01      	ldr	r2, [sp, #4]
   1355c:	9302      	str	r3, [sp, #8]
   1355e:	9b00      	ldr	r3, [sp, #0]
   13560:	f853 1f04 	ldr.w	r1, [r3, #4]!
   13564:	f842 1b04 	str.w	r1, [r2], #4
   13568:	9902      	ldr	r1, [sp, #8]
   1356a:	4299      	cmp	r1, r3
   1356c:	d1f8      	bne.n	13560 <Transform_Sha256+0x2c>
   1356e:	2300      	movs	r3, #0
   13570:	f855 2023 	ldr.w	r2, [r5, r3, lsl #2]
   13574:	f84a 2023 	str.w	r2, [sl, r3, lsl #2]
   13578:	3301      	adds	r3, #1
   1357a:	2b10      	cmp	r3, #16
   1357c:	d1f8      	bne.n	13570 <Transform_Sha256+0x3c>
   1357e:	46d0      	mov	r8, sl
   13580:	f10a 00c0 	add.w	r0, sl, #192	; 0xc0
   13584:	4652      	mov	r2, sl
   13586:	6b91      	ldr	r1, [r2, #56]	; 0x38
   13588:	4615      	mov	r5, r2
   1358a:	f852 4f04 	ldr.w	r4, [r2, #4]!
   1358e:	ea4f 43f1 	mov.w	r3, r1, ror #19
   13592:	ea83 4371 	eor.w	r3, r3, r1, ror #17
   13596:	4290      	cmp	r0, r2
   13598:	ea83 2391 	eor.w	r3, r3, r1, lsr #10
   1359c:	6a69      	ldr	r1, [r5, #36]	; 0x24
   1359e:	682d      	ldr	r5, [r5, #0]
   135a0:	4429      	add	r1, r5
   135a2:	440b      	add	r3, r1
   135a4:	ea4f 41b4 	mov.w	r1, r4, ror #18
   135a8:	ea81 11f4 	eor.w	r1, r1, r4, ror #7
   135ac:	ea81 01d4 	eor.w	r1, r1, r4, lsr #3
   135b0:	440b      	add	r3, r1
   135b2:	63d3      	str	r3, [r2, #60]	; 0x3c
   135b4:	d1e7      	bne.n	13586 <Transform_Sha256+0x52>
   135b6:	f8df 92a8 	ldr.w	r9, [pc, #680]	; 13860 <Transform_Sha256+0x32c>
   135ba:	f50a 7680 	add.w	r6, sl, #256	; 0x100
   135be:	e9dd ec04 	ldrd	lr, ip, [sp, #16]
   135c2:	9603      	str	r6, [sp, #12]
   135c4:	e9dd 2306 	ldrd	r2, r3, [sp, #24]
   135c8:	e9dd 4108 	ldrd	r4, r1, [sp, #32]
   135cc:	e9dd 050a 	ldrd	r0, r5, [sp, #40]	; 0x28
   135d0:	ea4f 2bf4 	mov.w	fp, r4, ror #11
   135d4:	f108 0820 	add.w	r8, r8, #32
   135d8:	f109 0920 	add.w	r9, r9, #32
   135dc:	f858 7c20 	ldr.w	r7, [r8, #-32]
   135e0:	ea8b 1bb4 	eor.w	fp, fp, r4, ror #6
   135e4:	f859 6c20 	ldr.w	r6, [r9, #-32]
   135e8:	ea8b 6b74 	eor.w	fp, fp, r4, ror #25
   135ec:	443e      	add	r6, r7
   135ee:	ea4e 070c 	orr.w	r7, lr, ip
   135f2:	44b3      	add	fp, r6
   135f4:	ea80 0601 	eor.w	r6, r0, r1
   135f8:	4026      	ands	r6, r4
   135fa:	4017      	ands	r7, r2
   135fc:	4046      	eors	r6, r0
   135fe:	44b3      	add	fp, r6
   13600:	ea4f 06be 	mov.w	r6, lr, ror #2
   13604:	445d      	add	r5, fp
   13606:	ea0e 0b0c 	and.w	fp, lr, ip
   1360a:	ea86 367e 	eor.w	r6, r6, lr, ror #13
   1360e:	ea47 070b 	orr.w	r7, r7, fp
   13612:	442b      	add	r3, r5
   13614:	ea84 0b01 	eor.w	fp, r4, r1
   13618:	ea86 56be 	eor.w	r6, r6, lr, ror #22
   1361c:	ea0b 0b03 	and.w	fp, fp, r3
   13620:	ea8b 0b01 	eor.w	fp, fp, r1
   13624:	4437      	add	r7, r6
   13626:	f859 6c1c 	ldr.w	r6, [r9, #-28]
   1362a:	443d      	add	r5, r7
   1362c:	f858 7c1c 	ldr.w	r7, [r8, #-28]
   13630:	443e      	add	r6, r7
   13632:	ea45 070e 	orr.w	r7, r5, lr
   13636:	4430      	add	r0, r6
   13638:	ea4f 26f3 	mov.w	r6, r3, ror #11
   1363c:	ea07 070c 	and.w	r7, r7, ip
   13640:	4458      	add	r0, fp
   13642:	ea05 0b0e 	and.w	fp, r5, lr
   13646:	ea86 16b3 	eor.w	r6, r6, r3, ror #6
   1364a:	ea47 070b 	orr.w	r7, r7, fp
   1364e:	ea84 0b03 	eor.w	fp, r4, r3
   13652:	ea86 6673 	eor.w	r6, r6, r3, ror #25
   13656:	4406      	add	r6, r0
   13658:	ea4f 3075 	mov.w	r0, r5, ror #13
   1365c:	4432      	add	r2, r6
   1365e:	ea80 00b5 	eor.w	r0, r0, r5, ror #2
   13662:	ea0b 0b02 	and.w	fp, fp, r2
   13666:	ea8b 0b04 	eor.w	fp, fp, r4
   1366a:	ea80 50b5 	eor.w	r0, r0, r5, ror #22
   1366e:	4438      	add	r0, r7
   13670:	f858 7c18 	ldr.w	r7, [r8, #-24]
   13674:	4430      	add	r0, r6
   13676:	f859 6c18 	ldr.w	r6, [r9, #-24]
   1367a:	443e      	add	r6, r7
   1367c:	ea45 0700 	orr.w	r7, r5, r0
   13680:	4431      	add	r1, r6
   13682:	ea4f 26f2 	mov.w	r6, r2, ror #11
   13686:	ea07 070e 	and.w	r7, r7, lr
   1368a:	4459      	add	r1, fp
   1368c:	ea05 0b00 	and.w	fp, r5, r0
   13690:	ea86 16b2 	eor.w	r6, r6, r2, ror #6
   13694:	ea47 070b 	orr.w	r7, r7, fp
   13698:	ea83 0b02 	eor.w	fp, r3, r2
   1369c:	ea86 6672 	eor.w	r6, r6, r2, ror #25
   136a0:	440e      	add	r6, r1
   136a2:	ea4f 3170 	mov.w	r1, r0, ror #13
   136a6:	44b4      	add	ip, r6
   136a8:	ea81 01b0 	eor.w	r1, r1, r0, ror #2
   136ac:	ea0b 0b0c 	and.w	fp, fp, ip
   136b0:	ea8b 0b03 	eor.w	fp, fp, r3
   136b4:	ea81 51b0 	eor.w	r1, r1, r0, ror #22
   136b8:	4439      	add	r1, r7
   136ba:	f858 7c14 	ldr.w	r7, [r8, #-20]
   136be:	4431      	add	r1, r6
   136c0:	f859 6c14 	ldr.w	r6, [r9, #-20]
   136c4:	443e      	add	r6, r7
   136c6:	ea40 0701 	orr.w	r7, r0, r1
   136ca:	4434      	add	r4, r6
   136cc:	ea4f 26fc 	mov.w	r6, ip, ror #11
   136d0:	402f      	ands	r7, r5
   136d2:	445c      	add	r4, fp
   136d4:	ea00 0b01 	and.w	fp, r0, r1
   136d8:	ea86 16bc 	eor.w	r6, r6, ip, ror #6
   136dc:	ea47 070b 	orr.w	r7, r7, fp
   136e0:	ea82 0b0c 	eor.w	fp, r2, ip
   136e4:	ea86 667c 	eor.w	r6, r6, ip, ror #25
   136e8:	4426      	add	r6, r4
   136ea:	ea4f 3471 	mov.w	r4, r1, ror #13
   136ee:	44b6      	add	lr, r6
   136f0:	ea84 04b1 	eor.w	r4, r4, r1, ror #2
   136f4:	ea0b 0b0e 	and.w	fp, fp, lr
   136f8:	ea8b 0b02 	eor.w	fp, fp, r2
   136fc:	ea84 54b1 	eor.w	r4, r4, r1, ror #22
   13700:	443c      	add	r4, r7
   13702:	f858 7c10 	ldr.w	r7, [r8, #-16]
   13706:	4434      	add	r4, r6
   13708:	f859 6c10 	ldr.w	r6, [r9, #-16]
   1370c:	443e      	add	r6, r7
   1370e:	ea41 0704 	orr.w	r7, r1, r4
   13712:	4433      	add	r3, r6
   13714:	ea4f 26fe 	mov.w	r6, lr, ror #11
   13718:	4007      	ands	r7, r0
   1371a:	445b      	add	r3, fp
   1371c:	ea01 0b04 	and.w	fp, r1, r4
   13720:	ea86 16be 	eor.w	r6, r6, lr, ror #6
   13724:	ea47 070b 	orr.w	r7, r7, fp
   13728:	ea8c 0b0e 	eor.w	fp, ip, lr
   1372c:	ea86 667e 	eor.w	r6, r6, lr, ror #25
   13730:	441e      	add	r6, r3
   13732:	ea4f 3374 	mov.w	r3, r4, ror #13
   13736:	4435      	add	r5, r6
   13738:	ea83 03b4 	eor.w	r3, r3, r4, ror #2
   1373c:	ea0b 0b05 	and.w	fp, fp, r5
   13740:	ea8b 0b0c 	eor.w	fp, fp, ip
   13744:	ea83 53b4 	eor.w	r3, r3, r4, ror #22
   13748:	443b      	add	r3, r7
   1374a:	f858 7c0c 	ldr.w	r7, [r8, #-12]
   1374e:	4433      	add	r3, r6
   13750:	f859 6c0c 	ldr.w	r6, [r9, #-12]
   13754:	443e      	add	r6, r7
   13756:	ea44 0703 	orr.w	r7, r4, r3
   1375a:	4432      	add	r2, r6
   1375c:	ea4f 26f5 	mov.w	r6, r5, ror #11
   13760:	400f      	ands	r7, r1
   13762:	445a      	add	r2, fp
   13764:	ea04 0b03 	and.w	fp, r4, r3
   13768:	ea86 16b5 	eor.w	r6, r6, r5, ror #6
   1376c:	ea47 070b 	orr.w	r7, r7, fp
   13770:	ea8e 0b05 	eor.w	fp, lr, r5
   13774:	ea86 6675 	eor.w	r6, r6, r5, ror #25
   13778:	4416      	add	r6, r2
   1377a:	ea4f 3273 	mov.w	r2, r3, ror #13
   1377e:	4430      	add	r0, r6
   13780:	ea82 02b3 	eor.w	r2, r2, r3, ror #2
   13784:	ea0b 0b00 	and.w	fp, fp, r0
   13788:	ea8b 0b0e 	eor.w	fp, fp, lr
   1378c:	ea82 52b3 	eor.w	r2, r2, r3, ror #22
   13790:	443a      	add	r2, r7
   13792:	f858 7c08 	ldr.w	r7, [r8, #-8]
   13796:	4432      	add	r2, r6
   13798:	f859 6c08 	ldr.w	r6, [r9, #-8]
   1379c:	443e      	add	r6, r7
   1379e:	ea43 0702 	orr.w	r7, r3, r2
   137a2:	44b4      	add	ip, r6
   137a4:	ea4f 26f0 	mov.w	r6, r0, ror #11
   137a8:	4027      	ands	r7, r4
   137aa:	44dc      	add	ip, fp
   137ac:	ea03 0b02 	and.w	fp, r3, r2
   137b0:	ea86 16b0 	eor.w	r6, r6, r0, ror #6
   137b4:	ea47 070b 	orr.w	r7, r7, fp
   137b8:	ea85 0b00 	eor.w	fp, r5, r0
   137bc:	ea86 6670 	eor.w	r6, r6, r0, ror #25
   137c0:	4466      	add	r6, ip
   137c2:	ea4f 3c72 	mov.w	ip, r2, ror #13
   137c6:	4431      	add	r1, r6
   137c8:	ea8c 0cb2 	eor.w	ip, ip, r2, ror #2
   137cc:	ea0b 0b01 	and.w	fp, fp, r1
   137d0:	ea8b 0b05 	eor.w	fp, fp, r5
   137d4:	ea8c 5cb2 	eor.w	ip, ip, r2, ror #22
   137d8:	44bc      	add	ip, r7
   137da:	f858 7c04 	ldr.w	r7, [r8, #-4]
   137de:	44b4      	add	ip, r6
   137e0:	f859 6c04 	ldr.w	r6, [r9, #-4]
   137e4:	443e      	add	r6, r7
   137e6:	ea42 070c 	orr.w	r7, r2, ip
   137ea:	44b6      	add	lr, r6
   137ec:	ea4f 26f1 	mov.w	r6, r1, ror #11
   137f0:	401f      	ands	r7, r3
   137f2:	44de      	add	lr, fp
   137f4:	ea02 0b0c 	and.w	fp, r2, ip
   137f8:	ea86 16b1 	eor.w	r6, r6, r1, ror #6
   137fc:	ea47 070b 	orr.w	r7, r7, fp
   13800:	ea86 6671 	eor.w	r6, r6, r1, ror #25
   13804:	4476      	add	r6, lr
   13806:	ea4f 3e7c 	mov.w	lr, ip, ror #13
   1380a:	4434      	add	r4, r6
   1380c:	ea8e 0ebc 	eor.w	lr, lr, ip, ror #2
   13810:	ea8e 5ebc 	eor.w	lr, lr, ip, ror #22
   13814:	44be      	add	lr, r7
   13816:	44b6      	add	lr, r6
   13818:	9e03      	ldr	r6, [sp, #12]
   1381a:	4546      	cmp	r6, r8
   1381c:	f47f aed8 	bne.w	135d0 <Transform_Sha256+0x9c>
   13820:	e9cd ec04 	strd	lr, ip, [sp, #16]
   13824:	e9cd 2306 	strd	r2, r3, [sp, #24]
   13828:	e9cd 4108 	strd	r4, r1, [sp, #32]
   1382c:	e9cd 050a 	strd	r0, r5, [sp, #40]	; 0x28
   13830:	e9dd 1300 	ldrd	r1, r3, [sp]
   13834:	f853 2b04 	ldr.w	r2, [r3], #4
   13838:	9301      	str	r3, [sp, #4]
   1383a:	f851 3f04 	ldr.w	r3, [r1, #4]!
   1383e:	4413      	add	r3, r2
   13840:	9100      	str	r1, [sp, #0]
   13842:	600b      	str	r3, [r1, #0]
   13844:	9b02      	ldr	r3, [sp, #8]
   13846:	428b      	cmp	r3, r1
   13848:	d1f2      	bne.n	13830 <Transform_Sha256+0x2fc>
   1384a:	4650      	mov	r0, sl
   1384c:	f7fc ede2 	blx	10414 <free@plt>
   13850:	2000      	movs	r0, #0
   13852:	b00d      	add	sp, #52	; 0x34
   13854:	e8bd 8ff0 	ldmia.w	sp!, {r4, r5, r6, r7, r8, r9, sl, fp, pc}
   13858:	f06f 007c 	mvn.w	r0, #124	; 0x7c
   1385c:	e7f9      	b.n	13852 <Transform_Sha256+0x31e>
   1385e:	bf00      	nop
   13860:	0001cd44 	.word	0x0001cd44

00013864 <Sha256Update>:
   13864:	e92d 41f0 	stmdb	sp!, {r4, r5, r6, r7, r8, lr}
   13868:	460e      	mov	r6, r1
   1386a:	4614      	mov	r4, r2
   1386c:	4605      	mov	r5, r0
   1386e:	2800      	cmp	r0, #0
   13870:	d049      	beq.n	13906 <Sha256Update+0xa2>
   13872:	b919      	cbnz	r1, 1387c <Sha256Update+0x18>
   13874:	2a00      	cmp	r2, #0
   13876:	d146      	bne.n	13906 <Sha256Update+0xa2>
   13878:	2000      	movs	r0, #0
   1387a:	e042      	b.n	13902 <Sha256Update+0x9e>
   1387c:	6e00      	ldr	r0, [r0, #96]	; 0x60
   1387e:	283f      	cmp	r0, #63	; 0x3f
   13880:	d844      	bhi.n	1390c <Sha256Update+0xa8>
   13882:	6e6b      	ldr	r3, [r5, #100]	; 0x64
   13884:	f105 0720 	add.w	r7, r5, #32
   13888:	18d3      	adds	r3, r2, r3
   1388a:	666b      	str	r3, [r5, #100]	; 0x64
   1388c:	bf22      	ittt	cs
   1388e:	6eab      	ldrcs	r3, [r5, #104]	; 0x68
   13890:	3301      	addcs	r3, #1
   13892:	66ab      	strcs	r3, [r5, #104]	; 0x68
   13894:	b1c8      	cbz	r0, 138ca <Sha256Update+0x66>
   13896:	f1c0 0840 	rsb	r8, r0, #64	; 0x40
   1389a:	4438      	add	r0, r7
   1389c:	4590      	cmp	r8, r2
   1389e:	bf28      	it	cs
   138a0:	4690      	movcs	r8, r2
   138a2:	4642      	mov	r2, r8
   138a4:	4446      	add	r6, r8
   138a6:	f7fc edc2 	blx	1042c <memcpy@plt>
   138aa:	6e2a      	ldr	r2, [r5, #96]	; 0x60
   138ac:	eba4 0408 	sub.w	r4, r4, r8
   138b0:	4442      	add	r2, r8
   138b2:	2a40      	cmp	r2, #64	; 0x40
   138b4:	662a      	str	r2, [r5, #96]	; 0x60
   138b6:	d108      	bne.n	138ca <Sha256Update+0x66>
   138b8:	4638      	mov	r0, r7
   138ba:	4639      	mov	r1, r7
   138bc:	f7ff fe2d 	bl	1351a <ByteReverseWords>
   138c0:	4628      	mov	r0, r5
   138c2:	f7ff fe37 	bl	13534 <Transform_Sha256>
   138c6:	b9e0      	cbnz	r0, 13902 <Sha256Update+0x9e>
   138c8:	6628      	str	r0, [r5, #96]	; 0x60
   138ca:	4426      	add	r6, r4
   138cc:	2c3f      	cmp	r4, #63	; 0x3f
   138ce:	eba6 0104 	sub.w	r1, r6, r4
   138d2:	d807      	bhi.n	138e4 <Sha256Update+0x80>
   138d4:	2c00      	cmp	r4, #0
   138d6:	d0cf      	beq.n	13878 <Sha256Update+0x14>
   138d8:	4622      	mov	r2, r4
   138da:	4638      	mov	r0, r7
   138dc:	f7fc eda6 	blx	1042c <memcpy@plt>
   138e0:	662c      	str	r4, [r5, #96]	; 0x60
   138e2:	e7c9      	b.n	13878 <Sha256Update+0x14>
   138e4:	2240      	movs	r2, #64	; 0x40
   138e6:	4638      	mov	r0, r7
   138e8:	f7fc eda0 	blx	1042c <memcpy@plt>
   138ec:	4638      	mov	r0, r7
   138ee:	2240      	movs	r2, #64	; 0x40
   138f0:	4639      	mov	r1, r7
   138f2:	3c40      	subs	r4, #64	; 0x40
   138f4:	f7ff fe11 	bl	1351a <ByteReverseWords>
   138f8:	4628      	mov	r0, r5
   138fa:	f7ff fe1b 	bl	13534 <Transform_Sha256>
   138fe:	2800      	cmp	r0, #0
   13900:	d0e4      	beq.n	138cc <Sha256Update+0x68>
   13902:	e8bd 81f0 	ldmia.w	sp!, {r4, r5, r6, r7, r8, pc}
   13906:	f06f 00ac 	mvn.w	r0, #172	; 0xac
   1390a:	e7fa      	b.n	13902 <Sha256Update+0x9e>
   1390c:	f06f 0083 	mvn.w	r0, #131	; 0x83
   13910:	e7f7      	b.n	13902 <Sha256Update+0x9e>

00013912 <Sha256Final>:
   13912:	b538      	push	{r3, r4, r5, lr}
   13914:	4604      	mov	r4, r0
   13916:	2800      	cmp	r0, #0
   13918:	d042      	beq.n	139a0 <Sha256Final+0x8e>
   1391a:	f100 0520 	add.w	r5, r0, #32
   1391e:	6e03      	ldr	r3, [r0, #96]	; 0x60
   13920:	1c5a      	adds	r2, r3, #1
   13922:	6602      	str	r2, [r0, #96]	; 0x60
   13924:	2280      	movs	r2, #128	; 0x80
   13926:	54ea      	strb	r2, [r5, r3]
   13928:	6e00      	ldr	r0, [r0, #96]	; 0x60
   1392a:	2838      	cmp	r0, #56	; 0x38
   1392c:	d910      	bls.n	13950 <Sha256Final+0x3e>
   1392e:	f1c0 0240 	rsb	r2, r0, #64	; 0x40
   13932:	2100      	movs	r1, #0
   13934:	4428      	add	r0, r5
   13936:	f7fc ed98 	blx	10468 <memset@plt>
   1393a:	2240      	movs	r2, #64	; 0x40
   1393c:	4628      	mov	r0, r5
   1393e:	4629      	mov	r1, r5
   13940:	6622      	str	r2, [r4, #96]	; 0x60
   13942:	f7ff fdea 	bl	1351a <ByteReverseWords>
   13946:	4620      	mov	r0, r4
   13948:	f7ff fdf4 	bl	13534 <Transform_Sha256>
   1394c:	bb50      	cbnz	r0, 139a4 <Sha256Final+0x92>
   1394e:	6620      	str	r0, [r4, #96]	; 0x60
   13950:	6e20      	ldr	r0, [r4, #96]	; 0x60
   13952:	2100      	movs	r1, #0
   13954:	f1c0 0238 	rsb	r2, r0, #56	; 0x38
   13958:	4428      	add	r0, r5
   1395a:	f7fc ed86 	blx	10468 <memset@plt>
   1395e:	e9d4 3119 	ldrd	r3, r1, [r4, #100]	; 0x64
   13962:	4628      	mov	r0, r5
   13964:	0f5a      	lsrs	r2, r3, #29
   13966:	00db      	lsls	r3, r3, #3
   13968:	eb02 02c1 	add.w	r2, r2, r1, lsl #3
   1396c:	4629      	mov	r1, r5
   1396e:	e9c4 3219 	strd	r3, r2, [r4, #100]	; 0x64
   13972:	2240      	movs	r2, #64	; 0x40
   13974:	f7ff fdd1 	bl	1351a <ByteReverseWords>
   13978:	f104 0168 	add.w	r1, r4, #104	; 0x68
   1397c:	2204      	movs	r2, #4
   1397e:	f104 0058 	add.w	r0, r4, #88	; 0x58
   13982:	f7fc ed54 	blx	1042c <memcpy@plt>
   13986:	f104 0164 	add.w	r1, r4, #100	; 0x64
   1398a:	f104 005c 	add.w	r0, r4, #92	; 0x5c
   1398e:	2204      	movs	r2, #4
   13990:	f7fc ed4c 	blx	1042c <memcpy@plt>
   13994:	4629      	mov	r1, r5
   13996:	4620      	mov	r0, r4
   13998:	e8bd 4038 	ldmia.w	sp!, {r3, r4, r5, lr}
   1399c:	f7ff bdca 	b.w	13534 <Transform_Sha256>
   139a0:	f06f 00ac 	mvn.w	r0, #172	; 0xac
   139a4:	bd38      	pop	{r3, r4, r5, pc}
	...

000139a8 <wc_InitSha256_ex>:
   139a8:	b538      	push	{r3, r4, r5, lr}
   139aa:	460d      	mov	r5, r1
   139ac:	4604      	mov	r4, r0
   139ae:	b1f0      	cbz	r0, 139ee <wc_InitSha256_ex+0x46>
   139b0:	2220      	movs	r2, #32
   139b2:	2100      	movs	r1, #0
   139b4:	f7fc ed58 	blx	10468 <memset@plt>
   139b8:	4b0e      	ldr	r3, [pc, #56]	; (139f4 <wc_InitSha256_ex+0x4c>)
   139ba:	2000      	movs	r0, #0
   139bc:	4a0e      	ldr	r2, [pc, #56]	; (139f8 <wc_InitSha256_ex+0x50>)
   139be:	490f      	ldr	r1, [pc, #60]	; (139fc <wc_InitSha256_ex+0x54>)
   139c0:	6023      	str	r3, [r4, #0]
   139c2:	4b0f      	ldr	r3, [pc, #60]	; (13a00 <wc_InitSha256_ex+0x58>)
   139c4:	e9c4 051a 	strd	r0, r5, [r4, #104]	; 0x68
   139c8:	4d0e      	ldr	r5, [pc, #56]	; (13a04 <wc_InitSha256_ex+0x5c>)
   139ca:	e9c4 2301 	strd	r2, r3, [r4, #4]
   139ce:	4b0e      	ldr	r3, [pc, #56]	; (13a08 <wc_InitSha256_ex+0x60>)
   139d0:	e9c4 0018 	strd	r0, r0, [r4, #96]	; 0x60
   139d4:	e9c4 1303 	strd	r1, r3, [r4, #12]
   139d8:	4b0c      	ldr	r3, [pc, #48]	; (13a0c <wc_InitSha256_ex+0x64>)
   139da:	e9c4 5305 	strd	r5, r3, [r4, #20]
   139de:	f103 5374 	add.w	r3, r3, #1023410176	; 0x3d000000
   139e2:	f5a3 0323 	sub.w	r3, r3, #10682368	; 0xa30000
   139e6:	f6a3 4392 	subw	r3, r3, #3218	; 0xc92
   139ea:	61e3      	str	r3, [r4, #28]
   139ec:	bd38      	pop	{r3, r4, r5, pc}
   139ee:	f06f 00ac 	mvn.w	r0, #172	; 0xac
   139f2:	e7fb      	b.n	139ec <wc_InitSha256_ex+0x44>
   139f4:	6a09e667 	.word	0x6a09e667
   139f8:	bb67ae85 	.word	0xbb67ae85
   139fc:	a54ff53a 	.word	0xa54ff53a
   13a00:	3c6ef372 	.word	0x3c6ef372
   13a04:	9b05688c 	.word	0x9b05688c
   13a08:	510e527f 	.word	0x510e527f
   13a0c:	1f83d9ab 	.word	0x1f83d9ab

00013a10 <wc_Sha256Update>:
   13a10:	b410      	push	{r4}
   13a12:	b160      	cbz	r0, 13a2e <wc_Sha256Update+0x1e>
   13a14:	b939      	cbnz	r1, 13a26 <wc_Sha256Update+0x16>
   13a16:	2a00      	cmp	r2, #0
   13a18:	bf14      	ite	ne
   13a1a:	f06f 00ac 	mvnne.w	r0, #172	; 0xac
   13a1e:	2000      	moveq	r0, #0
   13a20:	f85d 4b04 	ldr.w	r4, [sp], #4
   13a24:	4770      	bx	lr
   13a26:	f85d 4b04 	ldr.w	r4, [sp], #4
   13a2a:	f7ff bf1b 	b.w	13864 <Sha256Update>
   13a2e:	f06f 00ac 	mvn.w	r0, #172	; 0xac
   13a32:	e7f5      	b.n	13a20 <wc_Sha256Update+0x10>

00013a34 <wc_Sha256Final>:
   13a34:	b570      	push	{r4, r5, r6, lr}
   13a36:	460e      	mov	r6, r1
   13a38:	4604      	mov	r4, r0
   13a3a:	b360      	cbz	r0, 13a96 <wc_Sha256Final+0x62>
   13a3c:	b359      	cbz	r1, 13a96 <wc_Sha256Final+0x62>
   13a3e:	f7ff ff68 	bl	13912 <Sha256Final>
   13a42:	4605      	mov	r5, r0
   13a44:	bb28      	cbnz	r0, 13a92 <wc_Sha256Final+0x5e>
   13a46:	4621      	mov	r1, r4
   13a48:	2220      	movs	r2, #32
   13a4a:	4620      	mov	r0, r4
   13a4c:	f7ff fd65 	bl	1351a <ByteReverseWords>
   13a50:	2220      	movs	r2, #32
   13a52:	4630      	mov	r0, r6
   13a54:	f7fc ecea 	blx	1042c <memcpy@plt>
   13a58:	2220      	movs	r2, #32
   13a5a:	4629      	mov	r1, r5
   13a5c:	4620      	mov	r0, r4
   13a5e:	f7fc ed04 	blx	10468 <memset@plt>
   13a62:	4b0e      	ldr	r3, [pc, #56]	; (13a9c <wc_Sha256Final+0x68>)
   13a64:	4a0e      	ldr	r2, [pc, #56]	; (13aa0 <wc_Sha256Final+0x6c>)
   13a66:	490f      	ldr	r1, [pc, #60]	; (13aa4 <wc_Sha256Final+0x70>)
   13a68:	6023      	str	r3, [r4, #0]
   13a6a:	4b0f      	ldr	r3, [pc, #60]	; (13aa8 <wc_Sha256Final+0x74>)
   13a6c:	e9c4 5518 	strd	r5, r5, [r4, #96]	; 0x60
   13a70:	480e      	ldr	r0, [pc, #56]	; (13aac <wc_Sha256Final+0x78>)
   13a72:	e9c4 2301 	strd	r2, r3, [r4, #4]
   13a76:	4b0e      	ldr	r3, [pc, #56]	; (13ab0 <wc_Sha256Final+0x7c>)
   13a78:	66a5      	str	r5, [r4, #104]	; 0x68
   13a7a:	e9c4 1303 	strd	r1, r3, [r4, #12]
   13a7e:	4b0d      	ldr	r3, [pc, #52]	; (13ab4 <wc_Sha256Final+0x80>)
   13a80:	e9c4 0305 	strd	r0, r3, [r4, #20]
   13a84:	f103 5374 	add.w	r3, r3, #1023410176	; 0x3d000000
   13a88:	f5a3 0323 	sub.w	r3, r3, #10682368	; 0xa30000
   13a8c:	f6a3 4392 	subw	r3, r3, #3218	; 0xc92
   13a90:	61e3      	str	r3, [r4, #28]
   13a92:	4628      	mov	r0, r5
   13a94:	bd70      	pop	{r4, r5, r6, pc}
   13a96:	f06f 05ac 	mvn.w	r5, #172	; 0xac
   13a9a:	e7fa      	b.n	13a92 <wc_Sha256Final+0x5e>
   13a9c:	6a09e667 	.word	0x6a09e667
   13aa0:	bb67ae85 	.word	0xbb67ae85
   13aa4:	a54ff53a 	.word	0xa54ff53a
   13aa8:	3c6ef372 	.word	0x3c6ef372
   13aac:	9b05688c 	.word	0x9b05688c
   13ab0:	510e527f 	.word	0x510e527f
   13ab4:	1f83d9ab 	.word	0x1f83d9ab

00013ab8 <wc_InitSha224_ex>:
   13ab8:	b300      	cbz	r0, 13afc <wc_InitSha224_ex+0x44>
   13aba:	4b12      	ldr	r3, [pc, #72]	; (13b04 <wc_InitSha224_ex+0x4c>)
   13abc:	4a12      	ldr	r2, [pc, #72]	; (13b08 <wc_InitSha224_ex+0x50>)
   13abe:	6003      	str	r3, [r0, #0]
   13ac0:	4b12      	ldr	r3, [pc, #72]	; (13b0c <wc_InitSha224_ex+0x54>)
   13ac2:	66c1      	str	r1, [r0, #108]	; 0x6c
   13ac4:	4912      	ldr	r1, [pc, #72]	; (13b10 <wc_InitSha224_ex+0x58>)
   13ac6:	6043      	str	r3, [r0, #4]
   13ac8:	f103 4379 	add.w	r3, r3, #4177526784	; 0xf9000000
   13acc:	f503 0374 	add.w	r3, r3, #15990784	; 0xf40000
   13ad0:	f503 6301 	add.w	r3, r3, #2064	; 0x810
   13ad4:	6083      	str	r3, [r0, #8]
   13ad6:	4b0f      	ldr	r3, [pc, #60]	; (13b14 <wc_InitSha224_ex+0x5c>)
   13ad8:	e9c0 2303 	strd	r2, r3, [r0, #12]
   13adc:	f103 43d1 	add.w	r3, r3, #1753219072	; 0x68800000
   13ae0:	f503 13c0 	add.w	r3, r3, #1572864	; 0x180000
   13ae4:	f503 631e 	add.w	r3, r3, #2528	; 0x9e0
   13ae8:	6143      	str	r3, [r0, #20]
   13aea:	4b0b      	ldr	r3, [pc, #44]	; (13b18 <wc_InitSha224_ex+0x60>)
   13aec:	e9c0 1306 	strd	r1, r3, [r0, #24]
   13af0:	2300      	movs	r3, #0
   13af2:	e9c0 3318 	strd	r3, r3, [r0, #96]	; 0x60
   13af6:	6683      	str	r3, [r0, #104]	; 0x68
   13af8:	4618      	mov	r0, r3
   13afa:	4770      	bx	lr
   13afc:	f06f 00ac 	mvn.w	r0, #172	; 0xac
   13b00:	4770      	bx	lr
   13b02:	bf00      	nop
   13b04:	c1059ed8 	.word	0xc1059ed8
   13b08:	f70e5939 	.word	0xf70e5939
   13b0c:	367cd507 	.word	0x367cd507
   13b10:	64f98fa7 	.word	0x64f98fa7
   13b14:	ffc00b31 	.word	0xffc00b31
   13b18:	befa4fa4 	.word	0xbefa4fa4

00013b1c <wc_Sha224Update>:
   13b1c:	b118      	cbz	r0, 13b26 <wc_Sha224Update+0xa>
   13b1e:	b901      	cbnz	r1, 13b22 <wc_Sha224Update+0x6>
   13b20:	b90a      	cbnz	r2, 13b26 <wc_Sha224Update+0xa>
   13b22:	f7ff be9f 	b.w	13864 <Sha256Update>
   13b26:	f06f 00ac 	mvn.w	r0, #172	; 0xac
   13b2a:	4770      	bx	lr

00013b2c <wc_Sha224Final>:
   13b2c:	b570      	push	{r4, r5, r6, lr}
   13b2e:	460e      	mov	r6, r1
   13b30:	4604      	mov	r4, r0
   13b32:	b360      	cbz	r0, 13b8e <wc_Sha224Final+0x62>
   13b34:	b359      	cbz	r1, 13b8e <wc_Sha224Final+0x62>
   13b36:	f7ff feec 	bl	13912 <Sha256Final>
   13b3a:	4605      	mov	r5, r0
   13b3c:	bb28      	cbnz	r0, 13b8a <wc_Sha224Final+0x5e>
   13b3e:	4621      	mov	r1, r4
   13b40:	221c      	movs	r2, #28
   13b42:	4620      	mov	r0, r4
   13b44:	f7ff fce9 	bl	1351a <ByteReverseWords>
   13b48:	221c      	movs	r2, #28
   13b4a:	4630      	mov	r0, r6
   13b4c:	f7fc ec6e 	blx	1042c <memcpy@plt>
   13b50:	4b10      	ldr	r3, [pc, #64]	; (13b94 <wc_Sha224Final+0x68>)
   13b52:	4a11      	ldr	r2, [pc, #68]	; (13b98 <wc_Sha224Final+0x6c>)
   13b54:	4911      	ldr	r1, [pc, #68]	; (13b9c <wc_Sha224Final+0x70>)
   13b56:	6023      	str	r3, [r4, #0]
   13b58:	4b11      	ldr	r3, [pc, #68]	; (13ba0 <wc_Sha224Final+0x74>)
   13b5a:	e9c4 5518 	strd	r5, r5, [r4, #96]	; 0x60
   13b5e:	66a5      	str	r5, [r4, #104]	; 0x68
   13b60:	6063      	str	r3, [r4, #4]
   13b62:	f103 4379 	add.w	r3, r3, #4177526784	; 0xf9000000
   13b66:	f503 0374 	add.w	r3, r3, #15990784	; 0xf40000
   13b6a:	f503 6301 	add.w	r3, r3, #2064	; 0x810
   13b6e:	60a3      	str	r3, [r4, #8]
   13b70:	4b0c      	ldr	r3, [pc, #48]	; (13ba4 <wc_Sha224Final+0x78>)
   13b72:	e9c4 2303 	strd	r2, r3, [r4, #12]
   13b76:	f103 43d1 	add.w	r3, r3, #1753219072	; 0x68800000
   13b7a:	f503 13c0 	add.w	r3, r3, #1572864	; 0x180000
   13b7e:	f503 631e 	add.w	r3, r3, #2528	; 0x9e0
   13b82:	6163      	str	r3, [r4, #20]
   13b84:	4b08      	ldr	r3, [pc, #32]	; (13ba8 <wc_Sha224Final+0x7c>)
   13b86:	e9c4 1306 	strd	r1, r3, [r4, #24]
   13b8a:	4628      	mov	r0, r5
   13b8c:	bd70      	pop	{r4, r5, r6, pc}
   13b8e:	f06f 05ac 	mvn.w	r5, #172	; 0xac
   13b92:	e7fa      	b.n	13b8a <wc_Sha224Final+0x5e>
   13b94:	c1059ed8 	.word	0xc1059ed8
   13b98:	f70e5939 	.word	0xf70e5939
   13b9c:	64f98fa7 	.word	0x64f98fa7
   13ba0:	367cd507 	.word	0x367cd507
   13ba4:	ffc00b31 	.word	0xffc00b31
   13ba8:	befa4fa4 	.word	0xbefa4fa4

00013bac <wc_InitSha224>:
   13bac:	f06f 0201 	mvn.w	r2, #1
   13bb0:	2100      	movs	r1, #0
   13bb2:	f7ff bf81 	b.w	13ab8 <wc_InitSha224_ex>

00013bb6 <wc_Sha224Free>:
   13bb6:	4770      	bx	lr

00013bb8 <wc_InitSha256>:
   13bb8:	f06f 0201 	mvn.w	r2, #1
   13bbc:	2100      	movs	r1, #0
   13bbe:	f7ff bef3 	b.w	139a8 <wc_InitSha256_ex>

00013bc2 <wc_Sha256Free>:
   13bc2:	4770      	bx	lr
   13bc4:	0000      	movs	r0, r0
	...

00013bc8 <InitSha512>:
   13bc8:	b530      	push	{r4, r5, lr}
   13bca:	b390      	cbz	r0, 13c32 <InitSha512+0x6a>
   13bcc:	2400      	movs	r4, #0
   13bce:	2500      	movs	r5, #0
   13bd0:	a319      	add	r3, pc, #100	; (adr r3, 13c38 <InitSha512+0x70>)
   13bd2:	e9d3 2300 	ldrd	r2, r3, [r3]
   13bd6:	e9c0 2300 	strd	r2, r3, [r0]
   13bda:	a319      	add	r3, pc, #100	; (adr r3, 13c40 <InitSha512+0x78>)
   13bdc:	e9d3 2300 	ldrd	r2, r3, [r3]
   13be0:	e9c0 4532 	strd	r4, r5, [r0, #200]	; 0xc8
   13be4:	e9c0 4534 	strd	r4, r5, [r0, #208]	; 0xd0
   13be8:	e9c0 2302 	strd	r2, r3, [r0, #8]
   13bec:	a316      	add	r3, pc, #88	; (adr r3, 13c48 <InitSha512+0x80>)
   13bee:	e9d3 2300 	ldrd	r2, r3, [r3]
   13bf2:	e9c0 2304 	strd	r2, r3, [r0, #16]
   13bf6:	a316      	add	r3, pc, #88	; (adr r3, 13c50 <InitSha512+0x88>)
   13bf8:	e9d3 2300 	ldrd	r2, r3, [r3]
   13bfc:	e9c0 2306 	strd	r2, r3, [r0, #24]
   13c00:	a315      	add	r3, pc, #84	; (adr r3, 13c58 <InitSha512+0x90>)
   13c02:	e9d3 2300 	ldrd	r2, r3, [r3]
   13c06:	e9c0 2308 	strd	r2, r3, [r0, #32]
   13c0a:	a315      	add	r3, pc, #84	; (adr r3, 13c60 <InitSha512+0x98>)
   13c0c:	e9d3 2300 	ldrd	r2, r3, [r3]
   13c10:	e9c0 230a 	strd	r2, r3, [r0, #40]	; 0x28
   13c14:	a314      	add	r3, pc, #80	; (adr r3, 13c68 <InitSha512+0xa0>)
   13c16:	e9d3 2300 	ldrd	r2, r3, [r3]
   13c1a:	e9c0 230c 	strd	r2, r3, [r0, #48]	; 0x30
   13c1e:	a314      	add	r3, pc, #80	; (adr r3, 13c70 <InitSha512+0xa8>)
   13c20:	e9d3 2300 	ldrd	r2, r3, [r3]
   13c24:	e9c0 230e 	strd	r2, r3, [r0, #56]	; 0x38
   13c28:	2300      	movs	r3, #0
   13c2a:	f8c0 30c0 	str.w	r3, [r0, #192]	; 0xc0
   13c2e:	4618      	mov	r0, r3
   13c30:	bd30      	pop	{r4, r5, pc}
   13c32:	f06f 00ac 	mvn.w	r0, #172	; 0xac
   13c36:	e7fb      	b.n	13c30 <InitSha512+0x68>
   13c38:	f3bcc908 	.word	0xf3bcc908
   13c3c:	6a09e667 	.word	0x6a09e667
   13c40:	84caa73b 	.word	0x84caa73b
   13c44:	bb67ae85 	.word	0xbb67ae85
   13c48:	fe94f82b 	.word	0xfe94f82b
   13c4c:	3c6ef372 	.word	0x3c6ef372
   13c50:	5f1d36f1 	.word	0x5f1d36f1
   13c54:	a54ff53a 	.word	0xa54ff53a
   13c58:	ade682d1 	.word	0xade682d1
   13c5c:	510e527f 	.word	0x510e527f
   13c60:	2b3e6c1f 	.word	0x2b3e6c1f
   13c64:	9b05688c 	.word	0x9b05688c
   13c68:	fb41bd6b 	.word	0xfb41bd6b
   13c6c:	1f83d9ab 	.word	0x1f83d9ab
   13c70:	137e2179 	.word	0x137e2179
   13c74:	5be0cd19 	.word	0x5be0cd19

00013c78 <InitSha512_224>:
   13c78:	b530      	push	{r4, r5, lr}
   13c7a:	b390      	cbz	r0, 13ce2 <InitSha512_224+0x6a>
   13c7c:	2400      	movs	r4, #0
   13c7e:	2500      	movs	r5, #0
   13c80:	a319      	add	r3, pc, #100	; (adr r3, 13ce8 <InitSha512_224+0x70>)
   13c82:	e9d3 2300 	ldrd	r2, r3, [r3]
   13c86:	e9c0 2300 	strd	r2, r3, [r0]
   13c8a:	a319      	add	r3, pc, #100	; (adr r3, 13cf0 <InitSha512_224+0x78>)
   13c8c:	e9d3 2300 	ldrd	r2, r3, [r3]
   13c90:	e9c0 4532 	strd	r4, r5, [r0, #200]	; 0xc8
   13c94:	e9c0 4534 	strd	r4, r5, [r0, #208]	; 0xd0
   13c98:	e9c0 2302 	strd	r2, r3, [r0, #8]
   13c9c:	a316      	add	r3, pc, #88	; (adr r3, 13cf8 <InitSha512_224+0x80>)
   13c9e:	e9d3 2300 	ldrd	r2, r3, [r3]
   13ca2:	e9c0 2304 	strd	r2, r3, [r0, #16]
   13ca6:	a316      	add	r3, pc, #88	; (adr r3, 13d00 <InitSha512_224+0x88>)
   13ca8:	e9d3 2300 	ldrd	r2, r3, [r3]
   13cac:	e9c0 2306 	strd	r2, r3, [r0, #24]
   13cb0:	a315      	add	r3, pc, #84	; (adr r3, 13d08 <InitSha512_224+0x90>)
   13cb2:	e9d3 2300 	ldrd	r2, r3, [r3]
   13cb6:	e9c0 2308 	strd	r2, r3, [r0, #32]
   13cba:	a315      	add	r3, pc, #84	; (adr r3, 13d10 <InitSha512_224+0x98>)
   13cbc:	e9d3 2300 	ldrd	r2, r3, [r3]
   13cc0:	e9c0 230a 	strd	r2, r3, [r0, #40]	; 0x28
   13cc4:	a314      	add	r3, pc, #80	; (adr r3, 13d18 <InitSha512_224+0xa0>)
   13cc6:	e9d3 2300 	ldrd	r2, r3, [r3]
   13cca:	e9c0 230c 	strd	r2, r3, [r0, #48]	; 0x30
   13cce:	a314      	add	r3, pc, #80	; (adr r3, 13d20 <InitSha512_224+0xa8>)
   13cd0:	e9d3 2300 	ldrd	r2, r3, [r3]
   13cd4:	e9c0 230e 	strd	r2, r3, [r0, #56]	; 0x38
   13cd8:	2300      	movs	r3, #0
   13cda:	f8c0 30c0 	str.w	r3, [r0, #192]	; 0xc0
   13cde:	4618      	mov	r0, r3
   13ce0:	bd30      	pop	{r4, r5, pc}
   13ce2:	f06f 00ac 	mvn.w	r0, #172	; 0xac
   13ce6:	e7fb      	b.n	13ce0 <InitSha512_224+0x68>
   13ce8:	19544da2 	.word	0x19544da2
   13cec:	8c3d37c8 	.word	0x8c3d37c8
   13cf0:	89dcd4d6 	.word	0x89dcd4d6
   13cf4:	73e19966 	.word	0x73e19966
   13cf8:	32ff9c82 	.word	0x32ff9c82
   13cfc:	1dfab7ae 	.word	0x1dfab7ae
   13d00:	582f9fcf 	.word	0x582f9fcf
   13d04:	679dd514 	.word	0x679dd514
   13d08:	7bd44da8 	.word	0x7bd44da8
   13d0c:	0f6d2b69 	.word	0x0f6d2b69
   13d10:	04c48942 	.word	0x04c48942
   13d14:	77e36f73 	.word	0x77e36f73
   13d18:	6a1d36c8 	.word	0x6a1d36c8
   13d1c:	3f9d85a8 	.word	0x3f9d85a8
   13d20:	91d692a1 	.word	0x91d692a1
   13d24:	1112e6ad 	.word	0x1112e6ad

00013d28 <InitSha512_256>:
   13d28:	b530      	push	{r4, r5, lr}
   13d2a:	b390      	cbz	r0, 13d92 <InitSha512_256+0x6a>
   13d2c:	2400      	movs	r4, #0
   13d2e:	2500      	movs	r5, #0
   13d30:	a319      	add	r3, pc, #100	; (adr r3, 13d98 <InitSha512_256+0x70>)
   13d32:	e9d3 2300 	ldrd	r2, r3, [r3]
   13d36:	e9c0 2300 	strd	r2, r3, [r0]
   13d3a:	a319      	add	r3, pc, #100	; (adr r3, 13da0 <InitSha512_256+0x78>)
   13d3c:	e9d3 2300 	ldrd	r2, r3, [r3]
   13d40:	e9c0 4532 	strd	r4, r5, [r0, #200]	; 0xc8
   13d44:	e9c0 4534 	strd	r4, r5, [r0, #208]	; 0xd0
   13d48:	e9c0 2302 	strd	r2, r3, [r0, #8]
   13d4c:	a316      	add	r3, pc, #88	; (adr r3, 13da8 <InitSha512_256+0x80>)
   13d4e:	e9d3 2300 	ldrd	r2, r3, [r3]
   13d52:	e9c0 2304 	strd	r2, r3, [r0, #16]
   13d56:	a316      	add	r3, pc, #88	; (adr r3, 13db0 <InitSha512_256+0x88>)
   13d58:	e9d3 2300 	ldrd	r2, r3, [r3]
   13d5c:	e9c0 2306 	strd	r2, r3, [r0, #24]
   13d60:	a315      	add	r3, pc, #84	; (adr r3, 13db8 <InitSha512_256+0x90>)
   13d62:	e9d3 2300 	ldrd	r2, r3, [r3]
   13d66:	e9c0 2308 	strd	r2, r3, [r0, #32]
   13d6a:	a315      	add	r3, pc, #84	; (adr r3, 13dc0 <InitSha512_256+0x98>)
   13d6c:	e9d3 2300 	ldrd	r2, r3, [r3]
   13d70:	e9c0 230a 	strd	r2, r3, [r0, #40]	; 0x28
   13d74:	a314      	add	r3, pc, #80	; (adr r3, 13dc8 <InitSha512_256+0xa0>)
   13d76:	e9d3 2300 	ldrd	r2, r3, [r3]
   13d7a:	e9c0 230c 	strd	r2, r3, [r0, #48]	; 0x30
   13d7e:	a314      	add	r3, pc, #80	; (adr r3, 13dd0 <InitSha512_256+0xa8>)
   13d80:	e9d3 2300 	ldrd	r2, r3, [r3]
   13d84:	e9c0 230e 	strd	r2, r3, [r0, #56]	; 0x38
   13d88:	2300      	movs	r3, #0
   13d8a:	f8c0 30c0 	str.w	r3, [r0, #192]	; 0xc0
   13d8e:	4618      	mov	r0, r3
   13d90:	bd30      	pop	{r4, r5, pc}
   13d92:	f06f 00ac 	mvn.w	r0, #172	; 0xac
   13d96:	e7fb      	b.n	13d90 <InitSha512_256+0x68>
   13d98:	fc2bf72c 	.word	0xfc2bf72c
   13d9c:	22312194 	.word	0x22312194
   13da0:	c84c64c2 	.word	0xc84c64c2
   13da4:	9f555fa3 	.word	0x9f555fa3
   13da8:	6f53b151 	.word	0x6f53b151
   13dac:	2393b86b 	.word	0x2393b86b
   13db0:	5940eabd 	.word	0x5940eabd
   13db4:	96387719 	.word	0x96387719
   13db8:	a88effe3 	.word	0xa88effe3
   13dbc:	96283ee2 	.word	0x96283ee2
   13dc0:	53863992 	.word	0x53863992
   13dc4:	be5e1e25 	.word	0xbe5e1e25
   13dc8:	2c85b8aa 	.word	0x2c85b8aa
   13dcc:	2b0199fc 	.word	0x2b0199fc
   13dd0:	81c52ca2 	.word	0x81c52ca2
   13dd4:	0eb72ddc 	.word	0x0eb72ddc

00013dd8 <ByteReverseWords64>:
   13dd8:	f022 0207 	bic.w	r2, r2, #7
   13ddc:	3808      	subs	r0, #8
   13dde:	b510      	push	{r4, lr}
   13de0:	440a      	add	r2, r1
   13de2:	e9d1 3400 	ldrd	r3, r4, [r1]
   13de6:	3108      	adds	r1, #8
   13de8:	428a      	cmp	r2, r1
   13dea:	ba1b      	rev	r3, r3
   13dec:	ba24      	rev	r4, r4
   13dee:	f840 4f08 	str.w	r4, [r0, #8]!
   13df2:	6043      	str	r3, [r0, #4]
   13df4:	d1f5      	bne.n	13de2 <ByteReverseWords64+0xa>
   13df6:	bd10      	pop	{r4, pc}

00013df8 <_Transform_Sha512>:
   13df8:	e92d 4ff0 	stmdb	sp!, {r4, r5, r6, r7, r8, r9, sl, fp, lr}
   13dfc:	4605      	mov	r5, r0
   13dfe:	b0c3      	sub	sp, #268	; 0x10c
   13e00:	2080      	movs	r0, #128	; 0x80
   13e02:	f7fc eb20 	blx	10444 <malloc@plt>
   13e06:	4604      	mov	r4, r0
   13e08:	2800      	cmp	r0, #0
   13e0a:	f001 87e4 	beq.w	15dd6 <_Transform_Sha512+0x1fde>
   13e0e:	2240      	movs	r2, #64	; 0x40
   13e10:	4629      	mov	r1, r5
   13e12:	a832      	add	r0, sp, #200	; 0xc8
   13e14:	f7fc eb0a 	blx	1042c <memcpy@plt>
   13e18:	9a32      	ldr	r2, [sp, #200]	; 0xc8
   13e1a:	2100      	movs	r1, #0
   13e1c:	e9dd b339 	ldrd	fp, r3, [sp, #228]	; 0xe4
   13e20:	f8dd a0ec 	ldr.w	sl, [sp, #236]	; 0xec
   13e24:	932e      	str	r3, [sp, #184]	; 0xb8
   13e26:	9b3e      	ldr	r3, [sp, #248]	; 0xf8
   13e28:	932a      	str	r3, [sp, #168]	; 0xa8
   13e2a:	9b3f      	ldr	r3, [sp, #252]	; 0xfc
   13e2c:	932b      	str	r3, [sp, #172]	; 0xac
   13e2e:	9b3c      	ldr	r3, [sp, #240]	; 0xf0
   13e30:	932c      	str	r3, [sp, #176]	; 0xb0
   13e32:	9b3d      	ldr	r3, [sp, #244]	; 0xf4
   13e34:	932d      	str	r3, [sp, #180]	; 0xb4
   13e36:	68a3      	ldr	r3, [r4, #8]
   13e38:	9319      	str	r3, [sp, #100]	; 0x64
   13e3a:	68e3      	ldr	r3, [r4, #12]
   13e3c:	9309      	str	r3, [sp, #36]	; 0x24
   13e3e:	6823      	ldr	r3, [r4, #0]
   13e40:	9318      	str	r3, [sp, #96]	; 0x60
   13e42:	6863      	ldr	r3, [r4, #4]
   13e44:	9308      	str	r3, [sp, #32]
   13e46:	9b40      	ldr	r3, [sp, #256]	; 0x100
   13e48:	9328      	str	r3, [sp, #160]	; 0xa0
   13e4a:	9b41      	ldr	r3, [sp, #260]	; 0x104
   13e4c:	9329      	str	r3, [sp, #164]	; 0xa4
   13e4e:	9b38      	ldr	r3, [sp, #224]	; 0xe0
   13e50:	9322      	str	r3, [sp, #136]	; 0x88
   13e52:	9b33      	ldr	r3, [sp, #204]	; 0xcc
   13e54:	9327      	str	r3, [sp, #156]	; 0x9c
   13e56:	9b34      	ldr	r3, [sp, #208]	; 0xd0
   13e58:	9325      	str	r3, [sp, #148]	; 0x94
   13e5a:	9b35      	ldr	r3, [sp, #212]	; 0xd4
   13e5c:	9326      	str	r3, [sp, #152]	; 0x98
   13e5e:	9b36      	ldr	r3, [sp, #216]	; 0xd8
   13e60:	9323      	str	r3, [sp, #140]	; 0x8c
   13e62:	9b37      	ldr	r3, [sp, #220]	; 0xdc
   13e64:	9324      	str	r3, [sp, #144]	; 0x90
   13e66:	6923      	ldr	r3, [r4, #16]
   13e68:	9317      	str	r3, [sp, #92]	; 0x5c
   13e6a:	6963      	ldr	r3, [r4, #20]
   13e6c:	9307      	str	r3, [sp, #28]
   13e6e:	69a3      	ldr	r3, [r4, #24]
   13e70:	9312      	str	r3, [sp, #72]	; 0x48
   13e72:	69e3      	ldr	r3, [r4, #28]
   13e74:	9302      	str	r3, [sp, #8]
   13e76:	6a23      	ldr	r3, [r4, #32]
   13e78:	931a      	str	r3, [sp, #104]	; 0x68
   13e7a:	6a63      	ldr	r3, [r4, #36]	; 0x24
   13e7c:	930a      	str	r3, [sp, #40]	; 0x28
   13e7e:	6aa3      	ldr	r3, [r4, #40]	; 0x28
   13e80:	9314      	str	r3, [sp, #80]	; 0x50
   13e82:	6ae3      	ldr	r3, [r4, #44]	; 0x2c
   13e84:	9304      	str	r3, [sp, #16]
   13e86:	6f23      	ldr	r3, [r4, #112]	; 0x70
   13e88:	9320      	str	r3, [sp, #128]	; 0x80
   13e8a:	6f63      	ldr	r3, [r4, #116]	; 0x74
   13e8c:	9310      	str	r3, [sp, #64]	; 0x40
   13e8e:	6b23      	ldr	r3, [r4, #48]	; 0x30
   13e90:	9315      	str	r3, [sp, #84]	; 0x54
   13e92:	6b63      	ldr	r3, [r4, #52]	; 0x34
   13e94:	9305      	str	r3, [sp, #20]
   13e96:	6fa3      	ldr	r3, [r4, #120]	; 0x78
   13e98:	9321      	str	r3, [sp, #132]	; 0x84
   13e9a:	6fe3      	ldr	r3, [r4, #124]	; 0x7c
   13e9c:	9311      	str	r3, [sp, #68]	; 0x44
   13e9e:	6ba3      	ldr	r3, [r4, #56]	; 0x38
   13ea0:	9101      	str	r1, [sp, #4]
   13ea2:	9316      	str	r3, [sp, #88]	; 0x58
   13ea4:	6be3      	ldr	r3, [r4, #60]	; 0x3c
   13ea6:	9306      	str	r3, [sp, #24]
   13ea8:	6c23      	ldr	r3, [r4, #64]	; 0x40
   13eaa:	931b      	str	r3, [sp, #108]	; 0x6c
   13eac:	6c63      	ldr	r3, [r4, #68]	; 0x44
   13eae:	930b      	str	r3, [sp, #44]	; 0x2c
   13eb0:	6ca3      	ldr	r3, [r4, #72]	; 0x48
   13eb2:	931c      	str	r3, [sp, #112]	; 0x70
   13eb4:	6ce3      	ldr	r3, [r4, #76]	; 0x4c
   13eb6:	930c      	str	r3, [sp, #48]	; 0x30
   13eb8:	6d23      	ldr	r3, [r4, #80]	; 0x50
   13eba:	931d      	str	r3, [sp, #116]	; 0x74
   13ebc:	6d63      	ldr	r3, [r4, #84]	; 0x54
   13ebe:	930d      	str	r3, [sp, #52]	; 0x34
   13ec0:	6da3      	ldr	r3, [r4, #88]	; 0x58
   13ec2:	931e      	str	r3, [sp, #120]	; 0x78
   13ec4:	6de3      	ldr	r3, [r4, #92]	; 0x5c
   13ec6:	930e      	str	r3, [sp, #56]	; 0x38
   13ec8:	6e23      	ldr	r3, [r4, #96]	; 0x60
   13eca:	9313      	str	r3, [sp, #76]	; 0x4c
   13ecc:	6e63      	ldr	r3, [r4, #100]	; 0x64
   13ece:	9303      	str	r3, [sp, #12]
   13ed0:	6ea3      	ldr	r3, [r4, #104]	; 0x68
   13ed2:	931f      	str	r3, [sp, #124]	; 0x7c
   13ed4:	6ee3      	ldr	r3, [r4, #108]	; 0x6c
   13ed6:	930f      	str	r3, [sp, #60]	; 0x3c
   13ed8:	4bc1      	ldr	r3, [pc, #772]	; (141e0 <_Transform_Sha512+0x3e8>)
   13eda:	ea4f 469a 	mov.w	r6, sl, lsr #18
   13ede:	982e      	ldr	r0, [sp, #184]	; 0xb8
   13ee0:	ea4f 379a 	mov.w	r7, sl, lsr #14
   13ee4:	992e      	ldr	r1, [sp, #184]	; 0xb8
   13ee6:	ea47 4780 	orr.w	r7, r7, r0, lsl #18
   13eea:	ea4f 4c90 	mov.w	ip, r0, lsr #18
   13eee:	ea46 3080 	orr.w	r0, r6, r0, lsl #14
   13ef2:	0b89      	lsrs	r1, r1, #14
   13ef4:	ea87 0600 	eor.w	r6, r7, r0
   13ef8:	982e      	ldr	r0, [sp, #184]	; 0xb8
   13efa:	ea4f 57ca 	mov.w	r7, sl, lsl #23
   13efe:	ea4c 3c8a 	orr.w	ip, ip, sl, lsl #14
   13f02:	ea41 418a 	orr.w	r1, r1, sl, lsl #18
   13f06:	ea81 010c 	eor.w	r1, r1, ip
   13f0a:	ea47 2750 	orr.w	r7, r7, r0, lsr #9
   13f0e:	05c0      	lsls	r0, r0, #23
   13f10:	4077      	eors	r7, r6
   13f12:	9e2a      	ldr	r6, [sp, #168]	; 0xa8
   13f14:	ea40 205a 	orr.w	r0, r0, sl, lsr #9
   13f18:	4041      	eors	r1, r0
   13f1a:	982c      	ldr	r0, [sp, #176]	; 0xb0
   13f1c:	ea80 0c06 	eor.w	ip, r0, r6
   13f20:	9e2b      	ldr	r6, [sp, #172]	; 0xac
   13f22:	982d      	ldr	r0, [sp, #180]	; 0xb4
   13f24:	4046      	eors	r6, r0
   13f26:	982e      	ldr	r0, [sp, #184]	; 0xb8
   13f28:	ea06 060a 	and.w	r6, r6, sl
   13f2c:	ea0c 0c00 	and.w	ip, ip, r0
   13f30:	982a      	ldr	r0, [sp, #168]	; 0xa8
   13f32:	ea8c 0c00 	eor.w	ip, ip, r0
   13f36:	982b      	ldr	r0, [sp, #172]	; 0xac
   13f38:	eb11 010c 	adds.w	r1, r1, ip
   13f3c:	ea86 0000 	eor.w	r0, r6, r0
   13f40:	eb47 0600 	adc.w	r6, r7, r0
   13f44:	6818      	ldr	r0, [r3, #0]
   13f46:	e9cd 102f 	strd	r1, r0, [sp, #188]	; 0xbc
   13f4a:	6858      	ldr	r0, [r3, #4]
   13f4c:	9031      	str	r0, [sp, #196]	; 0xc4
   13f4e:	9801      	ldr	r0, [sp, #4]
   13f50:	2800      	cmp	r0, #0
   13f52:	f001 86df 	beq.w	15d14 <_Transform_Sha512+0x1f1c>
   13f56:	9910      	ldr	r1, [sp, #64]	; 0x40
   13f58:	9820      	ldr	r0, [sp, #128]	; 0x80
   13f5a:	ea4f 4ed0 	mov.w	lr, r0, lsr #19
   13f5e:	9810      	ldr	r0, [sp, #64]	; 0x40
   13f60:	ea4e 3e40 	orr.w	lr, lr, r0, lsl #13
   13f64:	0cc7      	lsrs	r7, r0, #19
   13f66:	9820      	ldr	r0, [sp, #128]	; 0x80
   13f68:	ea47 3740 	orr.w	r7, r7, r0, lsl #13
   13f6c:	9810      	ldr	r0, [sp, #64]	; 0x40
   13f6e:	ea4f 0cc0 	mov.w	ip, r0, lsl #3
   13f72:	9820      	ldr	r0, [sp, #128]	; 0x80
   13f74:	ea4c 7c50 	orr.w	ip, ip, r0, lsr #29
   13f78:	00c0      	lsls	r0, r0, #3
   13f7a:	ea87 0c0c 	eor.w	ip, r7, ip
   13f7e:	ea40 7051 	orr.w	r0, r0, r1, lsr #29
   13f82:	9920      	ldr	r1, [sp, #128]	; 0x80
   13f84:	ea8e 0000 	eor.w	r0, lr, r0
   13f88:	098f      	lsrs	r7, r1, #6
   13f8a:	9910      	ldr	r1, [sp, #64]	; 0x40
   13f8c:	ea47 6781 	orr.w	r7, r7, r1, lsl #26
   13f90:	ea8c 1c91 	eor.w	ip, ip, r1, lsr #6
   13f94:	9919      	ldr	r1, [sp, #100]	; 0x64
   13f96:	4078      	eors	r0, r7
   13f98:	ea4f 0951 	mov.w	r9, r1, lsr #1
   13f9c:	9909      	ldr	r1, [sp, #36]	; 0x24
   13f9e:	ea49 79c1 	orr.w	r9, r9, r1, lsl #31
   13fa2:	084f      	lsrs	r7, r1, #1
   13fa4:	9919      	ldr	r1, [sp, #100]	; 0x64
   13fa6:	ea47 77c1 	orr.w	r7, r7, r1, lsl #31
   13faa:	ea4f 2e11 	mov.w	lr, r1, lsr #8
   13fae:	9909      	ldr	r1, [sp, #36]	; 0x24
   13fb0:	ea4e 6e01 	orr.w	lr, lr, r1, lsl #24
   13fb4:	ea4f 2811 	mov.w	r8, r1, lsr #8
   13fb8:	9919      	ldr	r1, [sp, #100]	; 0x64
   13fba:	ea89 0e0e 	eor.w	lr, r9, lr
   13fbe:	ea48 6801 	orr.w	r8, r8, r1, lsl #24
   13fc2:	ea4f 19d1 	mov.w	r9, r1, lsr #7
   13fc6:	9909      	ldr	r1, [sp, #36]	; 0x24
   13fc8:	ea87 0708 	eor.w	r7, r7, r8
   13fcc:	ea49 6941 	orr.w	r9, r9, r1, lsl #25
   13fd0:	ea87 17d1 	eor.w	r7, r7, r1, lsr #7
   13fd4:	991c      	ldr	r1, [sp, #112]	; 0x70
   13fd6:	ea8e 0e09 	eor.w	lr, lr, r9
   13fda:	eb10 0e0e 	adds.w	lr, r0, lr
   13fde:	eb4c 0707 	adc.w	r7, ip, r7
   13fe2:	eb1e 0e01 	adds.w	lr, lr, r1
   13fe6:	990c      	ldr	r1, [sp, #48]	; 0x30
   13fe8:	eb41 0707 	adc.w	r7, r1, r7
   13fec:	9918      	ldr	r1, [sp, #96]	; 0x60
   13fee:	eb1e 0e01 	adds.w	lr, lr, r1
   13ff2:	9908      	ldr	r1, [sp, #32]
   13ff4:	f8cd e060 	str.w	lr, [sp, #96]	; 0x60
   13ff8:	eb41 0107 	adc.w	r1, r1, r7
   13ffc:	9108      	str	r1, [sp, #32]
   13ffe:	ea4f 7e12 	mov.w	lr, r2, lsr #28
   14002:	982f      	ldr	r0, [sp, #188]	; 0xbc
   14004:	0797      	lsls	r7, r2, #30
   14006:	9930      	ldr	r1, [sp, #192]	; 0xc0
   14008:	1841      	adds	r1, r0, r1
   1400a:	9831      	ldr	r0, [sp, #196]	; 0xc4
   1400c:	eb46 0600 	adc.w	r6, r6, r0
   14010:	9818      	ldr	r0, [sp, #96]	; 0x60
   14012:	1809      	adds	r1, r1, r0
   14014:	9808      	ldr	r0, [sp, #32]
   14016:	eb40 0606 	adc.w	r6, r0, r6
   1401a:	9828      	ldr	r0, [sp, #160]	; 0xa0
   1401c:	1809      	adds	r1, r1, r0
   1401e:	9829      	ldr	r0, [sp, #164]	; 0xa4
   14020:	eb40 0606 	adc.w	r6, r0, r6
   14024:	9822      	ldr	r0, [sp, #136]	; 0x88
   14026:	1808      	adds	r0, r1, r0
   14028:	e9cd 1028 	strd	r1, r0, [sp, #160]	; 0xa0
   1402c:	eb46 000b 	adc.w	r0, r6, fp
   14030:	9927      	ldr	r1, [sp, #156]	; 0x9c
   14032:	902f      	str	r0, [sp, #188]	; 0xbc
   14034:	9827      	ldr	r0, [sp, #156]	; 0x9c
   14036:	ea47 0791 	orr.w	r7, r7, r1, lsr #2
   1403a:	ea4e 1e00 	orr.w	lr, lr, r0, lsl #4
   1403e:	ea4f 7c10 	mov.w	ip, r0, lsr #28
   14042:	0780      	lsls	r0, r0, #30
   14044:	ea8e 0e07 	eor.w	lr, lr, r7
   14048:	ea4c 1c02 	orr.w	ip, ip, r2, lsl #4
   1404c:	ea40 0092 	orr.w	r0, r0, r2, lsr #2
   14050:	0657      	lsls	r7, r2, #25
   14052:	ea8c 0c00 	eor.w	ip, ip, r0
   14056:	0648      	lsls	r0, r1, #25
   14058:	ea47 17d1 	orr.w	r7, r7, r1, lsr #7
   1405c:	ea40 10d2 	orr.w	r0, r0, r2, lsr #7
   14060:	ea8e 0e07 	eor.w	lr, lr, r7
   14064:	ea8c 0c00 	eor.w	ip, ip, r0
   14068:	e9dd 1025 	ldrd	r1, r0, [sp, #148]	; 0x94
   1406c:	ea42 0801 	orr.w	r8, r2, r1
   14070:	9927      	ldr	r1, [sp, #156]	; 0x9c
   14072:	4308      	orrs	r0, r1
   14074:	9923      	ldr	r1, [sp, #140]	; 0x8c
   14076:	ea08 0801 	and.w	r8, r8, r1
   1407a:	9924      	ldr	r1, [sp, #144]	; 0x90
   1407c:	4008      	ands	r0, r1
   1407e:	9925      	ldr	r1, [sp, #148]	; 0x94
   14080:	ea02 0701 	and.w	r7, r2, r1
   14084:	9927      	ldr	r1, [sp, #156]	; 0x9c
   14086:	ea48 0707 	orr.w	r7, r8, r7
   1408a:	eb1e 0707 	adds.w	r7, lr, r7
   1408e:	4689      	mov	r9, r1
   14090:	9926      	ldr	r1, [sp, #152]	; 0x98
   14092:	ea09 0901 	and.w	r9, r9, r1
   14096:	9928      	ldr	r1, [sp, #160]	; 0xa0
   14098:	ea40 0909 	orr.w	r9, r0, r9
   1409c:	eb4c 0909 	adc.w	r9, ip, r9
   140a0:	1879      	adds	r1, r7, r1
   140a2:	9f29      	ldr	r7, [sp, #164]	; 0xa4
   140a4:	9122      	str	r1, [sp, #136]	; 0x88
   140a6:	eb46 0109 	adc.w	r1, r6, r9
   140aa:	9128      	str	r1, [sp, #160]	; 0xa0
   140ac:	9929      	ldr	r1, [sp, #164]	; 0xa4
   140ae:	ea4f 3c91 	mov.w	ip, r1, lsr #14
   140b2:	992f      	ldr	r1, [sp, #188]	; 0xbc
   140b4:	ea4c 4c81 	orr.w	ip, ip, r1, lsl #18
   140b8:	0b8e      	lsrs	r6, r1, #14
   140ba:	9929      	ldr	r1, [sp, #164]	; 0xa4
   140bc:	ea46 4681 	orr.w	r6, r6, r1, lsl #18
   140c0:	0c88      	lsrs	r0, r1, #18
   140c2:	992f      	ldr	r1, [sp, #188]	; 0xbc
   140c4:	ea40 3081 	orr.w	r0, r0, r1, lsl #14
   140c8:	0c89      	lsrs	r1, r1, #18
   140ca:	ea8c 0c00 	eor.w	ip, ip, r0
   140ce:	4638      	mov	r0, r7
   140d0:	ea41 3187 	orr.w	r1, r1, r7, lsl #14
   140d4:	9f2f      	ldr	r7, [sp, #188]	; 0xbc
   140d6:	404e      	eors	r6, r1
   140d8:	992f      	ldr	r1, [sp, #188]	; 0xbc
   140da:	05c9      	lsls	r1, r1, #23
   140dc:	ea41 2150 	orr.w	r1, r1, r0, lsr #9
   140e0:	05c0      	lsls	r0, r0, #23
   140e2:	4071      	eors	r1, r6
   140e4:	ea40 2057 	orr.w	r0, r0, r7, lsr #9
   140e8:	9130      	str	r1, [sp, #192]	; 0xc0
   140ea:	ea8c 0c00 	eor.w	ip, ip, r0
   140ee:	9e2a      	ldr	r6, [sp, #168]	; 0xa8
   140f0:	992c      	ldr	r1, [sp, #176]	; 0xb0
   140f2:	982e      	ldr	r0, [sp, #184]	; 0xb8
   140f4:	4041      	eors	r1, r0
   140f6:	982d      	ldr	r0, [sp, #180]	; 0xb4
   140f8:	ea80 070a 	eor.w	r7, r0, sl
   140fc:	9829      	ldr	r0, [sp, #164]	; 0xa4
   140fe:	4001      	ands	r1, r0
   14100:	982f      	ldr	r0, [sp, #188]	; 0xbc
   14102:	4007      	ands	r7, r0
   14104:	982c      	ldr	r0, [sp, #176]	; 0xb0
   14106:	4041      	eors	r1, r0
   14108:	982d      	ldr	r0, [sp, #180]	; 0xb4
   1410a:	4047      	eors	r7, r0
   1410c:	6898      	ldr	r0, [r3, #8]
   1410e:	1830      	adds	r0, r6, r0
   14110:	9e2b      	ldr	r6, [sp, #172]	; 0xac
   14112:	46b6      	mov	lr, r6
   14114:	68de      	ldr	r6, [r3, #12]
   14116:	eb4e 0806 	adc.w	r8, lr, r6
   1411a:	1809      	adds	r1, r1, r0
   1411c:	9801      	ldr	r0, [sp, #4]
   1411e:	eb47 0708 	adc.w	r7, r7, r8
   14122:	912a      	str	r1, [sp, #168]	; 0xa8
   14124:	2800      	cmp	r0, #0
   14126:	f001 85fa 	beq.w	15d1e <_Transform_Sha512+0x1f26>
   1412a:	9e11      	ldr	r6, [sp, #68]	; 0x44
   1412c:	9821      	ldr	r0, [sp, #132]	; 0x84
   1412e:	ea4f 49d0 	mov.w	r9, r0, lsr #19
   14132:	9811      	ldr	r0, [sp, #68]	; 0x44
   14134:	ea49 3940 	orr.w	r9, r9, r0, lsl #13
   14138:	ea4f 48d0 	mov.w	r8, r0, lsr #19
   1413c:	9821      	ldr	r0, [sp, #132]	; 0x84
   1413e:	ea48 3840 	orr.w	r8, r8, r0, lsl #13
   14142:	9811      	ldr	r0, [sp, #68]	; 0x44
   14144:	ea4f 0ec0 	mov.w	lr, r0, lsl #3
   14148:	9821      	ldr	r0, [sp, #132]	; 0x84
   1414a:	ea4e 7e50 	orr.w	lr, lr, r0, lsr #29
   1414e:	00c0      	lsls	r0, r0, #3
   14150:	ea88 0e0e 	eor.w	lr, r8, lr
   14154:	ea40 7056 	orr.w	r0, r0, r6, lsr #29
   14158:	9e21      	ldr	r6, [sp, #132]	; 0x84
   1415a:	ea89 0000 	eor.w	r0, r9, r0
   1415e:	ea4f 1896 	mov.w	r8, r6, lsr #6
   14162:	9e11      	ldr	r6, [sp, #68]	; 0x44
   14164:	ea48 6886 	orr.w	r8, r8, r6, lsl #26
   14168:	ea8e 1e96 	eor.w	lr, lr, r6, lsr #6
   1416c:	9e19      	ldr	r6, [sp, #100]	; 0x64
   1416e:	ea80 0008 	eor.w	r0, r0, r8
   14172:	46b0      	mov	r8, r6
   14174:	9e1d      	ldr	r6, [sp, #116]	; 0x74
   14176:	eb18 0b06 	adds.w	fp, r8, r6
   1417a:	9e09      	ldr	r6, [sp, #36]	; 0x24
   1417c:	46b0      	mov	r8, r6
   1417e:	9e0d      	ldr	r6, [sp, #52]	; 0x34
   14180:	eb48 0806 	adc.w	r8, r8, r6
   14184:	9e17      	ldr	r6, [sp, #92]	; 0x5c
   14186:	eb10 000b 	adds.w	r0, r0, fp
   1418a:	eb4e 0e08 	adc.w	lr, lr, r8
   1418e:	ea4f 0b56 	mov.w	fp, r6, lsr #1
   14192:	9e07      	ldr	r6, [sp, #28]
   14194:	ea4b 7bc6 	orr.w	fp, fp, r6, lsl #31
   14198:	ea4f 0856 	mov.w	r8, r6, lsr #1
   1419c:	9e17      	ldr	r6, [sp, #92]	; 0x5c
   1419e:	ea48 78c6 	orr.w	r8, r8, r6, lsl #31
   141a2:	ea4f 2916 	mov.w	r9, r6, lsr #8
   141a6:	9e07      	ldr	r6, [sp, #28]
   141a8:	ea49 6906 	orr.w	r9, r9, r6, lsl #24
   141ac:	0a36      	lsrs	r6, r6, #8
   141ae:	ea8b 0909 	eor.w	r9, fp, r9
   141b2:	4631      	mov	r1, r6
   141b4:	9e17      	ldr	r6, [sp, #92]	; 0x5c
   141b6:	ea41 6606 	orr.w	r6, r1, r6, lsl #24
   141ba:	ea88 0806 	eor.w	r8, r8, r6
   141be:	9e17      	ldr	r6, [sp, #92]	; 0x5c
   141c0:	ea4f 1bd6 	mov.w	fp, r6, lsr #7
   141c4:	9e07      	ldr	r6, [sp, #28]
   141c6:	ea4b 6b46 	orr.w	fp, fp, r6, lsl #25
   141ca:	ea88 18d6 	eor.w	r8, r8, r6, lsr #7
   141ce:	ea89 090b 	eor.w	r9, r9, fp
   141d2:	eb10 0009 	adds.w	r0, r0, r9
   141d6:	9019      	str	r0, [sp, #100]	; 0x64
   141d8:	eb4e 0008 	adc.w	r0, lr, r8
   141dc:	e002      	b.n	141e4 <_Transform_Sha512+0x3ec>
   141de:	bf00      	nop
   141e0:	0001ce48 	.word	0x0001ce48
   141e4:	992a      	ldr	r1, [sp, #168]	; 0xa8
   141e6:	9009      	str	r0, [sp, #36]	; 0x24
   141e8:	9830      	ldr	r0, [sp, #192]	; 0xc0
   141ea:	eb1c 0101 	adds.w	r1, ip, r1
   141ee:	eb40 0607 	adc.w	r6, r0, r7
   141f2:	9819      	ldr	r0, [sp, #100]	; 0x64
   141f4:	9f22      	ldr	r7, [sp, #136]	; 0x88
   141f6:	eb11 0b00 	adds.w	fp, r1, r0
   141fa:	9809      	ldr	r0, [sp, #36]	; 0x24
   141fc:	9928      	ldr	r1, [sp, #160]	; 0xa0
   141fe:	eb40 0606 	adc.w	r6, r0, r6
   14202:	9823      	ldr	r0, [sp, #140]	; 0x8c
   14204:	eb1b 0000 	adds.w	r0, fp, r0
   14208:	902a      	str	r0, [sp, #168]	; 0xa8
   1420a:	9824      	ldr	r0, [sp, #144]	; 0x90
   1420c:	eb46 0000 	adc.w	r0, r6, r0
   14210:	902b      	str	r0, [sp, #172]	; 0xac
   14212:	9822      	ldr	r0, [sp, #136]	; 0x88
   14214:	ea4f 7c10 	mov.w	ip, r0, lsr #28
   14218:	9828      	ldr	r0, [sp, #160]	; 0xa0
   1421a:	ea4c 1c00 	orr.w	ip, ip, r0, lsl #4
   1421e:	ea4f 7e10 	mov.w	lr, r0, lsr #28
   14222:	9822      	ldr	r0, [sp, #136]	; 0x88
   14224:	ea4e 1e00 	orr.w	lr, lr, r0, lsl #4
   14228:	9828      	ldr	r0, [sp, #160]	; 0xa0
   1422a:	0780      	lsls	r0, r0, #30
   1422c:	ea40 0097 	orr.w	r0, r0, r7, lsr #2
   14230:	07bf      	lsls	r7, r7, #30
   14232:	ea8e 0e00 	eor.w	lr, lr, r0
   14236:	0648      	lsls	r0, r1, #25
   14238:	ea47 0791 	orr.w	r7, r7, r1, lsr #2
   1423c:	9922      	ldr	r1, [sp, #136]	; 0x88
   1423e:	ea8c 0c07 	eor.w	ip, ip, r7
   14242:	ea40 10d1 	orr.w	r0, r0, r1, lsr #7
   14246:	064f      	lsls	r7, r1, #25
   14248:	ea8e 0e00 	eor.w	lr, lr, r0
   1424c:	e9dd 0127 	ldrd	r0, r1, [sp, #156]	; 0x9c
   14250:	ea47 17d1 	orr.w	r7, r7, r1, lsr #7
   14254:	9922      	ldr	r1, [sp, #136]	; 0x88
   14256:	ea8c 0c07 	eor.w	ip, ip, r7
   1425a:	ea41 0702 	orr.w	r7, r1, r2
   1425e:	9928      	ldr	r1, [sp, #160]	; 0xa0
   14260:	ea41 0800 	orr.w	r8, r1, r0
   14264:	9925      	ldr	r1, [sp, #148]	; 0x94
   14266:	400f      	ands	r7, r1
   14268:	9926      	ldr	r1, [sp, #152]	; 0x98
   1426a:	ea08 0801 	and.w	r8, r8, r1
   1426e:	9922      	ldr	r1, [sp, #136]	; 0x88
   14270:	ea01 0002 	and.w	r0, r1, r2
   14274:	9928      	ldr	r1, [sp, #160]	; 0xa0
   14276:	4307      	orrs	r7, r0
   14278:	eb1c 0707 	adds.w	r7, ip, r7
   1427c:	4689      	mov	r9, r1
   1427e:	9927      	ldr	r1, [sp, #156]	; 0x9c
   14280:	ea09 0901 	and.w	r9, r9, r1
   14284:	ea48 0909 	orr.w	r9, r8, r9
   14288:	eb4e 0909 	adc.w	r9, lr, r9
   1428c:	eb17 010b 	adds.w	r1, r7, fp
   14290:	9f2a      	ldr	r7, [sp, #168]	; 0xa8
   14292:	9123      	str	r1, [sp, #140]	; 0x8c
   14294:	eb46 0109 	adc.w	r1, r6, r9
   14298:	9124      	str	r1, [sp, #144]	; 0x90
   1429a:	992a      	ldr	r1, [sp, #168]	; 0xa8
   1429c:	ea4f 3c91 	mov.w	ip, r1, lsr #14
   142a0:	992b      	ldr	r1, [sp, #172]	; 0xac
   142a2:	ea4c 4c81 	orr.w	ip, ip, r1, lsl #18
   142a6:	0b8e      	lsrs	r6, r1, #14
   142a8:	992a      	ldr	r1, [sp, #168]	; 0xa8
   142aa:	ea46 4681 	orr.w	r6, r6, r1, lsl #18
   142ae:	0c88      	lsrs	r0, r1, #18
   142b0:	992b      	ldr	r1, [sp, #172]	; 0xac
   142b2:	ea40 3081 	orr.w	r0, r0, r1, lsl #14
   142b6:	0c89      	lsrs	r1, r1, #18
   142b8:	ea8c 0c00 	eor.w	ip, ip, r0
   142bc:	4638      	mov	r0, r7
   142be:	ea41 3187 	orr.w	r1, r1, r7, lsl #14
   142c2:	404e      	eors	r6, r1
   142c4:	992b      	ldr	r1, [sp, #172]	; 0xac
   142c6:	9f2b      	ldr	r7, [sp, #172]	; 0xac
   142c8:	05c9      	lsls	r1, r1, #23
   142ca:	ea41 2150 	orr.w	r1, r1, r0, lsr #9
   142ce:	05c0      	lsls	r0, r0, #23
   142d0:	4071      	eors	r1, r6
   142d2:	9e2c      	ldr	r6, [sp, #176]	; 0xb0
   142d4:	ea40 2057 	orr.w	r0, r0, r7, lsr #9
   142d8:	9130      	str	r1, [sp, #192]	; 0xc0
   142da:	ea8c 0c00 	eor.w	ip, ip, r0
   142de:	9929      	ldr	r1, [sp, #164]	; 0xa4
   142e0:	982e      	ldr	r0, [sp, #184]	; 0xb8
   142e2:	4041      	eors	r1, r0
   142e4:	982f      	ldr	r0, [sp, #188]	; 0xbc
   142e6:	ea80 070a 	eor.w	r7, r0, sl
   142ea:	982a      	ldr	r0, [sp, #168]	; 0xa8
   142ec:	4001      	ands	r1, r0
   142ee:	982b      	ldr	r0, [sp, #172]	; 0xac
   142f0:	4007      	ands	r7, r0
   142f2:	982e      	ldr	r0, [sp, #184]	; 0xb8
   142f4:	ea87 070a 	eor.w	r7, r7, sl
   142f8:	4041      	eors	r1, r0
   142fa:	6918      	ldr	r0, [r3, #16]
   142fc:	1830      	adds	r0, r6, r0
   142fe:	9e2d      	ldr	r6, [sp, #180]	; 0xb4
   14300:	46b6      	mov	lr, r6
   14302:	695e      	ldr	r6, [r3, #20]
   14304:	eb4e 0e06 	adc.w	lr, lr, r6
   14308:	1809      	adds	r1, r1, r0
   1430a:	9801      	ldr	r0, [sp, #4]
   1430c:	eb47 070e 	adc.w	r7, r7, lr
   14310:	2800      	cmp	r0, #0
   14312:	f001 8509 	beq.w	15d28 <_Transform_Sha512+0x1f30>
   14316:	9e02      	ldr	r6, [sp, #8]
   14318:	9812      	ldr	r0, [sp, #72]	; 0x48
   1431a:	ea4f 2e16 	mov.w	lr, r6, lsr #8
   1431e:	ea4f 0950 	mov.w	r9, r0, lsr #1
   14322:	9802      	ldr	r0, [sp, #8]
   14324:	ea49 79c0 	orr.w	r9, r9, r0, lsl #31
   14328:	ea4f 0850 	mov.w	r8, r0, lsr #1
   1432c:	9812      	ldr	r0, [sp, #72]	; 0x48
   1432e:	ea48 78c0 	orr.w	r8, r8, r0, lsl #31
   14332:	0a00      	lsrs	r0, r0, #8
   14334:	ea40 6006 	orr.w	r0, r0, r6, lsl #24
   14338:	9e12      	ldr	r6, [sp, #72]	; 0x48
   1433a:	ea89 0000 	eor.w	r0, r9, r0
   1433e:	ea4e 6e06 	orr.w	lr, lr, r6, lsl #24
   14342:	ea88 0e0e 	eor.w	lr, r8, lr
   14346:	ea4f 18d6 	mov.w	r8, r6, lsr #7
   1434a:	9e02      	ldr	r6, [sp, #8]
   1434c:	ea48 6846 	orr.w	r8, r8, r6, lsl #25
   14350:	ea8e 1ed6 	eor.w	lr, lr, r6, lsr #7
   14354:	9e17      	ldr	r6, [sp, #92]	; 0x5c
   14356:	ea80 0008 	eor.w	r0, r0, r8
   1435a:	46b0      	mov	r8, r6
   1435c:	9e1e      	ldr	r6, [sp, #120]	; 0x78
   1435e:	eb18 0b06 	adds.w	fp, r8, r6
   14362:	9e07      	ldr	r6, [sp, #28]
   14364:	46b0      	mov	r8, r6
   14366:	9e0e      	ldr	r6, [sp, #56]	; 0x38
   14368:	eb48 0806 	adc.w	r8, r8, r6
   1436c:	9e18      	ldr	r6, [sp, #96]	; 0x60
   1436e:	eb10 000b 	adds.w	r0, r0, fp
   14372:	eb4e 0e08 	adc.w	lr, lr, r8
   14376:	ea4f 4bd6 	mov.w	fp, r6, lsr #19
   1437a:	9e08      	ldr	r6, [sp, #32]
   1437c:	ea4b 3b46 	orr.w	fp, fp, r6, lsl #13
   14380:	ea4f 48d6 	mov.w	r8, r6, lsr #19
   14384:	9e18      	ldr	r6, [sp, #96]	; 0x60
   14386:	ea48 3846 	orr.w	r8, r8, r6, lsl #13
   1438a:	9e08      	ldr	r6, [sp, #32]
   1438c:	ea4f 09c6 	mov.w	r9, r6, lsl #3
   14390:	9e18      	ldr	r6, [sp, #96]	; 0x60
   14392:	ea49 7656 	orr.w	r6, r9, r6, lsr #29
   14396:	9607      	str	r6, [sp, #28]
   14398:	9e18      	ldr	r6, [sp, #96]	; 0x60
   1439a:	ea4f 09c6 	mov.w	r9, r6, lsl #3
   1439e:	9e08      	ldr	r6, [sp, #32]
   143a0:	ea49 7956 	orr.w	r9, r9, r6, lsr #29
   143a4:	9e07      	ldr	r6, [sp, #28]
   143a6:	ea8b 0909 	eor.w	r9, fp, r9
   143aa:	ea88 0806 	eor.w	r8, r8, r6
   143ae:	9e18      	ldr	r6, [sp, #96]	; 0x60
   143b0:	ea4f 1b96 	mov.w	fp, r6, lsr #6
   143b4:	9e08      	ldr	r6, [sp, #32]
   143b6:	ea4b 6b86 	orr.w	fp, fp, r6, lsl #26
   143ba:	ea88 1896 	eor.w	r8, r8, r6, lsr #6
   143be:	ea89 090b 	eor.w	r9, r9, fp
   143c2:	eb10 0009 	adds.w	r0, r0, r9
   143c6:	9017      	str	r0, [sp, #92]	; 0x5c
   143c8:	eb4e 0008 	adc.w	r0, lr, r8
   143cc:	9007      	str	r0, [sp, #28]
   143ce:	eb1c 0101 	adds.w	r1, ip, r1
   143d2:	9830      	ldr	r0, [sp, #192]	; 0xc0
   143d4:	eb40 0607 	adc.w	r6, r0, r7
   143d8:	9817      	ldr	r0, [sp, #92]	; 0x5c
   143da:	9f23      	ldr	r7, [sp, #140]	; 0x8c
   143dc:	eb11 0b00 	adds.w	fp, r1, r0
   143e0:	9807      	ldr	r0, [sp, #28]
   143e2:	9924      	ldr	r1, [sp, #144]	; 0x90
   143e4:	eb40 0606 	adc.w	r6, r0, r6
   143e8:	9825      	ldr	r0, [sp, #148]	; 0x94
   143ea:	eb1b 0000 	adds.w	r0, fp, r0
   143ee:	902c      	str	r0, [sp, #176]	; 0xb0
   143f0:	9826      	ldr	r0, [sp, #152]	; 0x98
   143f2:	eb46 0000 	adc.w	r0, r6, r0
   143f6:	902d      	str	r0, [sp, #180]	; 0xb4
   143f8:	9823      	ldr	r0, [sp, #140]	; 0x8c
   143fa:	ea4f 7c10 	mov.w	ip, r0, lsr #28
   143fe:	9824      	ldr	r0, [sp, #144]	; 0x90
   14400:	ea4c 1c00 	orr.w	ip, ip, r0, lsl #4
   14404:	ea4f 7e10 	mov.w	lr, r0, lsr #28
   14408:	9823      	ldr	r0, [sp, #140]	; 0x8c
   1440a:	ea4e 1e00 	orr.w	lr, lr, r0, lsl #4
   1440e:	9824      	ldr	r0, [sp, #144]	; 0x90
   14410:	0780      	lsls	r0, r0, #30
   14412:	ea40 0097 	orr.w	r0, r0, r7, lsr #2
   14416:	07bf      	lsls	r7, r7, #30
   14418:	ea8e 0e00 	eor.w	lr, lr, r0
   1441c:	0648      	lsls	r0, r1, #25
   1441e:	ea47 0791 	orr.w	r7, r7, r1, lsr #2
   14422:	9923      	ldr	r1, [sp, #140]	; 0x8c
   14424:	ea8c 0c07 	eor.w	ip, ip, r7
   14428:	ea40 10d1 	orr.w	r0, r0, r1, lsr #7
   1442c:	064f      	lsls	r7, r1, #25
   1442e:	ea8e 0e00 	eor.w	lr, lr, r0
   14432:	e9dd 0123 	ldrd	r0, r1, [sp, #140]	; 0x8c
   14436:	ea47 17d1 	orr.w	r7, r7, r1, lsr #7
   1443a:	9922      	ldr	r1, [sp, #136]	; 0x88
   1443c:	ea8c 0c07 	eor.w	ip, ip, r7
   14440:	ea41 0700 	orr.w	r7, r1, r0
   14444:	9824      	ldr	r0, [sp, #144]	; 0x90
   14446:	4017      	ands	r7, r2
   14448:	9928      	ldr	r1, [sp, #160]	; 0xa0
   1444a:	ea41 0800 	orr.w	r8, r1, r0
   1444e:	9823      	ldr	r0, [sp, #140]	; 0x8c
   14450:	9927      	ldr	r1, [sp, #156]	; 0x9c
   14452:	ea08 0801 	and.w	r8, r8, r1
   14456:	9922      	ldr	r1, [sp, #136]	; 0x88
   14458:	4008      	ands	r0, r1
   1445a:	9928      	ldr	r1, [sp, #160]	; 0xa0
   1445c:	4338      	orrs	r0, r7
   1445e:	eb1c 0000 	adds.w	r0, ip, r0
   14462:	9f2c      	ldr	r7, [sp, #176]	; 0xb0
   14464:	4689      	mov	r9, r1
   14466:	9924      	ldr	r1, [sp, #144]	; 0x90
   14468:	ea09 0901 	and.w	r9, r9, r1
   1446c:	ea48 0909 	orr.w	r9, r8, r9
   14470:	eb4e 0909 	adc.w	r9, lr, r9
   14474:	eb10 010b 	adds.w	r1, r0, fp
   14478:	9125      	str	r1, [sp, #148]	; 0x94
   1447a:	eb46 0109 	adc.w	r1, r6, r9
   1447e:	9126      	str	r1, [sp, #152]	; 0x98
   14480:	992c      	ldr	r1, [sp, #176]	; 0xb0
   14482:	ea4f 3c91 	mov.w	ip, r1, lsr #14
   14486:	992d      	ldr	r1, [sp, #180]	; 0xb4
   14488:	ea4c 4c81 	orr.w	ip, ip, r1, lsl #18
   1448c:	0b8e      	lsrs	r6, r1, #14
   1448e:	992c      	ldr	r1, [sp, #176]	; 0xb0
   14490:	ea46 4681 	orr.w	r6, r6, r1, lsl #18
   14494:	0c88      	lsrs	r0, r1, #18
   14496:	992d      	ldr	r1, [sp, #180]	; 0xb4
   14498:	ea40 3081 	orr.w	r0, r0, r1, lsl #14
   1449c:	0c89      	lsrs	r1, r1, #18
   1449e:	ea8c 0c00 	eor.w	ip, ip, r0
   144a2:	4638      	mov	r0, r7
   144a4:	ea41 3187 	orr.w	r1, r1, r7, lsl #14
   144a8:	404e      	eors	r6, r1
   144aa:	992d      	ldr	r1, [sp, #180]	; 0xb4
   144ac:	9f2d      	ldr	r7, [sp, #180]	; 0xb4
   144ae:	05c9      	lsls	r1, r1, #23
   144b0:	ea41 2150 	orr.w	r1, r1, r0, lsr #9
   144b4:	05c0      	lsls	r0, r0, #23
   144b6:	4071      	eors	r1, r6
   144b8:	9e2e      	ldr	r6, [sp, #184]	; 0xb8
   144ba:	ea40 2057 	orr.w	r0, r0, r7, lsr #9
   144be:	9130      	str	r1, [sp, #192]	; 0xc0
   144c0:	ea8c 0c00 	eor.w	ip, ip, r0
   144c4:	9929      	ldr	r1, [sp, #164]	; 0xa4
   144c6:	e9dd 072a 	ldrd	r0, r7, [sp, #168]	; 0xa8
   144ca:	4041      	eors	r1, r0
   144cc:	982f      	ldr	r0, [sp, #188]	; 0xbc
   144ce:	4047      	eors	r7, r0
   144d0:	982c      	ldr	r0, [sp, #176]	; 0xb0
   144d2:	4001      	ands	r1, r0
   144d4:	982d      	ldr	r0, [sp, #180]	; 0xb4
   144d6:	4007      	ands	r7, r0
   144d8:	9829      	ldr	r0, [sp, #164]	; 0xa4
   144da:	4041      	eors	r1, r0
   144dc:	982f      	ldr	r0, [sp, #188]	; 0xbc
   144de:	4047      	eors	r7, r0
   144e0:	6998      	ldr	r0, [r3, #24]
   144e2:	1830      	adds	r0, r6, r0
   144e4:	69de      	ldr	r6, [r3, #28]
   144e6:	eb4a 0e06 	adc.w	lr, sl, r6
   144ea:	1809      	adds	r1, r1, r0
   144ec:	9801      	ldr	r0, [sp, #4]
   144ee:	eb47 070e 	adc.w	r7, r7, lr
   144f2:	2800      	cmp	r0, #0
   144f4:	f001 841d 	beq.w	15d32 <_Transform_Sha512+0x1f3a>
   144f8:	9e0a      	ldr	r6, [sp, #40]	; 0x28
   144fa:	981a      	ldr	r0, [sp, #104]	; 0x68
   144fc:	ea4f 2e16 	mov.w	lr, r6, lsr #8
   14500:	ea4f 0950 	mov.w	r9, r0, lsr #1
   14504:	980a      	ldr	r0, [sp, #40]	; 0x28
   14506:	ea49 79c0 	orr.w	r9, r9, r0, lsl #31
   1450a:	ea4f 0850 	mov.w	r8, r0, lsr #1
   1450e:	981a      	ldr	r0, [sp, #104]	; 0x68
   14510:	ea48 78c0 	orr.w	r8, r8, r0, lsl #31
   14514:	0a00      	lsrs	r0, r0, #8
   14516:	ea40 6006 	orr.w	r0, r0, r6, lsl #24
   1451a:	9e1a      	ldr	r6, [sp, #104]	; 0x68
   1451c:	ea89 0000 	eor.w	r0, r9, r0
   14520:	ea4e 6e06 	orr.w	lr, lr, r6, lsl #24
   14524:	ea88 0e0e 	eor.w	lr, r8, lr
   14528:	ea4f 18d6 	mov.w	r8, r6, lsr #7
   1452c:	9e0a      	ldr	r6, [sp, #40]	; 0x28
   1452e:	ea48 6846 	orr.w	r8, r8, r6, lsl #25
   14532:	ea8e 1ed6 	eor.w	lr, lr, r6, lsr #7
   14536:	9e12      	ldr	r6, [sp, #72]	; 0x48
   14538:	ea80 0008 	eor.w	r0, r0, r8
   1453c:	46b0      	mov	r8, r6
   1453e:	9e13      	ldr	r6, [sp, #76]	; 0x4c
   14540:	eb18 0b06 	adds.w	fp, r8, r6
   14544:	9e02      	ldr	r6, [sp, #8]
   14546:	46b0      	mov	r8, r6
   14548:	9e03      	ldr	r6, [sp, #12]
   1454a:	eb48 0806 	adc.w	r8, r8, r6
   1454e:	9e19      	ldr	r6, [sp, #100]	; 0x64
   14550:	eb10 000b 	adds.w	r0, r0, fp
   14554:	eb4e 0e08 	adc.w	lr, lr, r8
   14558:	ea4f 4bd6 	mov.w	fp, r6, lsr #19
   1455c:	9e09      	ldr	r6, [sp, #36]	; 0x24
   1455e:	ea4b 3b46 	orr.w	fp, fp, r6, lsl #13
   14562:	ea4f 48d6 	mov.w	r8, r6, lsr #19
   14566:	9e19      	ldr	r6, [sp, #100]	; 0x64
   14568:	ea48 3846 	orr.w	r8, r8, r6, lsl #13
   1456c:	9e09      	ldr	r6, [sp, #36]	; 0x24
   1456e:	ea4f 0ac6 	mov.w	sl, r6, lsl #3
   14572:	9e19      	ldr	r6, [sp, #100]	; 0x64
   14574:	ea4a 7a56 	orr.w	sl, sl, r6, lsr #29
   14578:	ea4f 09c6 	mov.w	r9, r6, lsl #3
   1457c:	9e09      	ldr	r6, [sp, #36]	; 0x24
   1457e:	ea88 080a 	eor.w	r8, r8, sl
   14582:	ea49 7956 	orr.w	r9, r9, r6, lsr #29
   14586:	9e19      	ldr	r6, [sp, #100]	; 0x64
   14588:	ea8b 0909 	eor.w	r9, fp, r9
   1458c:	ea4f 1b96 	mov.w	fp, r6, lsr #6
   14590:	9e09      	ldr	r6, [sp, #36]	; 0x24
   14592:	ea4b 6b86 	orr.w	fp, fp, r6, lsl #26
   14596:	ea88 1896 	eor.w	r8, r8, r6, lsr #6
   1459a:	ea89 090b 	eor.w	r9, r9, fp
   1459e:	eb10 0009 	adds.w	r0, r0, r9
   145a2:	9012      	str	r0, [sp, #72]	; 0x48
   145a4:	eb4e 0008 	adc.w	r0, lr, r8
   145a8:	9002      	str	r0, [sp, #8]
   145aa:	eb1c 0101 	adds.w	r1, ip, r1
   145ae:	9830      	ldr	r0, [sp, #192]	; 0xc0
   145b0:	eb40 0607 	adc.w	r6, r0, r7
   145b4:	9812      	ldr	r0, [sp, #72]	; 0x48
   145b6:	9f25      	ldr	r7, [sp, #148]	; 0x94
   145b8:	eb11 0900 	adds.w	r9, r1, r0
   145bc:	9802      	ldr	r0, [sp, #8]
   145be:	9926      	ldr	r1, [sp, #152]	; 0x98
   145c0:	eb40 0606 	adc.w	r6, r0, r6
   145c4:	eb19 0202 	adds.w	r2, r9, r2
   145c8:	922e      	str	r2, [sp, #184]	; 0xb8
   145ca:	9a27      	ldr	r2, [sp, #156]	; 0x9c
   145cc:	eb46 0202 	adc.w	r2, r6, r2
   145d0:	9230      	str	r2, [sp, #192]	; 0xc0
   145d2:	9a25      	ldr	r2, [sp, #148]	; 0x94
   145d4:	ea4f 7c12 	mov.w	ip, r2, lsr #28
   145d8:	9a26      	ldr	r2, [sp, #152]	; 0x98
   145da:	ea4c 1c02 	orr.w	ip, ip, r2, lsl #4
   145de:	0f10      	lsrs	r0, r2, #28
   145e0:	9a25      	ldr	r2, [sp, #148]	; 0x94
   145e2:	ea40 1002 	orr.w	r0, r0, r2, lsl #4
   145e6:	9a26      	ldr	r2, [sp, #152]	; 0x98
   145e8:	0792      	lsls	r2, r2, #30
   145ea:	ea42 0297 	orr.w	r2, r2, r7, lsr #2
   145ee:	07bf      	lsls	r7, r7, #30
   145f0:	4050      	eors	r0, r2
   145f2:	064a      	lsls	r2, r1, #25
   145f4:	ea47 0791 	orr.w	r7, r7, r1, lsr #2
   145f8:	9925      	ldr	r1, [sp, #148]	; 0x94
   145fa:	ea8c 0c07 	eor.w	ip, ip, r7
   145fe:	ea42 12d1 	orr.w	r2, r2, r1, lsr #7
   14602:	064f      	lsls	r7, r1, #25
   14604:	9926      	ldr	r1, [sp, #152]	; 0x98
   14606:	4050      	eors	r0, r2
   14608:	9a23      	ldr	r2, [sp, #140]	; 0x8c
   1460a:	ea47 17d1 	orr.w	r7, r7, r1, lsr #7
   1460e:	9925      	ldr	r1, [sp, #148]	; 0x94
   14610:	ea8c 0c07 	eor.w	ip, ip, r7
   14614:	ea42 0701 	orr.w	r7, r2, r1
   14618:	9a24      	ldr	r2, [sp, #144]	; 0x90
   1461a:	9926      	ldr	r1, [sp, #152]	; 0x98
   1461c:	ea42 0e01 	orr.w	lr, r2, r1
   14620:	9a22      	ldr	r2, [sp, #136]	; 0x88
   14622:	9925      	ldr	r1, [sp, #148]	; 0x94
   14624:	4017      	ands	r7, r2
   14626:	9a28      	ldr	r2, [sp, #160]	; 0xa0
   14628:	ea0e 0e02 	and.w	lr, lr, r2
   1462c:	9a23      	ldr	r2, [sp, #140]	; 0x8c
   1462e:	400a      	ands	r2, r1
   14630:	9924      	ldr	r1, [sp, #144]	; 0x90
   14632:	433a      	orrs	r2, r7
   14634:	eb1c 0202 	adds.w	r2, ip, r2
   14638:	4688      	mov	r8, r1
   1463a:	9926      	ldr	r1, [sp, #152]	; 0x98
   1463c:	ea08 0801 	and.w	r8, r8, r1
   14640:	ea4e 0808 	orr.w	r8, lr, r8
   14644:	eb40 0808 	adc.w	r8, r0, r8
   14648:	eb12 0b09 	adds.w	fp, r2, r9
   1464c:	eb46 0208 	adc.w	r2, r6, r8
   14650:	9e2e      	ldr	r6, [sp, #184]	; 0xb8
   14652:	9227      	str	r2, [sp, #156]	; 0x9c
   14654:	9a2e      	ldr	r2, [sp, #184]	; 0xb8
   14656:	0b97      	lsrs	r7, r2, #14
   14658:	9a30      	ldr	r2, [sp, #192]	; 0xc0
   1465a:	ea47 4782 	orr.w	r7, r7, r2, lsl #18
   1465e:	0b90      	lsrs	r0, r2, #14
   14660:	9a2e      	ldr	r2, [sp, #184]	; 0xb8
   14662:	ea40 4082 	orr.w	r0, r0, r2, lsl #18
   14666:	0c91      	lsrs	r1, r2, #18
   14668:	9a30      	ldr	r2, [sp, #192]	; 0xc0
   1466a:	ea41 3182 	orr.w	r1, r1, r2, lsl #14
   1466e:	0c92      	lsrs	r2, r2, #18
   14670:	404f      	eors	r7, r1
   14672:	4631      	mov	r1, r6
   14674:	ea42 3286 	orr.w	r2, r2, r6, lsl #14
   14678:	4050      	eors	r0, r2
   1467a:	9a30      	ldr	r2, [sp, #192]	; 0xc0
   1467c:	9e30      	ldr	r6, [sp, #192]	; 0xc0
   1467e:	05d2      	lsls	r2, r2, #23
   14680:	ea42 2251 	orr.w	r2, r2, r1, lsr #9
   14684:	05c9      	lsls	r1, r1, #23
   14686:	4042      	eors	r2, r0
   14688:	9829      	ldr	r0, [sp, #164]	; 0xa4
   1468a:	ea41 2156 	orr.w	r1, r1, r6, lsr #9
   1468e:	9231      	str	r2, [sp, #196]	; 0xc4
   14690:	404f      	eors	r7, r1
   14692:	9a2a      	ldr	r2, [sp, #168]	; 0xa8
   14694:	e9dd 162c 	ldrd	r1, r6, [sp, #176]	; 0xb0
   14698:	404a      	eors	r2, r1
   1469a:	992b      	ldr	r1, [sp, #172]	; 0xac
   1469c:	404e      	eors	r6, r1
   1469e:	992e      	ldr	r1, [sp, #184]	; 0xb8
   146a0:	400a      	ands	r2, r1
   146a2:	9930      	ldr	r1, [sp, #192]	; 0xc0
   146a4:	400e      	ands	r6, r1
   146a6:	992a      	ldr	r1, [sp, #168]	; 0xa8
   146a8:	404a      	eors	r2, r1
   146aa:	992b      	ldr	r1, [sp, #172]	; 0xac
   146ac:	404e      	eors	r6, r1
   146ae:	6a19      	ldr	r1, [r3, #32]
   146b0:	1841      	adds	r1, r0, r1
   146b2:	982f      	ldr	r0, [sp, #188]	; 0xbc
   146b4:	4684      	mov	ip, r0
   146b6:	6a58      	ldr	r0, [r3, #36]	; 0x24
   146b8:	eb4c 0c00 	adc.w	ip, ip, r0
   146bc:	1852      	adds	r2, r2, r1
   146be:	9901      	ldr	r1, [sp, #4]
   146c0:	eb46 060c 	adc.w	r6, r6, ip
   146c4:	2900      	cmp	r1, #0
   146c6:	f001 8339 	beq.w	15d3c <_Transform_Sha512+0x1f44>
   146ca:	9804      	ldr	r0, [sp, #16]
   146cc:	9914      	ldr	r1, [sp, #80]	; 0x50
   146ce:	ea4f 2c10 	mov.w	ip, r0, lsr #8
   146d2:	ea4f 0851 	mov.w	r8, r1, lsr #1
   146d6:	9904      	ldr	r1, [sp, #16]
   146d8:	ea48 78c1 	orr.w	r8, r8, r1, lsl #31
   146dc:	ea4f 0e51 	mov.w	lr, r1, lsr #1
   146e0:	9914      	ldr	r1, [sp, #80]	; 0x50
   146e2:	ea4e 7ec1 	orr.w	lr, lr, r1, lsl #31
   146e6:	0a09      	lsrs	r1, r1, #8
   146e8:	ea41 6100 	orr.w	r1, r1, r0, lsl #24
   146ec:	9814      	ldr	r0, [sp, #80]	; 0x50
   146ee:	ea88 0101 	eor.w	r1, r8, r1
   146f2:	ea4c 6c00 	orr.w	ip, ip, r0, lsl #24
   146f6:	ea8e 0c0c 	eor.w	ip, lr, ip
   146fa:	ea4f 1ed0 	mov.w	lr, r0, lsr #7
   146fe:	9804      	ldr	r0, [sp, #16]
   14700:	ea4e 6e40 	orr.w	lr, lr, r0, lsl #25
   14704:	ea8c 1cd0 	eor.w	ip, ip, r0, lsr #7
   14708:	981a      	ldr	r0, [sp, #104]	; 0x68
   1470a:	ea81 010e 	eor.w	r1, r1, lr
   1470e:	4686      	mov	lr, r0
   14710:	981f      	ldr	r0, [sp, #124]	; 0x7c
   14712:	eb1e 0a00 	adds.w	sl, lr, r0
   14716:	980a      	ldr	r0, [sp, #40]	; 0x28
   14718:	4686      	mov	lr, r0
   1471a:	980f      	ldr	r0, [sp, #60]	; 0x3c
   1471c:	eb4e 0e00 	adc.w	lr, lr, r0
   14720:	9817      	ldr	r0, [sp, #92]	; 0x5c
   14722:	eb11 010a 	adds.w	r1, r1, sl
   14726:	eb4c 0c0e 	adc.w	ip, ip, lr
   1472a:	ea4f 4ad0 	mov.w	sl, r0, lsr #19
   1472e:	9807      	ldr	r0, [sp, #28]
   14730:	ea4a 3a40 	orr.w	sl, sl, r0, lsl #13
   14734:	ea4f 4ed0 	mov.w	lr, r0, lsr #19
   14738:	9817      	ldr	r0, [sp, #92]	; 0x5c
   1473a:	ea4e 3e40 	orr.w	lr, lr, r0, lsl #13
   1473e:	9807      	ldr	r0, [sp, #28]
   14740:	ea4f 09c0 	mov.w	r9, r0, lsl #3
   14744:	9817      	ldr	r0, [sp, #92]	; 0x5c
   14746:	ea49 7950 	orr.w	r9, r9, r0, lsr #29
   1474a:	ea4f 08c0 	mov.w	r8, r0, lsl #3
   1474e:	9807      	ldr	r0, [sp, #28]
   14750:	ea8e 0e09 	eor.w	lr, lr, r9
   14754:	ea48 7850 	orr.w	r8, r8, r0, lsr #29
   14758:	9817      	ldr	r0, [sp, #92]	; 0x5c
   1475a:	ea8a 0808 	eor.w	r8, sl, r8
   1475e:	ea4f 1a90 	mov.w	sl, r0, lsr #6
   14762:	9807      	ldr	r0, [sp, #28]
   14764:	ea4a 6a80 	orr.w	sl, sl, r0, lsl #26
   14768:	ea8e 1e90 	eor.w	lr, lr, r0, lsr #6
   1476c:	ea88 080a 	eor.w	r8, r8, sl
   14770:	eb11 0108 	adds.w	r1, r1, r8
   14774:	911a      	str	r1, [sp, #104]	; 0x68
   14776:	eb4c 010e 	adc.w	r1, ip, lr
   1477a:	910a      	str	r1, [sp, #40]	; 0x28
   1477c:	18ba      	adds	r2, r7, r2
   1477e:	ea4f 7e1b 	mov.w	lr, fp, lsr #28
   14782:	9f27      	ldr	r7, [sp, #156]	; 0x9c
   14784:	9931      	ldr	r1, [sp, #196]	; 0xc4
   14786:	eb41 0006 	adc.w	r0, r1, r6
   1478a:	991a      	ldr	r1, [sp, #104]	; 0x68
   1478c:	ea4f 768b 	mov.w	r6, fp, lsl #30
   14790:	ea46 0697 	orr.w	r6, r6, r7, lsr #2
   14794:	1852      	adds	r2, r2, r1
   14796:	990a      	ldr	r1, [sp, #40]	; 0x28
   14798:	eb41 0000 	adc.w	r0, r1, r0
   1479c:	9922      	ldr	r1, [sp, #136]	; 0x88
   1479e:	1889      	adds	r1, r1, r2
   147a0:	9129      	str	r1, [sp, #164]	; 0xa4
   147a2:	9928      	ldr	r1, [sp, #160]	; 0xa0
   147a4:	eb41 0100 	adc.w	r1, r1, r0
   147a8:	912f      	str	r1, [sp, #188]	; 0xbc
   147aa:	9927      	ldr	r1, [sp, #156]	; 0x9c
   147ac:	ea4e 1e01 	orr.w	lr, lr, r1, lsl #4
   147b0:	ea4f 7c11 	mov.w	ip, r1, lsr #28
   147b4:	0789      	lsls	r1, r1, #30
   147b6:	ea8e 0e06 	eor.w	lr, lr, r6
   147ba:	ea4c 1c0b 	orr.w	ip, ip, fp, lsl #4
   147be:	ea41 019b 	orr.w	r1, r1, fp, lsr #2
   147c2:	ea4f 664b 	mov.w	r6, fp, lsl #25
   147c6:	ea8c 0c01 	eor.w	ip, ip, r1
   147ca:	0679      	lsls	r1, r7, #25
   147cc:	ea46 16d7 	orr.w	r6, r6, r7, lsr #7
   147d0:	ea41 11db 	orr.w	r1, r1, fp, lsr #7
   147d4:	ea8e 0e06 	eor.w	lr, lr, r6
   147d8:	ea8c 0c01 	eor.w	ip, ip, r1
   147dc:	9925      	ldr	r1, [sp, #148]	; 0x94
   147de:	ea41 060b 	orr.w	r6, r1, fp
   147e2:	9926      	ldr	r1, [sp, #152]	; 0x98
   147e4:	430f      	orrs	r7, r1
   147e6:	9923      	ldr	r1, [sp, #140]	; 0x8c
   147e8:	400e      	ands	r6, r1
   147ea:	9924      	ldr	r1, [sp, #144]	; 0x90
   147ec:	400f      	ands	r7, r1
   147ee:	9925      	ldr	r1, [sp, #148]	; 0x94
   147f0:	ea01 090b 	and.w	r9, r1, fp
   147f4:	9926      	ldr	r1, [sp, #152]	; 0x98
   147f6:	4688      	mov	r8, r1
   147f8:	9927      	ldr	r1, [sp, #156]	; 0x9c
   147fa:	ea08 0801 	and.w	r8, r8, r1
   147fe:	4649      	mov	r1, r9
   14800:	4331      	orrs	r1, r6
   14802:	ea47 0808 	orr.w	r8, r7, r8
   14806:	9e29      	ldr	r6, [sp, #164]	; 0xa4
   14808:	eb1e 0101 	adds.w	r1, lr, r1
   1480c:	eb4c 0808 	adc.w	r8, ip, r8
   14810:	188a      	adds	r2, r1, r2
   14812:	9222      	str	r2, [sp, #136]	; 0x88
   14814:	eb40 0208 	adc.w	r2, r0, r8
   14818:	9228      	str	r2, [sp, #160]	; 0xa0
   1481a:	9a29      	ldr	r2, [sp, #164]	; 0xa4
   1481c:	0b97      	lsrs	r7, r2, #14
   1481e:	9a2f      	ldr	r2, [sp, #188]	; 0xbc
   14820:	ea47 4782 	orr.w	r7, r7, r2, lsl #18
   14824:	0b90      	lsrs	r0, r2, #14
   14826:	9a29      	ldr	r2, [sp, #164]	; 0xa4
   14828:	ea40 4082 	orr.w	r0, r0, r2, lsl #18
   1482c:	0c91      	lsrs	r1, r2, #18
   1482e:	9a2f      	ldr	r2, [sp, #188]	; 0xbc
   14830:	ea41 3182 	orr.w	r1, r1, r2, lsl #14
   14834:	0c92      	lsrs	r2, r2, #18
   14836:	404f      	eors	r7, r1
   14838:	4631      	mov	r1, r6
   1483a:	ea42 3286 	orr.w	r2, r2, r6, lsl #14
   1483e:	9e2f      	ldr	r6, [sp, #188]	; 0xbc
   14840:	4050      	eors	r0, r2
   14842:	9a2f      	ldr	r2, [sp, #188]	; 0xbc
   14844:	05d2      	lsls	r2, r2, #23
   14846:	ea42 2251 	orr.w	r2, r2, r1, lsr #9
   1484a:	05c9      	lsls	r1, r1, #23
   1484c:	4042      	eors	r2, r0
   1484e:	ea41 2156 	orr.w	r1, r1, r6, lsr #9
   14852:	9e30      	ldr	r6, [sp, #192]	; 0xc0
   14854:	9231      	str	r2, [sp, #196]	; 0xc4
   14856:	404f      	eors	r7, r1
   14858:	9a2c      	ldr	r2, [sp, #176]	; 0xb0
   1485a:	992e      	ldr	r1, [sp, #184]	; 0xb8
   1485c:	404a      	eors	r2, r1
   1485e:	992d      	ldr	r1, [sp, #180]	; 0xb4
   14860:	404e      	eors	r6, r1
   14862:	9929      	ldr	r1, [sp, #164]	; 0xa4
   14864:	400a      	ands	r2, r1
   14866:	992f      	ldr	r1, [sp, #188]	; 0xbc
   14868:	982a      	ldr	r0, [sp, #168]	; 0xa8
   1486a:	400e      	ands	r6, r1
   1486c:	992c      	ldr	r1, [sp, #176]	; 0xb0
   1486e:	404a      	eors	r2, r1
   14870:	992d      	ldr	r1, [sp, #180]	; 0xb4
   14872:	404e      	eors	r6, r1
   14874:	6a99      	ldr	r1, [r3, #40]	; 0x28
   14876:	1841      	adds	r1, r0, r1
   14878:	982b      	ldr	r0, [sp, #172]	; 0xac
   1487a:	4684      	mov	ip, r0
   1487c:	6ad8      	ldr	r0, [r3, #44]	; 0x2c
   1487e:	eb4c 0c00 	adc.w	ip, ip, r0
   14882:	1852      	adds	r2, r2, r1
   14884:	9901      	ldr	r1, [sp, #4]
   14886:	eb46 060c 	adc.w	r6, r6, ip
   1488a:	2900      	cmp	r1, #0
   1488c:	f001 825b 	beq.w	15d46 <_Transform_Sha512+0x1f4e>
   14890:	9805      	ldr	r0, [sp, #20]
   14892:	9915      	ldr	r1, [sp, #84]	; 0x54
   14894:	ea4f 2c10 	mov.w	ip, r0, lsr #8
   14898:	ea4f 0851 	mov.w	r8, r1, lsr #1
   1489c:	9905      	ldr	r1, [sp, #20]
   1489e:	ea48 78c1 	orr.w	r8, r8, r1, lsl #31
   148a2:	ea4f 0e51 	mov.w	lr, r1, lsr #1
   148a6:	9915      	ldr	r1, [sp, #84]	; 0x54
   148a8:	ea4e 7ec1 	orr.w	lr, lr, r1, lsl #31
   148ac:	0a09      	lsrs	r1, r1, #8
   148ae:	ea41 6100 	orr.w	r1, r1, r0, lsl #24
   148b2:	9815      	ldr	r0, [sp, #84]	; 0x54
   148b4:	ea88 0101 	eor.w	r1, r8, r1
   148b8:	ea4c 6c00 	orr.w	ip, ip, r0, lsl #24
   148bc:	ea8e 0c0c 	eor.w	ip, lr, ip
   148c0:	ea4f 1ed0 	mov.w	lr, r0, lsr #7
   148c4:	9805      	ldr	r0, [sp, #20]
   148c6:	ea4e 6e40 	orr.w	lr, lr, r0, lsl #25
   148ca:	ea8c 1cd0 	eor.w	ip, ip, r0, lsr #7
   148ce:	9814      	ldr	r0, [sp, #80]	; 0x50
   148d0:	ea81 010e 	eor.w	r1, r1, lr
   148d4:	4686      	mov	lr, r0
   148d6:	9820      	ldr	r0, [sp, #128]	; 0x80
   148d8:	eb1e 0a00 	adds.w	sl, lr, r0
   148dc:	9804      	ldr	r0, [sp, #16]
   148de:	4686      	mov	lr, r0
   148e0:	9810      	ldr	r0, [sp, #64]	; 0x40
   148e2:	eb4e 0e00 	adc.w	lr, lr, r0
   148e6:	9812      	ldr	r0, [sp, #72]	; 0x48
   148e8:	eb11 010a 	adds.w	r1, r1, sl
   148ec:	eb4c 0c0e 	adc.w	ip, ip, lr
   148f0:	ea4f 4ad0 	mov.w	sl, r0, lsr #19
   148f4:	9802      	ldr	r0, [sp, #8]
   148f6:	ea4a 3a40 	orr.w	sl, sl, r0, lsl #13
   148fa:	ea4f 4ed0 	mov.w	lr, r0, lsr #19
   148fe:	9812      	ldr	r0, [sp, #72]	; 0x48
   14900:	ea4e 3e40 	orr.w	lr, lr, r0, lsl #13
   14904:	9802      	ldr	r0, [sp, #8]
   14906:	ea4f 09c0 	mov.w	r9, r0, lsl #3
   1490a:	9812      	ldr	r0, [sp, #72]	; 0x48
   1490c:	ea49 7950 	orr.w	r9, r9, r0, lsr #29
   14910:	ea4f 08c0 	mov.w	r8, r0, lsl #3
   14914:	9802      	ldr	r0, [sp, #8]
   14916:	ea8e 0e09 	eor.w	lr, lr, r9
   1491a:	ea48 7850 	orr.w	r8, r8, r0, lsr #29
   1491e:	9812      	ldr	r0, [sp, #72]	; 0x48
   14920:	ea8a 0808 	eor.w	r8, sl, r8
   14924:	ea4f 1a90 	mov.w	sl, r0, lsr #6
   14928:	9802      	ldr	r0, [sp, #8]
   1492a:	ea4a 6a80 	orr.w	sl, sl, r0, lsl #26
   1492e:	ea8e 1e90 	eor.w	lr, lr, r0, lsr #6
   14932:	ea88 080a 	eor.w	r8, r8, sl
   14936:	eb11 0108 	adds.w	r1, r1, r8
   1493a:	9114      	str	r1, [sp, #80]	; 0x50
   1493c:	eb4c 010e 	adc.w	r1, ip, lr
   14940:	9104      	str	r1, [sp, #16]
   14942:	18ba      	adds	r2, r7, r2
   14944:	9f28      	ldr	r7, [sp, #160]	; 0xa0
   14946:	9931      	ldr	r1, [sp, #196]	; 0xc4
   14948:	eb41 0006 	adc.w	r0, r1, r6
   1494c:	9914      	ldr	r1, [sp, #80]	; 0x50
   1494e:	9e22      	ldr	r6, [sp, #136]	; 0x88
   14950:	1852      	adds	r2, r2, r1
   14952:	9904      	ldr	r1, [sp, #16]
   14954:	eb41 0000 	adc.w	r0, r1, r0
   14958:	9923      	ldr	r1, [sp, #140]	; 0x8c
   1495a:	1889      	adds	r1, r1, r2
   1495c:	912a      	str	r1, [sp, #168]	; 0xa8
   1495e:	9924      	ldr	r1, [sp, #144]	; 0x90
   14960:	eb41 0100 	adc.w	r1, r1, r0
   14964:	912b      	str	r1, [sp, #172]	; 0xac
   14966:	9922      	ldr	r1, [sp, #136]	; 0x88
   14968:	ea4f 7e11 	mov.w	lr, r1, lsr #28
   1496c:	9928      	ldr	r1, [sp, #160]	; 0xa0
   1496e:	ea4e 1e01 	orr.w	lr, lr, r1, lsl #4
   14972:	ea4f 7c11 	mov.w	ip, r1, lsr #28
   14976:	9922      	ldr	r1, [sp, #136]	; 0x88
   14978:	ea4c 1c01 	orr.w	ip, ip, r1, lsl #4
   1497c:	9928      	ldr	r1, [sp, #160]	; 0xa0
   1497e:	0789      	lsls	r1, r1, #30
   14980:	ea41 0196 	orr.w	r1, r1, r6, lsr #2
   14984:	07b6      	lsls	r6, r6, #30
   14986:	ea8c 0c01 	eor.w	ip, ip, r1
   1498a:	0679      	lsls	r1, r7, #25
   1498c:	ea46 0697 	orr.w	r6, r6, r7, lsr #2
   14990:	ea8e 0e06 	eor.w	lr, lr, r6
   14994:	9e22      	ldr	r6, [sp, #136]	; 0x88
   14996:	ea41 11d6 	orr.w	r1, r1, r6, lsr #7
   1499a:	0676      	lsls	r6, r6, #25
   1499c:	ea8c 0c01 	eor.w	ip, ip, r1
   149a0:	9922      	ldr	r1, [sp, #136]	; 0x88
   149a2:	ea46 16d7 	orr.w	r6, r6, r7, lsr #7
   149a6:	ea8e 0e06 	eor.w	lr, lr, r6
   149aa:	ea4b 0601 	orr.w	r6, fp, r1
   149ae:	9927      	ldr	r1, [sp, #156]	; 0x9c
   149b0:	430f      	orrs	r7, r1
   149b2:	9925      	ldr	r1, [sp, #148]	; 0x94
   149b4:	400e      	ands	r6, r1
   149b6:	9926      	ldr	r1, [sp, #152]	; 0x98
   149b8:	400f      	ands	r7, r1
   149ba:	9922      	ldr	r1, [sp, #136]	; 0x88
   149bc:	ea0b 0901 	and.w	r9, fp, r1
   149c0:	9927      	ldr	r1, [sp, #156]	; 0x9c
   149c2:	4688      	mov	r8, r1
   149c4:	9928      	ldr	r1, [sp, #160]	; 0xa0
   149c6:	ea08 0801 	and.w	r8, r8, r1
   149ca:	4649      	mov	r1, r9
   149cc:	4331      	orrs	r1, r6
   149ce:	ea47 0808 	orr.w	r8, r7, r8
   149d2:	9e2a      	ldr	r6, [sp, #168]	; 0xa8
   149d4:	eb1e 0101 	adds.w	r1, lr, r1
   149d8:	eb4c 0808 	adc.w	r8, ip, r8
   149dc:	188a      	adds	r2, r1, r2
   149de:	9223      	str	r2, [sp, #140]	; 0x8c
   149e0:	eb40 0208 	adc.w	r2, r0, r8
   149e4:	9224      	str	r2, [sp, #144]	; 0x90
   149e6:	9a2a      	ldr	r2, [sp, #168]	; 0xa8
   149e8:	0b97      	lsrs	r7, r2, #14
   149ea:	9a2b      	ldr	r2, [sp, #172]	; 0xac
   149ec:	ea47 4782 	orr.w	r7, r7, r2, lsl #18
   149f0:	0b90      	lsrs	r0, r2, #14
   149f2:	9a2a      	ldr	r2, [sp, #168]	; 0xa8
   149f4:	ea40 4082 	orr.w	r0, r0, r2, lsl #18
   149f8:	0c91      	lsrs	r1, r2, #18
   149fa:	9a2b      	ldr	r2, [sp, #172]	; 0xac
   149fc:	ea41 3182 	orr.w	r1, r1, r2, lsl #14
   14a00:	0c92      	lsrs	r2, r2, #18
   14a02:	404f      	eors	r7, r1
   14a04:	4631      	mov	r1, r6
   14a06:	ea42 3286 	orr.w	r2, r2, r6, lsl #14
   14a0a:	9e2b      	ldr	r6, [sp, #172]	; 0xac
   14a0c:	4050      	eors	r0, r2
   14a0e:	9a2b      	ldr	r2, [sp, #172]	; 0xac
   14a10:	05d2      	lsls	r2, r2, #23
   14a12:	ea42 2251 	orr.w	r2, r2, r1, lsr #9
   14a16:	05c9      	lsls	r1, r1, #23
   14a18:	4042      	eors	r2, r0
   14a1a:	ea41 2156 	orr.w	r1, r1, r6, lsr #9
   14a1e:	9231      	str	r2, [sp, #196]	; 0xc4
   14a20:	404f      	eors	r7, r1
   14a22:	e9dd 262e 	ldrd	r2, r6, [sp, #184]	; 0xb8
   14a26:	9929      	ldr	r1, [sp, #164]	; 0xa4
   14a28:	982c      	ldr	r0, [sp, #176]	; 0xb0
   14a2a:	404a      	eors	r2, r1
   14a2c:	9930      	ldr	r1, [sp, #192]	; 0xc0
   14a2e:	404e      	eors	r6, r1
   14a30:	992a      	ldr	r1, [sp, #168]	; 0xa8
   14a32:	400a      	ands	r2, r1
   14a34:	992b      	ldr	r1, [sp, #172]	; 0xac
   14a36:	400e      	ands	r6, r1
   14a38:	992e      	ldr	r1, [sp, #184]	; 0xb8
   14a3a:	404a      	eors	r2, r1
   14a3c:	9930      	ldr	r1, [sp, #192]	; 0xc0
   14a3e:	404e      	eors	r6, r1
   14a40:	6b19      	ldr	r1, [r3, #48]	; 0x30
   14a42:	1841      	adds	r1, r0, r1
   14a44:	982d      	ldr	r0, [sp, #180]	; 0xb4
   14a46:	4684      	mov	ip, r0
   14a48:	6b58      	ldr	r0, [r3, #52]	; 0x34
   14a4a:	eb4c 0c00 	adc.w	ip, ip, r0
   14a4e:	1852      	adds	r2, r2, r1
   14a50:	9901      	ldr	r1, [sp, #4]
   14a52:	eb46 060c 	adc.w	r6, r6, ip
   14a56:	2900      	cmp	r1, #0
   14a58:	f001 817a 	beq.w	15d50 <_Transform_Sha512+0x1f58>
   14a5c:	9806      	ldr	r0, [sp, #24]
   14a5e:	9916      	ldr	r1, [sp, #88]	; 0x58
   14a60:	ea4f 2c10 	mov.w	ip, r0, lsr #8
   14a64:	ea4f 0851 	mov.w	r8, r1, lsr #1
   14a68:	9906      	ldr	r1, [sp, #24]
   14a6a:	ea48 78c1 	orr.w	r8, r8, r1, lsl #31
   14a6e:	ea4f 0e51 	mov.w	lr, r1, lsr #1
   14a72:	9916      	ldr	r1, [sp, #88]	; 0x58
   14a74:	ea4e 7ec1 	orr.w	lr, lr, r1, lsl #31
   14a78:	0a09      	lsrs	r1, r1, #8
   14a7a:	ea41 6100 	orr.w	r1, r1, r0, lsl #24
   14a7e:	9816      	ldr	r0, [sp, #88]	; 0x58
   14a80:	ea88 0101 	eor.w	r1, r8, r1
   14a84:	ea4c 6c00 	orr.w	ip, ip, r0, lsl #24
   14a88:	ea8e 0c0c 	eor.w	ip, lr, ip
   14a8c:	ea4f 1ed0 	mov.w	lr, r0, lsr #7
   14a90:	9806      	ldr	r0, [sp, #24]
   14a92:	ea4e 6e40 	orr.w	lr, lr, r0, lsl #25
   14a96:	ea8c 1cd0 	eor.w	ip, ip, r0, lsr #7
   14a9a:	9815      	ldr	r0, [sp, #84]	; 0x54
   14a9c:	ea81 010e 	eor.w	r1, r1, lr
   14aa0:	4686      	mov	lr, r0
   14aa2:	9821      	ldr	r0, [sp, #132]	; 0x84
   14aa4:	eb1e 0a00 	adds.w	sl, lr, r0
   14aa8:	9805      	ldr	r0, [sp, #20]
   14aaa:	4686      	mov	lr, r0
   14aac:	9811      	ldr	r0, [sp, #68]	; 0x44
   14aae:	eb4e 0e00 	adc.w	lr, lr, r0
   14ab2:	981a      	ldr	r0, [sp, #104]	; 0x68
   14ab4:	eb11 010a 	adds.w	r1, r1, sl
   14ab8:	eb4c 0c0e 	adc.w	ip, ip, lr
   14abc:	ea4f 4ad0 	mov.w	sl, r0, lsr #19
   14ac0:	980a      	ldr	r0, [sp, #40]	; 0x28
   14ac2:	ea4a 3a40 	orr.w	sl, sl, r0, lsl #13
   14ac6:	ea4f 4ed0 	mov.w	lr, r0, lsr #19
   14aca:	981a      	ldr	r0, [sp, #104]	; 0x68
   14acc:	ea4e 3e40 	orr.w	lr, lr, r0, lsl #13
   14ad0:	980a      	ldr	r0, [sp, #40]	; 0x28
   14ad2:	ea4f 09c0 	mov.w	r9, r0, lsl #3
   14ad6:	981a      	ldr	r0, [sp, #104]	; 0x68
   14ad8:	ea49 7950 	orr.w	r9, r9, r0, lsr #29
   14adc:	ea4f 08c0 	mov.w	r8, r0, lsl #3
   14ae0:	980a      	ldr	r0, [sp, #40]	; 0x28
   14ae2:	ea8e 0e09 	eor.w	lr, lr, r9
   14ae6:	ea48 7850 	orr.w	r8, r8, r0, lsr #29
   14aea:	981a      	ldr	r0, [sp, #104]	; 0x68
   14aec:	ea8a 0808 	eor.w	r8, sl, r8
   14af0:	ea4f 1a90 	mov.w	sl, r0, lsr #6
   14af4:	980a      	ldr	r0, [sp, #40]	; 0x28
   14af6:	ea4a 6a80 	orr.w	sl, sl, r0, lsl #26
   14afa:	ea8e 1e90 	eor.w	lr, lr, r0, lsr #6
   14afe:	ea88 080a 	eor.w	r8, r8, sl
   14b02:	eb11 0108 	adds.w	r1, r1, r8
   14b06:	9115      	str	r1, [sp, #84]	; 0x54
   14b08:	eb4c 010e 	adc.w	r1, ip, lr
   14b0c:	9105      	str	r1, [sp, #20]
   14b0e:	18ba      	adds	r2, r7, r2
   14b10:	9f24      	ldr	r7, [sp, #144]	; 0x90
   14b12:	9931      	ldr	r1, [sp, #196]	; 0xc4
   14b14:	eb41 0006 	adc.w	r0, r1, r6
   14b18:	9915      	ldr	r1, [sp, #84]	; 0x54
   14b1a:	9e23      	ldr	r6, [sp, #140]	; 0x8c
   14b1c:	1852      	adds	r2, r2, r1
   14b1e:	9905      	ldr	r1, [sp, #20]
   14b20:	eb41 0000 	adc.w	r0, r1, r0
   14b24:	9925      	ldr	r1, [sp, #148]	; 0x94
   14b26:	1889      	adds	r1, r1, r2
   14b28:	912c      	str	r1, [sp, #176]	; 0xb0
   14b2a:	9926      	ldr	r1, [sp, #152]	; 0x98
   14b2c:	eb41 0100 	adc.w	r1, r1, r0
   14b30:	912d      	str	r1, [sp, #180]	; 0xb4
   14b32:	9923      	ldr	r1, [sp, #140]	; 0x8c
   14b34:	ea4f 7e11 	mov.w	lr, r1, lsr #28
   14b38:	9924      	ldr	r1, [sp, #144]	; 0x90
   14b3a:	ea4e 1e01 	orr.w	lr, lr, r1, lsl #4
   14b3e:	ea4f 7c11 	mov.w	ip, r1, lsr #28
   14b42:	9923      	ldr	r1, [sp, #140]	; 0x8c
   14b44:	ea4c 1c01 	orr.w	ip, ip, r1, lsl #4
   14b48:	9924      	ldr	r1, [sp, #144]	; 0x90
   14b4a:	0789      	lsls	r1, r1, #30
   14b4c:	ea41 0196 	orr.w	r1, r1, r6, lsr #2
   14b50:	07b6      	lsls	r6, r6, #30
   14b52:	ea8c 0c01 	eor.w	ip, ip, r1
   14b56:	0679      	lsls	r1, r7, #25
   14b58:	ea46 0697 	orr.w	r6, r6, r7, lsr #2
   14b5c:	ea8e 0e06 	eor.w	lr, lr, r6
   14b60:	9e23      	ldr	r6, [sp, #140]	; 0x8c
   14b62:	ea41 11d6 	orr.w	r1, r1, r6, lsr #7
   14b66:	0676      	lsls	r6, r6, #25
   14b68:	ea8c 0c01 	eor.w	ip, ip, r1
   14b6c:	ea46 16d7 	orr.w	r6, r6, r7, lsr #7
   14b70:	ea8e 0e06 	eor.w	lr, lr, r6
   14b74:	e9dd 1622 	ldrd	r1, r6, [sp, #136]	; 0x88
   14b78:	430e      	orrs	r6, r1
   14b7a:	9928      	ldr	r1, [sp, #160]	; 0xa0
   14b7c:	ea06 060b 	and.w	r6, r6, fp
   14b80:	430f      	orrs	r7, r1
   14b82:	9927      	ldr	r1, [sp, #156]	; 0x9c
   14b84:	400f      	ands	r7, r1
   14b86:	9922      	ldr	r1, [sp, #136]	; 0x88
   14b88:	4688      	mov	r8, r1
   14b8a:	9923      	ldr	r1, [sp, #140]	; 0x8c
   14b8c:	ea08 0901 	and.w	r9, r8, r1
   14b90:	9928      	ldr	r1, [sp, #160]	; 0xa0
   14b92:	4688      	mov	r8, r1
   14b94:	9924      	ldr	r1, [sp, #144]	; 0x90
   14b96:	ea08 0801 	and.w	r8, r8, r1
   14b9a:	4649      	mov	r1, r9
   14b9c:	4331      	orrs	r1, r6
   14b9e:	ea47 0808 	orr.w	r8, r7, r8
   14ba2:	9e2c      	ldr	r6, [sp, #176]	; 0xb0
   14ba4:	eb1e 0101 	adds.w	r1, lr, r1
   14ba8:	eb4c 0808 	adc.w	r8, ip, r8
   14bac:	188a      	adds	r2, r1, r2
   14bae:	9225      	str	r2, [sp, #148]	; 0x94
   14bb0:	eb40 0208 	adc.w	r2, r0, r8
   14bb4:	9226      	str	r2, [sp, #152]	; 0x98
   14bb6:	9a2c      	ldr	r2, [sp, #176]	; 0xb0
   14bb8:	ea4f 3c92 	mov.w	ip, r2, lsr #14
   14bbc:	9a2d      	ldr	r2, [sp, #180]	; 0xb4
   14bbe:	ea4c 4c82 	orr.w	ip, ip, r2, lsl #18
   14bc2:	0b90      	lsrs	r0, r2, #14
   14bc4:	9a2c      	ldr	r2, [sp, #176]	; 0xb0
   14bc6:	ea40 4082 	orr.w	r0, r0, r2, lsl #18
   14bca:	0c91      	lsrs	r1, r2, #18
   14bcc:	9a2d      	ldr	r2, [sp, #180]	; 0xb4
   14bce:	ea41 3182 	orr.w	r1, r1, r2, lsl #14
   14bd2:	0c92      	lsrs	r2, r2, #18
   14bd4:	ea8c 0c01 	eor.w	ip, ip, r1
   14bd8:	4631      	mov	r1, r6
   14bda:	ea42 3286 	orr.w	r2, r2, r6, lsl #14
   14bde:	9e2d      	ldr	r6, [sp, #180]	; 0xb4
   14be0:	4050      	eors	r0, r2
   14be2:	9a2d      	ldr	r2, [sp, #180]	; 0xb4
   14be4:	05d2      	lsls	r2, r2, #23
   14be6:	ea42 2251 	orr.w	r2, r2, r1, lsr #9
   14bea:	05c9      	lsls	r1, r1, #23
   14bec:	4042      	eors	r2, r0
   14bee:	ea41 2156 	orr.w	r1, r1, r6, lsr #9
   14bf2:	9231      	str	r2, [sp, #196]	; 0xc4
   14bf4:	ea8c 0c01 	eor.w	ip, ip, r1
   14bf8:	e9dd 2129 	ldrd	r2, r1, [sp, #164]	; 0xa4
   14bfc:	9e2b      	ldr	r6, [sp, #172]	; 0xac
   14bfe:	982e      	ldr	r0, [sp, #184]	; 0xb8
   14c00:	404a      	eors	r2, r1
   14c02:	992f      	ldr	r1, [sp, #188]	; 0xbc
   14c04:	ea81 0706 	eor.w	r7, r1, r6
   14c08:	992c      	ldr	r1, [sp, #176]	; 0xb0
   14c0a:	6bde      	ldr	r6, [r3, #60]	; 0x3c
   14c0c:	400a      	ands	r2, r1
   14c0e:	992d      	ldr	r1, [sp, #180]	; 0xb4
   14c10:	400f      	ands	r7, r1
   14c12:	9929      	ldr	r1, [sp, #164]	; 0xa4
   14c14:	404a      	eors	r2, r1
   14c16:	992f      	ldr	r1, [sp, #188]	; 0xbc
   14c18:	404f      	eors	r7, r1
   14c1a:	6b99      	ldr	r1, [r3, #56]	; 0x38
   14c1c:	1841      	adds	r1, r0, r1
   14c1e:	9830      	ldr	r0, [sp, #192]	; 0xc0
   14c20:	eb40 0606 	adc.w	r6, r0, r6
   14c24:	1852      	adds	r2, r2, r1
   14c26:	9901      	ldr	r1, [sp, #4]
   14c28:	eb47 0706 	adc.w	r7, r7, r6
   14c2c:	2900      	cmp	r1, #0
   14c2e:	f001 8094 	beq.w	15d5a <_Transform_Sha512+0x1f62>
   14c32:	980b      	ldr	r0, [sp, #44]	; 0x2c
   14c34:	991b      	ldr	r1, [sp, #108]	; 0x6c
   14c36:	0a06      	lsrs	r6, r0, #8
   14c38:	ea4f 0851 	mov.w	r8, r1, lsr #1
   14c3c:	990b      	ldr	r1, [sp, #44]	; 0x2c
   14c3e:	ea48 78c1 	orr.w	r8, r8, r1, lsl #31
   14c42:	ea4f 0e51 	mov.w	lr, r1, lsr #1
   14c46:	991b      	ldr	r1, [sp, #108]	; 0x6c
   14c48:	ea4e 7ec1 	orr.w	lr, lr, r1, lsl #31
   14c4c:	0a09      	lsrs	r1, r1, #8
   14c4e:	ea41 6100 	orr.w	r1, r1, r0, lsl #24
   14c52:	981b      	ldr	r0, [sp, #108]	; 0x6c
   14c54:	ea88 0101 	eor.w	r1, r8, r1
   14c58:	ea46 6600 	orr.w	r6, r6, r0, lsl #24
   14c5c:	ea4f 18d0 	mov.w	r8, r0, lsr #7
   14c60:	980b      	ldr	r0, [sp, #44]	; 0x2c
   14c62:	ea8e 0606 	eor.w	r6, lr, r6
   14c66:	ea48 6840 	orr.w	r8, r8, r0, lsl #25
   14c6a:	ea86 16d0 	eor.w	r6, r6, r0, lsr #7
   14c6e:	9816      	ldr	r0, [sp, #88]	; 0x58
   14c70:	ea81 0108 	eor.w	r1, r1, r8
   14c74:	1809      	adds	r1, r1, r0
   14c76:	9806      	ldr	r0, [sp, #24]
   14c78:	eb40 0606 	adc.w	r6, r0, r6
   14c7c:	9818      	ldr	r0, [sp, #96]	; 0x60
   14c7e:	1809      	adds	r1, r1, r0
   14c80:	9808      	ldr	r0, [sp, #32]
   14c82:	eb40 0606 	adc.w	r6, r0, r6
   14c86:	9814      	ldr	r0, [sp, #80]	; 0x50
   14c88:	ea4f 4ad0 	mov.w	sl, r0, lsr #19
   14c8c:	9804      	ldr	r0, [sp, #16]
   14c8e:	ea4a 3a40 	orr.w	sl, sl, r0, lsl #13
   14c92:	ea4f 4ed0 	mov.w	lr, r0, lsr #19
   14c96:	9814      	ldr	r0, [sp, #80]	; 0x50
   14c98:	ea4e 3e40 	orr.w	lr, lr, r0, lsl #13
   14c9c:	9804      	ldr	r0, [sp, #16]
   14c9e:	ea4f 09c0 	mov.w	r9, r0, lsl #3
   14ca2:	9814      	ldr	r0, [sp, #80]	; 0x50
   14ca4:	ea49 7950 	orr.w	r9, r9, r0, lsr #29
   14ca8:	ea4f 08c0 	mov.w	r8, r0, lsl #3
   14cac:	9804      	ldr	r0, [sp, #16]
   14cae:	ea8e 0e09 	eor.w	lr, lr, r9
   14cb2:	ea48 7850 	orr.w	r8, r8, r0, lsr #29
   14cb6:	9814      	ldr	r0, [sp, #80]	; 0x50
   14cb8:	ea8a 0808 	eor.w	r8, sl, r8
   14cbc:	ea4f 1a90 	mov.w	sl, r0, lsr #6
   14cc0:	9804      	ldr	r0, [sp, #16]
   14cc2:	ea4a 6a80 	orr.w	sl, sl, r0, lsl #26
   14cc6:	ea8e 1e90 	eor.w	lr, lr, r0, lsr #6
   14cca:	ea88 080a 	eor.w	r8, r8, sl
   14cce:	eb11 0108 	adds.w	r1, r1, r8
   14cd2:	9116      	str	r1, [sp, #88]	; 0x58
   14cd4:	eb46 010e 	adc.w	r1, r6, lr
   14cd8:	9106      	str	r1, [sp, #24]
   14cda:	eb1c 0202 	adds.w	r2, ip, r2
   14cde:	9931      	ldr	r1, [sp, #196]	; 0xc4
   14ce0:	eb41 0007 	adc.w	r0, r1, r7
   14ce4:	9916      	ldr	r1, [sp, #88]	; 0x58
   14ce6:	eb12 0901 	adds.w	r9, r2, r1
   14cea:	9906      	ldr	r1, [sp, #24]
   14cec:	9a25      	ldr	r2, [sp, #148]	; 0x94
   14cee:	eb41 0000 	adc.w	r0, r1, r0
   14cf2:	eb1b 0109 	adds.w	r1, fp, r9
   14cf6:	912e      	str	r1, [sp, #184]	; 0xb8
   14cf8:	9927      	ldr	r1, [sp, #156]	; 0x9c
   14cfa:	eb41 0100 	adc.w	r1, r1, r0
   14cfe:	9130      	str	r1, [sp, #192]	; 0xc0
   14d00:	9926      	ldr	r1, [sp, #152]	; 0x98
   14d02:	078e      	lsls	r6, r1, #30
   14d04:	9925      	ldr	r1, [sp, #148]	; 0x94
   14d06:	ea46 0691 	orr.w	r6, r6, r1, lsr #2
   14d0a:	ea4f 7e81 	mov.w	lr, r1, lsl #30
   14d0e:	9926      	ldr	r1, [sp, #152]	; 0x98
   14d10:	ea4e 0e91 	orr.w	lr, lr, r1, lsr #2
   14d14:	9925      	ldr	r1, [sp, #148]	; 0x94
   14d16:	0f0f      	lsrs	r7, r1, #28
   14d18:	9926      	ldr	r1, [sp, #152]	; 0x98
   14d1a:	ea47 1701 	orr.w	r7, r7, r1, lsl #4
   14d1e:	0f09      	lsrs	r1, r1, #28
   14d20:	ea8e 0e07 	eor.w	lr, lr, r7
   14d24:	ea41 1102 	orr.w	r1, r1, r2, lsl #4
   14d28:	9a26      	ldr	r2, [sp, #152]	; 0x98
   14d2a:	404e      	eors	r6, r1
   14d2c:	0651      	lsls	r1, r2, #25
   14d2e:	9a25      	ldr	r2, [sp, #148]	; 0x94
   14d30:	ea41 11d2 	orr.w	r1, r1, r2, lsr #7
   14d34:	0657      	lsls	r7, r2, #25
   14d36:	404e      	eors	r6, r1
   14d38:	e9dd 1225 	ldrd	r1, r2, [sp, #148]	; 0x94
   14d3c:	ea47 17d2 	orr.w	r7, r7, r2, lsr #7
   14d40:	9a23      	ldr	r2, [sp, #140]	; 0x8c
   14d42:	ea8e 0e07 	eor.w	lr, lr, r7
   14d46:	ea42 0701 	orr.w	r7, r2, r1
   14d4a:	9a24      	ldr	r2, [sp, #144]	; 0x90
   14d4c:	9926      	ldr	r1, [sp, #152]	; 0x98
   14d4e:	ea42 0c01 	orr.w	ip, r2, r1
   14d52:	9a22      	ldr	r2, [sp, #136]	; 0x88
   14d54:	9925      	ldr	r1, [sp, #148]	; 0x94
   14d56:	4017      	ands	r7, r2
   14d58:	9a28      	ldr	r2, [sp, #160]	; 0xa0
   14d5a:	ea0c 0c02 	and.w	ip, ip, r2
   14d5e:	9a23      	ldr	r2, [sp, #140]	; 0x8c
   14d60:	4011      	ands	r1, r2
   14d62:	9a24      	ldr	r2, [sp, #144]	; 0x90
   14d64:	4339      	orrs	r1, r7
   14d66:	eb1e 0101 	adds.w	r1, lr, r1
   14d6a:	4690      	mov	r8, r2
   14d6c:	9a26      	ldr	r2, [sp, #152]	; 0x98
   14d6e:	ea08 0802 	and.w	r8, r8, r2
   14d72:	ea4c 0808 	orr.w	r8, ip, r8
   14d76:	eb46 0808 	adc.w	r8, r6, r8
   14d7a:	eb11 0b09 	adds.w	fp, r1, r9
   14d7e:	9e2e      	ldr	r6, [sp, #184]	; 0xb8
   14d80:	eb40 0208 	adc.w	r2, r0, r8
   14d84:	9227      	str	r2, [sp, #156]	; 0x9c
   14d86:	9a2e      	ldr	r2, [sp, #184]	; 0xb8
   14d88:	ea4f 3c92 	mov.w	ip, r2, lsr #14
   14d8c:	9a30      	ldr	r2, [sp, #192]	; 0xc0
   14d8e:	ea4c 4c82 	orr.w	ip, ip, r2, lsl #18
   14d92:	0b90      	lsrs	r0, r2, #14
   14d94:	9a2e      	ldr	r2, [sp, #184]	; 0xb8
   14d96:	ea40 4082 	orr.w	r0, r0, r2, lsl #18
   14d9a:	0c91      	lsrs	r1, r2, #18
   14d9c:	9a30      	ldr	r2, [sp, #192]	; 0xc0
   14d9e:	ea41 3182 	orr.w	r1, r1, r2, lsl #14
   14da2:	0c92      	lsrs	r2, r2, #18
   14da4:	ea8c 0c01 	eor.w	ip, ip, r1
   14da8:	4631      	mov	r1, r6
   14daa:	ea42 3286 	orr.w	r2, r2, r6, lsl #14
   14dae:	4050      	eors	r0, r2
   14db0:	9a30      	ldr	r2, [sp, #192]	; 0xc0
   14db2:	9e30      	ldr	r6, [sp, #192]	; 0xc0
   14db4:	05d2      	lsls	r2, r2, #23
   14db6:	ea42 2251 	orr.w	r2, r2, r1, lsr #9
   14dba:	05c9      	lsls	r1, r1, #23
   14dbc:	4042      	eors	r2, r0
   14dbe:	9829      	ldr	r0, [sp, #164]	; 0xa4
   14dc0:	ea41 2156 	orr.w	r1, r1, r6, lsr #9
   14dc4:	9231      	str	r2, [sp, #196]	; 0xc4
   14dc6:	ea8c 0c01 	eor.w	ip, ip, r1
   14dca:	9a2a      	ldr	r2, [sp, #168]	; 0xa8
   14dcc:	e9dd 162c 	ldrd	r1, r6, [sp, #176]	; 0xb0
   14dd0:	404a      	eors	r2, r1
   14dd2:	992b      	ldr	r1, [sp, #172]	; 0xac
   14dd4:	ea81 0706 	eor.w	r7, r1, r6
   14dd8:	992e      	ldr	r1, [sp, #184]	; 0xb8
   14dda:	6c5e      	ldr	r6, [r3, #68]	; 0x44
   14ddc:	400a      	ands	r2, r1
   14dde:	9930      	ldr	r1, [sp, #192]	; 0xc0
   14de0:	400f      	ands	r7, r1
   14de2:	992a      	ldr	r1, [sp, #168]	; 0xa8
   14de4:	404a      	eors	r2, r1
   14de6:	992b      	ldr	r1, [sp, #172]	; 0xac
   14de8:	404f      	eors	r7, r1
   14dea:	6c19      	ldr	r1, [r3, #64]	; 0x40
   14dec:	1841      	adds	r1, r0, r1
   14dee:	982f      	ldr	r0, [sp, #188]	; 0xbc
   14df0:	eb40 0606 	adc.w	r6, r0, r6
   14df4:	1852      	adds	r2, r2, r1
   14df6:	9901      	ldr	r1, [sp, #4]
   14df8:	eb47 0706 	adc.w	r7, r7, r6
   14dfc:	2900      	cmp	r1, #0
   14dfe:	f000 87b1 	beq.w	15d64 <_Transform_Sha512+0x1f6c>
   14e02:	980c      	ldr	r0, [sp, #48]	; 0x30
   14e04:	991c      	ldr	r1, [sp, #112]	; 0x70
   14e06:	0846      	lsrs	r6, r0, #1
   14e08:	ea4f 2811 	mov.w	r8, r1, lsr #8
   14e0c:	990c      	ldr	r1, [sp, #48]	; 0x30
   14e0e:	ea48 6801 	orr.w	r8, r8, r1, lsl #24
   14e12:	ea4f 2e11 	mov.w	lr, r1, lsr #8
   14e16:	991c      	ldr	r1, [sp, #112]	; 0x70
   14e18:	ea4e 6e01 	orr.w	lr, lr, r1, lsl #24
   14e1c:	0849      	lsrs	r1, r1, #1
   14e1e:	ea41 71c0 	orr.w	r1, r1, r0, lsl #31
   14e22:	981c      	ldr	r0, [sp, #112]	; 0x70
   14e24:	ea88 0101 	eor.w	r1, r8, r1
   14e28:	ea46 76c0 	orr.w	r6, r6, r0, lsl #31
   14e2c:	ea4f 18d0 	mov.w	r8, r0, lsr #7
   14e30:	980c      	ldr	r0, [sp, #48]	; 0x30
   14e32:	ea8e 0606 	eor.w	r6, lr, r6
   14e36:	ea48 6840 	orr.w	r8, r8, r0, lsl #25
   14e3a:	ea86 16d0 	eor.w	r6, r6, r0, lsr #7
   14e3e:	981b      	ldr	r0, [sp, #108]	; 0x6c
   14e40:	ea81 0108 	eor.w	r1, r1, r8
   14e44:	1809      	adds	r1, r1, r0
   14e46:	980b      	ldr	r0, [sp, #44]	; 0x2c
   14e48:	eb40 0606 	adc.w	r6, r0, r6
   14e4c:	9819      	ldr	r0, [sp, #100]	; 0x64
   14e4e:	1809      	adds	r1, r1, r0
   14e50:	9809      	ldr	r0, [sp, #36]	; 0x24
   14e52:	eb40 0606 	adc.w	r6, r0, r6
   14e56:	9805      	ldr	r0, [sp, #20]
   14e58:	ea4f 0ec0 	mov.w	lr, r0, lsl #3
   14e5c:	9815      	ldr	r0, [sp, #84]	; 0x54
   14e5e:	ea4e 7e50 	orr.w	lr, lr, r0, lsr #29
   14e62:	ea4f 0ac0 	mov.w	sl, r0, lsl #3
   14e66:	9805      	ldr	r0, [sp, #20]
   14e68:	ea4a 7a50 	orr.w	sl, sl, r0, lsr #29
   14e6c:	9815      	ldr	r0, [sp, #84]	; 0x54
   14e6e:	ea4f 48d0 	mov.w	r8, r0, lsr #19
   14e72:	9805      	ldr	r0, [sp, #20]
   14e74:	ea48 3840 	orr.w	r8, r8, r0, lsl #13
   14e78:	ea4f 49d0 	mov.w	r9, r0, lsr #19
   14e7c:	9815      	ldr	r0, [sp, #84]	; 0x54
   14e7e:	ea8a 0808 	eor.w	r8, sl, r8
   14e82:	ea49 3940 	orr.w	r9, r9, r0, lsl #13
   14e86:	ea4f 1a90 	mov.w	sl, r0, lsr #6
   14e8a:	9805      	ldr	r0, [sp, #20]
   14e8c:	ea8e 0e09 	eor.w	lr, lr, r9
   14e90:	ea4a 6a80 	orr.w	sl, sl, r0, lsl #26
   14e94:	ea8e 1e90 	eor.w	lr, lr, r0, lsr #6
   14e98:	ea88 080a 	eor.w	r8, r8, sl
   14e9c:	eb11 0108 	adds.w	r1, r1, r8
   14ea0:	911b      	str	r1, [sp, #108]	; 0x6c
   14ea2:	eb46 010e 	adc.w	r1, r6, lr
   14ea6:	910b      	str	r1, [sp, #44]	; 0x2c
   14ea8:	eb1c 0202 	adds.w	r2, ip, r2
   14eac:	ea4f 7e8b 	mov.w	lr, fp, lsl #30
   14eb0:	9931      	ldr	r1, [sp, #196]	; 0xc4
   14eb2:	eb41 0007 	adc.w	r0, r1, r7
   14eb6:	991b      	ldr	r1, [sp, #108]	; 0x6c
   14eb8:	ea4f 771b 	mov.w	r7, fp, lsr #28
   14ebc:	eb12 0901 	adds.w	r9, r2, r1
   14ec0:	990b      	ldr	r1, [sp, #44]	; 0x2c
   14ec2:	9a27      	ldr	r2, [sp, #156]	; 0x9c
   14ec4:	eb41 0000 	adc.w	r0, r1, r0
   14ec8:	9922      	ldr	r1, [sp, #136]	; 0x88
   14eca:	eb11 0109 	adds.w	r1, r1, r9
   14ece:	9131      	str	r1, [sp, #196]	; 0xc4
   14ed0:	9928      	ldr	r1, [sp, #160]	; 0xa0
   14ed2:	eb41 0100 	adc.w	r1, r1, r0
   14ed6:	9128      	str	r1, [sp, #160]	; 0xa0
   14ed8:	9927      	ldr	r1, [sp, #156]	; 0x9c
   14eda:	ea47 1701 	orr.w	r7, r7, r1, lsl #4
   14ede:	078e      	lsls	r6, r1, #30
   14ee0:	ea4e 0e91 	orr.w	lr, lr, r1, lsr #2
   14ee4:	0f09      	lsrs	r1, r1, #28
   14ee6:	ea46 069b 	orr.w	r6, r6, fp, lsr #2
   14eea:	ea8e 0e07 	eor.w	lr, lr, r7
   14eee:	ea41 110b 	orr.w	r1, r1, fp, lsl #4
   14ef2:	ea4f 674b 	mov.w	r7, fp, lsl #25
   14ef6:	404e      	eors	r6, r1
   14ef8:	9927      	ldr	r1, [sp, #156]	; 0x9c
   14efa:	ea47 17d2 	orr.w	r7, r7, r2, lsr #7
   14efe:	9a25      	ldr	r2, [sp, #148]	; 0x94
   14f00:	ea8e 0e07 	eor.w	lr, lr, r7
   14f04:	0649      	lsls	r1, r1, #25
   14f06:	ea41 11db 	orr.w	r1, r1, fp, lsr #7
   14f0a:	ea42 070b 	orr.w	r7, r2, fp
   14f0e:	404e      	eors	r6, r1
   14f10:	e9dd 2126 	ldrd	r2, r1, [sp, #152]	; 0x98
   14f14:	ea42 0c01 	orr.w	ip, r2, r1
   14f18:	9a23      	ldr	r2, [sp, #140]	; 0x8c
   14f1a:	4017      	ands	r7, r2
   14f1c:	9a24      	ldr	r2, [sp, #144]	; 0x90
   14f1e:	ea0c 0c02 	and.w	ip, ip, r2
   14f22:	9a25      	ldr	r2, [sp, #148]	; 0x94
   14f24:	ea02 010b 	and.w	r1, r2, fp
   14f28:	9a26      	ldr	r2, [sp, #152]	; 0x98
   14f2a:	4339      	orrs	r1, r7
   14f2c:	eb1e 0101 	adds.w	r1, lr, r1
   14f30:	4690      	mov	r8, r2
   14f32:	9a27      	ldr	r2, [sp, #156]	; 0x9c
   14f34:	ea08 0802 	and.w	r8, r8, r2
   14f38:	ea4c 0808 	orr.w	r8, ip, r8
   14f3c:	eb46 0808 	adc.w	r8, r6, r8
   14f40:	eb11 0209 	adds.w	r2, r1, r9
   14f44:	6cde      	ldr	r6, [r3, #76]	; 0x4c
   14f46:	9222      	str	r2, [sp, #136]	; 0x88
   14f48:	eb40 0208 	adc.w	r2, r0, r8
   14f4c:	9831      	ldr	r0, [sp, #196]	; 0xc4
   14f4e:	9229      	str	r2, [sp, #164]	; 0xa4
   14f50:	9a31      	ldr	r2, [sp, #196]	; 0xc4
   14f52:	0c97      	lsrs	r7, r2, #18
   14f54:	9a28      	ldr	r2, [sp, #160]	; 0xa0
   14f56:	ea47 3782 	orr.w	r7, r7, r2, lsl #14
   14f5a:	ea4f 4c92 	mov.w	ip, r2, lsr #18
   14f5e:	9a31      	ldr	r2, [sp, #196]	; 0xc4
   14f60:	ea4c 3c82 	orr.w	ip, ip, r2, lsl #14
   14f64:	0b91      	lsrs	r1, r2, #14
   14f66:	9a28      	ldr	r2, [sp, #160]	; 0xa0
   14f68:	ea41 4182 	orr.w	r1, r1, r2, lsl #18
   14f6c:	0b92      	lsrs	r2, r2, #14
   14f6e:	404f      	eors	r7, r1
   14f70:	4601      	mov	r1, r0
   14f72:	ea42 4280 	orr.w	r2, r2, r0, lsl #18
   14f76:	9828      	ldr	r0, [sp, #160]	; 0xa0
   14f78:	ea8c 0c02 	eor.w	ip, ip, r2
   14f7c:	9a28      	ldr	r2, [sp, #160]	; 0xa0
   14f7e:	05d2      	lsls	r2, r2, #23
   14f80:	ea42 2251 	orr.w	r2, r2, r1, lsr #9
   14f84:	05c9      	lsls	r1, r1, #23
   14f86:	ea8c 0c02 	eor.w	ip, ip, r2
   14f8a:	9a2a      	ldr	r2, [sp, #168]	; 0xa8
   14f8c:	ea41 2150 	orr.w	r1, r1, r0, lsr #9
   14f90:	4079      	eors	r1, r7
   14f92:	912f      	str	r1, [sp, #188]	; 0xbc
   14f94:	6c99      	ldr	r1, [r3, #72]	; 0x48
   14f96:	1851      	adds	r1, r2, r1
   14f98:	9a2b      	ldr	r2, [sp, #172]	; 0xac
   14f9a:	982e      	ldr	r0, [sp, #184]	; 0xb8
   14f9c:	eb42 0606 	adc.w	r6, r2, r6
   14fa0:	9a2c      	ldr	r2, [sp, #176]	; 0xb0
   14fa2:	4050      	eors	r0, r2
   14fa4:	9a2d      	ldr	r2, [sp, #180]	; 0xb4
   14fa6:	4617      	mov	r7, r2
   14fa8:	9a30      	ldr	r2, [sp, #192]	; 0xc0
   14faa:	407a      	eors	r2, r7
   14fac:	9f31      	ldr	r7, [sp, #196]	; 0xc4
   14fae:	4038      	ands	r0, r7
   14fb0:	9f28      	ldr	r7, [sp, #160]	; 0xa0
   14fb2:	403a      	ands	r2, r7
   14fb4:	9f2c      	ldr	r7, [sp, #176]	; 0xb0
   14fb6:	4078      	eors	r0, r7
   14fb8:	9f2d      	ldr	r7, [sp, #180]	; 0xb4
   14fba:	1809      	adds	r1, r1, r0
   14fbc:	ea82 0207 	eor.w	r2, r2, r7
   14fc0:	eb46 0602 	adc.w	r6, r6, r2
   14fc4:	9a01      	ldr	r2, [sp, #4]
   14fc6:	2a00      	cmp	r2, #0
   14fc8:	f000 86d3 	beq.w	15d72 <_Transform_Sha512+0x1f7a>
   14fcc:	980d      	ldr	r0, [sp, #52]	; 0x34
   14fce:	9a1d      	ldr	r2, [sp, #116]	; 0x74
   14fd0:	9f1d      	ldr	r7, [sp, #116]	; 0x74
   14fd2:	ea4f 2812 	mov.w	r8, r2, lsr #8
   14fd6:	9a0d      	ldr	r2, [sp, #52]	; 0x34
   14fd8:	ea48 6802 	orr.w	r8, r8, r2, lsl #24
   14fdc:	ea4f 2e12 	mov.w	lr, r2, lsr #8
   14fe0:	9a1d      	ldr	r2, [sp, #116]	; 0x74
   14fe2:	ea4e 6e02 	orr.w	lr, lr, r2, lsl #24
   14fe6:	0852      	lsrs	r2, r2, #1
   14fe8:	ea42 72c0 	orr.w	r2, r2, r0, lsl #31
   14fec:	0840      	lsrs	r0, r0, #1
   14fee:	ea88 0202 	eor.w	r2, r8, r2
   14ff2:	ea4f 18d7 	mov.w	r8, r7, lsr #7
   14ff6:	ea40 70c7 	orr.w	r0, r0, r7, lsl #31
   14ffa:	9f0d      	ldr	r7, [sp, #52]	; 0x34
   14ffc:	ea8e 0000 	eor.w	r0, lr, r0
   15000:	ea48 6847 	orr.w	r8, r8, r7, lsl #25
   15004:	ea80 10d7 	eor.w	r0, r0, r7, lsr #7
   15008:	9f1c      	ldr	r7, [sp, #112]	; 0x70
   1500a:	ea82 0208 	eor.w	r2, r2, r8
   1500e:	19d2      	adds	r2, r2, r7
   15010:	9f0c      	ldr	r7, [sp, #48]	; 0x30
   15012:	eb47 0000 	adc.w	r0, r7, r0
   15016:	9f17      	ldr	r7, [sp, #92]	; 0x5c
   15018:	19d2      	adds	r2, r2, r7
   1501a:	9f07      	ldr	r7, [sp, #28]
   1501c:	eb47 0000 	adc.w	r0, r7, r0
   15020:	9f06      	ldr	r7, [sp, #24]
   15022:	ea4f 0ec7 	mov.w	lr, r7, lsl #3
   15026:	9f16      	ldr	r7, [sp, #88]	; 0x58
   15028:	ea4e 7e57 	orr.w	lr, lr, r7, lsr #29
   1502c:	ea4f 0ac7 	mov.w	sl, r7, lsl #3
   15030:	9f06      	ldr	r7, [sp, #24]
   15032:	ea4a 7a57 	orr.w	sl, sl, r7, lsr #29
   15036:	9f16      	ldr	r7, [sp, #88]	; 0x58
   15038:	ea4f 48d7 	mov.w	r8, r7, lsr #19
   1503c:	9f06      	ldr	r7, [sp, #24]
   1503e:	ea48 3847 	orr.w	r8, r8, r7, lsl #13
   15042:	ea4f 49d7 	mov.w	r9, r7, lsr #19
   15046:	9f16      	ldr	r7, [sp, #88]	; 0x58
   15048:	ea8a 0808 	eor.w	r8, sl, r8
   1504c:	ea49 3947 	orr.w	r9, r9, r7, lsl #13
   15050:	ea4f 1a97 	mov.w	sl, r7, lsr #6
   15054:	9f06      	ldr	r7, [sp, #24]
   15056:	ea8e 0e09 	eor.w	lr, lr, r9
   1505a:	ea4a 6a87 	orr.w	sl, sl, r7, lsl #26
   1505e:	ea8e 1e97 	eor.w	lr, lr, r7, lsr #6
   15062:	ea88 080a 	eor.w	r8, r8, sl
   15066:	eb12 0208 	adds.w	r2, r2, r8
   1506a:	921c      	str	r2, [sp, #112]	; 0x70
   1506c:	eb40 020e 	adc.w	r2, r0, lr
   15070:	920c      	str	r2, [sp, #48]	; 0x30
   15072:	9a2f      	ldr	r2, [sp, #188]	; 0xbc
   15074:	1889      	adds	r1, r1, r2
   15076:	9a1c      	ldr	r2, [sp, #112]	; 0x70
   15078:	eb46 060c 	adc.w	r6, r6, ip
   1507c:	eb11 0902 	adds.w	r9, r1, r2
   15080:	9a0c      	ldr	r2, [sp, #48]	; 0x30
   15082:	9922      	ldr	r1, [sp, #136]	; 0x88
   15084:	eb42 0606 	adc.w	r6, r2, r6
   15088:	9a23      	ldr	r2, [sp, #140]	; 0x8c
   1508a:	eb12 0209 	adds.w	r2, r2, r9
   1508e:	922a      	str	r2, [sp, #168]	; 0xa8
   15090:	9a24      	ldr	r2, [sp, #144]	; 0x90
   15092:	eb42 0206 	adc.w	r2, r2, r6
   15096:	922b      	str	r2, [sp, #172]	; 0xac
   15098:	9a29      	ldr	r2, [sp, #164]	; 0xa4
   1509a:	0790      	lsls	r0, r2, #30
   1509c:	9a22      	ldr	r2, [sp, #136]	; 0x88
   1509e:	ea40 0092 	orr.w	r0, r0, r2, lsr #2
   150a2:	ea4f 7e82 	mov.w	lr, r2, lsl #30
   150a6:	9a29      	ldr	r2, [sp, #164]	; 0xa4
   150a8:	ea4e 0e92 	orr.w	lr, lr, r2, lsr #2
   150ac:	9a22      	ldr	r2, [sp, #136]	; 0x88
   150ae:	0f17      	lsrs	r7, r2, #28
   150b0:	9a29      	ldr	r2, [sp, #164]	; 0xa4
   150b2:	ea47 1702 	orr.w	r7, r7, r2, lsl #4
   150b6:	0f12      	lsrs	r2, r2, #28
   150b8:	ea8e 0e07 	eor.w	lr, lr, r7
   150bc:	064f      	lsls	r7, r1, #25
   150be:	ea42 1201 	orr.w	r2, r2, r1, lsl #4
   150c2:	4050      	eors	r0, r2
   150c4:	9a29      	ldr	r2, [sp, #164]	; 0xa4
   150c6:	0652      	lsls	r2, r2, #25
   150c8:	ea42 12d1 	orr.w	r2, r2, r1, lsr #7
   150cc:	9929      	ldr	r1, [sp, #164]	; 0xa4
   150ce:	4050      	eors	r0, r2
   150d0:	9a22      	ldr	r2, [sp, #136]	; 0x88
   150d2:	ea47 17d1 	orr.w	r7, r7, r1, lsr #7
   150d6:	ea4b 0c02 	orr.w	ip, fp, r2
   150da:	9a27      	ldr	r2, [sp, #156]	; 0x9c
   150dc:	ea8e 0e07 	eor.w	lr, lr, r7
   150e0:	ea42 0701 	orr.w	r7, r2, r1
   150e4:	9a25      	ldr	r2, [sp, #148]	; 0x94
   150e6:	9927      	ldr	r1, [sp, #156]	; 0x9c
   150e8:	ea0c 0c02 	and.w	ip, ip, r2
   150ec:	9a26      	ldr	r2, [sp, #152]	; 0x98
   150ee:	4688      	mov	r8, r1
   150f0:	9929      	ldr	r1, [sp, #164]	; 0xa4
   150f2:	4017      	ands	r7, r2
   150f4:	9a22      	ldr	r2, [sp, #136]	; 0x88
   150f6:	ea08 0801 	and.w	r8, r8, r1
   150fa:	ea47 0808 	orr.w	r8, r7, r8
   150fe:	ea0b 0202 	and.w	r2, fp, r2
   15102:	ea4c 0202 	orr.w	r2, ip, r2
   15106:	eb1e 0202 	adds.w	r2, lr, r2
   1510a:	eb40 0808 	adc.w	r8, r0, r8
   1510e:	eb12 0209 	adds.w	r2, r2, r9
   15112:	982a      	ldr	r0, [sp, #168]	; 0xa8
   15114:	9223      	str	r2, [sp, #140]	; 0x8c
   15116:	eb46 0208 	adc.w	r2, r6, r8
   1511a:	9224      	str	r2, [sp, #144]	; 0x90
   1511c:	9a2a      	ldr	r2, [sp, #168]	; 0xa8
   1511e:	0c97      	lsrs	r7, r2, #18
   15120:	9a2b      	ldr	r2, [sp, #172]	; 0xac
   15122:	ea47 3782 	orr.w	r7, r7, r2, lsl #14
   15126:	ea4f 4c92 	mov.w	ip, r2, lsr #18
   1512a:	9a2a      	ldr	r2, [sp, #168]	; 0xa8
   1512c:	ea4c 3c82 	orr.w	ip, ip, r2, lsl #14
   15130:	0b91      	lsrs	r1, r2, #14
   15132:	9a2b      	ldr	r2, [sp, #172]	; 0xac
   15134:	ea41 4182 	orr.w	r1, r1, r2, lsl #18
   15138:	0b92      	lsrs	r2, r2, #14
   1513a:	404f      	eors	r7, r1
   1513c:	4601      	mov	r1, r0
   1513e:	ea42 4280 	orr.w	r2, r2, r0, lsl #18
   15142:	982b      	ldr	r0, [sp, #172]	; 0xac
   15144:	ea8c 0c02 	eor.w	ip, ip, r2
   15148:	9a2b      	ldr	r2, [sp, #172]	; 0xac
   1514a:	05d2      	lsls	r2, r2, #23
   1514c:	ea42 2251 	orr.w	r2, r2, r1, lsr #9
   15150:	05c9      	lsls	r1, r1, #23
   15152:	ea8c 0c02 	eor.w	ip, ip, r2
   15156:	ea41 2150 	orr.w	r1, r1, r0, lsr #9
   1515a:	404f      	eors	r7, r1
   1515c:	e9d3 1614 	ldrd	r1, r6, [r3, #80]	; 0x50
   15160:	9a2c      	ldr	r2, [sp, #176]	; 0xb0
   15162:	9831      	ldr	r0, [sp, #196]	; 0xc4
   15164:	1851      	adds	r1, r2, r1
   15166:	9a2d      	ldr	r2, [sp, #180]	; 0xb4
   15168:	eb42 0906 	adc.w	r9, r2, r6
   1516c:	9e28      	ldr	r6, [sp, #160]	; 0xa0
   1516e:	9a2e      	ldr	r2, [sp, #184]	; 0xb8
   15170:	4050      	eors	r0, r2
   15172:	9a30      	ldr	r2, [sp, #192]	; 0xc0
   15174:	4056      	eors	r6, r2
   15176:	9a2a      	ldr	r2, [sp, #168]	; 0xa8
   15178:	4010      	ands	r0, r2
   1517a:	9a2b      	ldr	r2, [sp, #172]	; 0xac
   1517c:	4016      	ands	r6, r2
   1517e:	9a2e      	ldr	r2, [sp, #184]	; 0xb8
   15180:	4050      	eors	r0, r2
   15182:	9a30      	ldr	r2, [sp, #192]	; 0xc0
   15184:	1809      	adds	r1, r1, r0
   15186:	912c      	str	r1, [sp, #176]	; 0xb0
   15188:	ea86 0202 	eor.w	r2, r6, r2
   1518c:	eb49 0602 	adc.w	r6, r9, r2
   15190:	9a01      	ldr	r2, [sp, #4]
   15192:	2a00      	cmp	r2, #0
   15194:	f000 85f4 	beq.w	15d80 <_Transform_Sha512+0x1f88>
   15198:	980e      	ldr	r0, [sp, #56]	; 0x38
   1519a:	9a1e      	ldr	r2, [sp, #120]	; 0x78
   1519c:	991e      	ldr	r1, [sp, #120]	; 0x78
   1519e:	ea4f 2812 	mov.w	r8, r2, lsr #8
   151a2:	9a0e      	ldr	r2, [sp, #56]	; 0x38
   151a4:	ea48 6802 	orr.w	r8, r8, r2, lsl #24
   151a8:	ea4f 2e12 	mov.w	lr, r2, lsr #8
   151ac:	9a1e      	ldr	r2, [sp, #120]	; 0x78
   151ae:	ea4e 6e02 	orr.w	lr, lr, r2, lsl #24
   151b2:	0852      	lsrs	r2, r2, #1
   151b4:	ea42 72c0 	orr.w	r2, r2, r0, lsl #31
   151b8:	0840      	lsrs	r0, r0, #1
   151ba:	ea88 0202 	eor.w	r2, r8, r2
   151be:	ea4f 18d1 	mov.w	r8, r1, lsr #7
   151c2:	ea40 70c1 	orr.w	r0, r0, r1, lsl #31
   151c6:	990e      	ldr	r1, [sp, #56]	; 0x38
   151c8:	ea8e 0000 	eor.w	r0, lr, r0
   151cc:	ea48 6841 	orr.w	r8, r8, r1, lsl #25
   151d0:	ea80 10d1 	eor.w	r0, r0, r1, lsr #7
   151d4:	991d      	ldr	r1, [sp, #116]	; 0x74
   151d6:	ea82 0208 	eor.w	r2, r2, r8
   151da:	1852      	adds	r2, r2, r1
   151dc:	990d      	ldr	r1, [sp, #52]	; 0x34
   151de:	eb41 0000 	adc.w	r0, r1, r0
   151e2:	9912      	ldr	r1, [sp, #72]	; 0x48
   151e4:	1852      	adds	r2, r2, r1
   151e6:	9902      	ldr	r1, [sp, #8]
   151e8:	eb41 0000 	adc.w	r0, r1, r0
   151ec:	990b      	ldr	r1, [sp, #44]	; 0x2c
   151ee:	ea4f 0ec1 	mov.w	lr, r1, lsl #3
   151f2:	991b      	ldr	r1, [sp, #108]	; 0x6c
   151f4:	ea4e 7e51 	orr.w	lr, lr, r1, lsr #29
   151f8:	ea4f 0ac1 	mov.w	sl, r1, lsl #3
   151fc:	990b      	ldr	r1, [sp, #44]	; 0x2c
   151fe:	ea4a 7a51 	orr.w	sl, sl, r1, lsr #29
   15202:	991b      	ldr	r1, [sp, #108]	; 0x6c
   15204:	ea4f 48d1 	mov.w	r8, r1, lsr #19
   15208:	990b      	ldr	r1, [sp, #44]	; 0x2c
   1520a:	ea48 3841 	orr.w	r8, r8, r1, lsl #13
   1520e:	ea4f 49d1 	mov.w	r9, r1, lsr #19
   15212:	991b      	ldr	r1, [sp, #108]	; 0x6c
   15214:	ea8a 0808 	eor.w	r8, sl, r8
   15218:	ea49 3941 	orr.w	r9, r9, r1, lsl #13
   1521c:	ea4f 1a91 	mov.w	sl, r1, lsr #6
   15220:	990b      	ldr	r1, [sp, #44]	; 0x2c
   15222:	ea8e 0e09 	eor.w	lr, lr, r9
   15226:	ea4a 6a81 	orr.w	sl, sl, r1, lsl #26
   1522a:	ea8e 1e91 	eor.w	lr, lr, r1, lsr #6
   1522e:	ea88 080a 	eor.w	r8, r8, sl
   15232:	eb12 0208 	adds.w	r2, r2, r8
   15236:	921d      	str	r2, [sp, #116]	; 0x74
   15238:	eb40 020e 	adc.w	r2, r0, lr
   1523c:	920d      	str	r2, [sp, #52]	; 0x34
   1523e:	9a2c      	ldr	r2, [sp, #176]	; 0xb0
   15240:	19d1      	adds	r1, r2, r7
   15242:	9a1d      	ldr	r2, [sp, #116]	; 0x74
   15244:	eb46 060c 	adc.w	r6, r6, ip
   15248:	9f23      	ldr	r7, [sp, #140]	; 0x8c
   1524a:	1889      	adds	r1, r1, r2
   1524c:	9a0d      	ldr	r2, [sp, #52]	; 0x34
   1524e:	eb42 0606 	adc.w	r6, r2, r6
   15252:	9a25      	ldr	r2, [sp, #148]	; 0x94
   15254:	1852      	adds	r2, r2, r1
   15256:	922c      	str	r2, [sp, #176]	; 0xb0
   15258:	9a26      	ldr	r2, [sp, #152]	; 0x98
   1525a:	eb42 0206 	adc.w	r2, r2, r6
   1525e:	922d      	str	r2, [sp, #180]	; 0xb4
   15260:	9a24      	ldr	r2, [sp, #144]	; 0x90
   15262:	ea4f 7e82 	mov.w	lr, r2, lsl #30
   15266:	9a23      	ldr	r2, [sp, #140]	; 0x8c
   15268:	ea4e 0e92 	orr.w	lr, lr, r2, lsr #2
   1526c:	ea4f 7882 	mov.w	r8, r2, lsl #30
   15270:	9a24      	ldr	r2, [sp, #144]	; 0x90
   15272:	ea48 0892 	orr.w	r8, r8, r2, lsr #2
   15276:	9a23      	ldr	r2, [sp, #140]	; 0x8c
   15278:	0f10      	lsrs	r0, r2, #28
   1527a:	9a24      	ldr	r2, [sp, #144]	; 0x90
   1527c:	ea40 1002 	orr.w	r0, r0, r2, lsl #4
   15280:	0f12      	lsrs	r2, r2, #28
   15282:	ea88 0800 	eor.w	r8, r8, r0
   15286:	4638      	mov	r0, r7
   15288:	ea42 1207 	orr.w	r2, r2, r7, lsl #4
   1528c:	9f24      	ldr	r7, [sp, #144]	; 0x90
   1528e:	ea8e 0e02 	eor.w	lr, lr, r2
   15292:	9a24      	ldr	r2, [sp, #144]	; 0x90
   15294:	0652      	lsls	r2, r2, #25
   15296:	ea42 12d0 	orr.w	r2, r2, r0, lsr #7
   1529a:	0640      	lsls	r0, r0, #25
   1529c:	ea8e 0e02 	eor.w	lr, lr, r2
   152a0:	ea40 10d7 	orr.w	r0, r0, r7, lsr #7
   152a4:	ea88 0800 	eor.w	r8, r8, r0
   152a8:	e9dd 2022 	ldrd	r2, r0, [sp, #136]	; 0x88
   152ac:	4310      	orrs	r0, r2
   152ae:	9a29      	ldr	r2, [sp, #164]	; 0xa4
   152b0:	ea00 000b 	and.w	r0, r0, fp
   152b4:	ea42 0907 	orr.w	r9, r2, r7
   152b8:	9f23      	ldr	r7, [sp, #140]	; 0x8c
   152ba:	9a27      	ldr	r2, [sp, #156]	; 0x9c
   152bc:	ea09 0902 	and.w	r9, r9, r2
   152c0:	9a22      	ldr	r2, [sp, #136]	; 0x88
   152c2:	403a      	ands	r2, r7
   152c4:	9f29      	ldr	r7, [sp, #164]	; 0xa4
   152c6:	4310      	orrs	r0, r2
   152c8:	eb18 0000 	adds.w	r0, r8, r0
   152cc:	46bc      	mov	ip, r7
   152ce:	9f24      	ldr	r7, [sp, #144]	; 0x90
   152d0:	ea0c 0707 	and.w	r7, ip, r7
   152d4:	ea49 0707 	orr.w	r7, r9, r7
   152d8:	eb4e 0707 	adc.w	r7, lr, r7
   152dc:	1842      	adds	r2, r0, r1
   152de:	982c      	ldr	r0, [sp, #176]	; 0xb0
   152e0:	9225      	str	r2, [sp, #148]	; 0x94
   152e2:	eb46 0207 	adc.w	r2, r6, r7
   152e6:	9226      	str	r2, [sp, #152]	; 0x98
   152e8:	9a2c      	ldr	r2, [sp, #176]	; 0xb0
   152ea:	ea4f 4992 	mov.w	r9, r2, lsr #18
   152ee:	9a2d      	ldr	r2, [sp, #180]	; 0xb4
   152f0:	ea49 3982 	orr.w	r9, r9, r2, lsl #14
   152f4:	ea4f 4e92 	mov.w	lr, r2, lsr #18
   152f8:	9a2c      	ldr	r2, [sp, #176]	; 0xb0
   152fa:	ea4e 3e82 	orr.w	lr, lr, r2, lsl #14
   152fe:	0b91      	lsrs	r1, r2, #14
   15300:	9a2d      	ldr	r2, [sp, #180]	; 0xb4
   15302:	ea41 4182 	orr.w	r1, r1, r2, lsl #18
   15306:	0b92      	lsrs	r2, r2, #14
   15308:	ea89 0901 	eor.w	r9, r9, r1
   1530c:	4601      	mov	r1, r0
   1530e:	ea42 4280 	orr.w	r2, r2, r0, lsl #18
   15312:	ea8e 0e02 	eor.w	lr, lr, r2
   15316:	9a2d      	ldr	r2, [sp, #180]	; 0xb4
   15318:	e9dd 072d 	ldrd	r0, r7, [sp, #180]	; 0xb4
   1531c:	05d2      	lsls	r2, r2, #23
   1531e:	ea42 2251 	orr.w	r2, r2, r1, lsr #9
   15322:	05c9      	lsls	r1, r1, #23
   15324:	ea8e 0e02 	eor.w	lr, lr, r2
   15328:	9a31      	ldr	r2, [sp, #196]	; 0xc4
   1532a:	ea41 2150 	orr.w	r1, r1, r0, lsr #9
   1532e:	ea89 0901 	eor.w	r9, r9, r1
   15332:	e9dd 102a 	ldrd	r1, r0, [sp, #168]	; 0xa8
   15336:	404a      	eors	r2, r1
   15338:	9928      	ldr	r1, [sp, #160]	; 0xa0
   1533a:	ea81 0600 	eor.w	r6, r1, r0
   1533e:	992c      	ldr	r1, [sp, #176]	; 0xb0
   15340:	6dd8      	ldr	r0, [r3, #92]	; 0x5c
   15342:	400a      	ands	r2, r1
   15344:	992d      	ldr	r1, [sp, #180]	; 0xb4
   15346:	400e      	ands	r6, r1
   15348:	9931      	ldr	r1, [sp, #196]	; 0xc4
   1534a:	404a      	eors	r2, r1
   1534c:	9928      	ldr	r1, [sp, #160]	; 0xa0
   1534e:	404e      	eors	r6, r1
   15350:	6d99      	ldr	r1, [r3, #88]	; 0x58
   15352:	1879      	adds	r1, r7, r1
   15354:	9f30      	ldr	r7, [sp, #192]	; 0xc0
   15356:	eb47 0000 	adc.w	r0, r7, r0
   1535a:	1852      	adds	r2, r2, r1
   1535c:	9901      	ldr	r1, [sp, #4]
   1535e:	eb46 0600 	adc.w	r6, r6, r0
   15362:	922e      	str	r2, [sp, #184]	; 0xb8
   15364:	2900      	cmp	r1, #0
   15366:	f000 8512 	beq.w	15d8e <_Transform_Sha512+0x1f96>
   1536a:	9803      	ldr	r0, [sp, #12]
   1536c:	9913      	ldr	r1, [sp, #76]	; 0x4c
   1536e:	9a13      	ldr	r2, [sp, #76]	; 0x4c
   15370:	ea4f 2c11 	mov.w	ip, r1, lsr #8
   15374:	9903      	ldr	r1, [sp, #12]
   15376:	ea4c 6c01 	orr.w	ip, ip, r1, lsl #24
   1537a:	0a0f      	lsrs	r7, r1, #8
   1537c:	9913      	ldr	r1, [sp, #76]	; 0x4c
   1537e:	ea47 6701 	orr.w	r7, r7, r1, lsl #24
   15382:	0849      	lsrs	r1, r1, #1
   15384:	ea41 71c0 	orr.w	r1, r1, r0, lsl #31
   15388:	0840      	lsrs	r0, r0, #1
   1538a:	ea8c 0101 	eor.w	r1, ip, r1
   1538e:	ea4f 1cd2 	mov.w	ip, r2, lsr #7
   15392:	ea40 70c2 	orr.w	r0, r0, r2, lsl #31
   15396:	9a03      	ldr	r2, [sp, #12]
   15398:	4078      	eors	r0, r7
   1539a:	ea4c 6c42 	orr.w	ip, ip, r2, lsl #25
   1539e:	ea80 10d2 	eor.w	r0, r0, r2, lsr #7
   153a2:	9a1e      	ldr	r2, [sp, #120]	; 0x78
   153a4:	ea81 010c 	eor.w	r1, r1, ip
   153a8:	1889      	adds	r1, r1, r2
   153aa:	9a0e      	ldr	r2, [sp, #56]	; 0x38
   153ac:	eb42 0000 	adc.w	r0, r2, r0
   153b0:	9a1a      	ldr	r2, [sp, #104]	; 0x68
   153b2:	1889      	adds	r1, r1, r2
   153b4:	9a0a      	ldr	r2, [sp, #40]	; 0x28
   153b6:	eb42 0000 	adc.w	r0, r2, r0
   153ba:	9a0c      	ldr	r2, [sp, #48]	; 0x30
   153bc:	00d7      	lsls	r7, r2, #3
   153be:	9a1c      	ldr	r2, [sp, #112]	; 0x70
   153c0:	ea47 7752 	orr.w	r7, r7, r2, lsr #29
   153c4:	ea4f 0ac2 	mov.w	sl, r2, lsl #3
   153c8:	9a0c      	ldr	r2, [sp, #48]	; 0x30
   153ca:	ea4a 7a52 	orr.w	sl, sl, r2, lsr #29
   153ce:	9a1c      	ldr	r2, [sp, #112]	; 0x70
   153d0:	ea4f 4cd2 	mov.w	ip, r2, lsr #19
   153d4:	9a0c      	ldr	r2, [sp, #48]	; 0x30
   153d6:	ea4c 3c42 	orr.w	ip, ip, r2, lsl #13
   153da:	ea4f 48d2 	mov.w	r8, r2, lsr #19
   153de:	9a1c      	ldr	r2, [sp, #112]	; 0x70
   153e0:	ea8a 0c0c 	eor.w	ip, sl, ip
   153e4:	ea48 3842 	orr.w	r8, r8, r2, lsl #13
   153e8:	ea4f 1a92 	mov.w	sl, r2, lsr #6
   153ec:	9a0c      	ldr	r2, [sp, #48]	; 0x30
   153ee:	ea87 0708 	eor.w	r7, r7, r8
   153f2:	ea4a 6a82 	orr.w	sl, sl, r2, lsl #26
   153f6:	ea87 1792 	eor.w	r7, r7, r2, lsr #6
   153fa:	ea8c 0c0a 	eor.w	ip, ip, sl
   153fe:	eb11 020c 	adds.w	r2, r1, ip
   15402:	921e      	str	r2, [sp, #120]	; 0x78
   15404:	eb40 0207 	adc.w	r2, r0, r7
   15408:	920e      	str	r2, [sp, #56]	; 0x38
   1540a:	991e      	ldr	r1, [sp, #120]	; 0x78
   1540c:	9a2e      	ldr	r2, [sp, #184]	; 0xb8
   1540e:	eb19 0202 	adds.w	r2, r9, r2
   15412:	eb4e 0e06 	adc.w	lr, lr, r6
   15416:	1852      	adds	r2, r2, r1
   15418:	990e      	ldr	r1, [sp, #56]	; 0x38
   1541a:	9e25      	ldr	r6, [sp, #148]	; 0x94
   1541c:	eb41 0e0e 	adc.w	lr, r1, lr
   15420:	eb1b 0102 	adds.w	r1, fp, r2
   15424:	912e      	str	r1, [sp, #184]	; 0xb8
   15426:	9927      	ldr	r1, [sp, #156]	; 0x9c
   15428:	eb41 010e 	adc.w	r1, r1, lr
   1542c:	9130      	str	r1, [sp, #192]	; 0xc0
   1542e:	9926      	ldr	r1, [sp, #152]	; 0x98
   15430:	078f      	lsls	r7, r1, #30
   15432:	9925      	ldr	r1, [sp, #148]	; 0x94
   15434:	ea47 0791 	orr.w	r7, r7, r1, lsr #2
   15438:	ea4f 7c81 	mov.w	ip, r1, lsl #30
   1543c:	9926      	ldr	r1, [sp, #152]	; 0x98
   1543e:	ea4c 0c91 	orr.w	ip, ip, r1, lsr #2
   15442:	9925      	ldr	r1, [sp, #148]	; 0x94
   15444:	0f08      	lsrs	r0, r1, #28
   15446:	9926      	ldr	r1, [sp, #152]	; 0x98
   15448:	ea40 1001 	orr.w	r0, r0, r1, lsl #4
   1544c:	0f09      	lsrs	r1, r1, #28
   1544e:	ea8c 0c00 	eor.w	ip, ip, r0
   15452:	4630      	mov	r0, r6
   15454:	ea41 1106 	orr.w	r1, r1, r6, lsl #4
   15458:	9e26      	ldr	r6, [sp, #152]	; 0x98
   1545a:	404f      	eors	r7, r1
   1545c:	9926      	ldr	r1, [sp, #152]	; 0x98
   1545e:	0649      	lsls	r1, r1, #25
   15460:	ea41 11d0 	orr.w	r1, r1, r0, lsr #7
   15464:	0640      	lsls	r0, r0, #25
   15466:	404f      	eors	r7, r1
   15468:	9923      	ldr	r1, [sp, #140]	; 0x8c
   1546a:	ea40 10d6 	orr.w	r0, r0, r6, lsr #7
   1546e:	ea8c 0c00 	eor.w	ip, ip, r0
   15472:	9825      	ldr	r0, [sp, #148]	; 0x94
   15474:	4308      	orrs	r0, r1
   15476:	9924      	ldr	r1, [sp, #144]	; 0x90
   15478:	ea41 0806 	orr.w	r8, r1, r6
   1547c:	9922      	ldr	r1, [sp, #136]	; 0x88
   1547e:	9e25      	ldr	r6, [sp, #148]	; 0x94
   15480:	4008      	ands	r0, r1
   15482:	9929      	ldr	r1, [sp, #164]	; 0xa4
   15484:	ea08 0801 	and.w	r8, r8, r1
   15488:	9923      	ldr	r1, [sp, #140]	; 0x8c
   1548a:	4031      	ands	r1, r6
   1548c:	9e24      	ldr	r6, [sp, #144]	; 0x90
   1548e:	4308      	orrs	r0, r1
   15490:	eb1c 0000 	adds.w	r0, ip, r0
   15494:	46b1      	mov	r9, r6
   15496:	9e26      	ldr	r6, [sp, #152]	; 0x98
   15498:	ea09 0606 	and.w	r6, r9, r6
   1549c:	ea48 0606 	orr.w	r6, r8, r6
   154a0:	eb47 0606 	adc.w	r6, r7, r6
   154a4:	1882      	adds	r2, r0, r2
   154a6:	982e      	ldr	r0, [sp, #184]	; 0xb8
   154a8:	9227      	str	r2, [sp, #156]	; 0x9c
   154aa:	eb4e 0206 	adc.w	r2, lr, r6
   154ae:	922f      	str	r2, [sp, #188]	; 0xbc
   154b0:	9a2e      	ldr	r2, [sp, #184]	; 0xb8
   154b2:	ea4f 4a92 	mov.w	sl, r2, lsr #18
   154b6:	9a30      	ldr	r2, [sp, #192]	; 0xc0
   154b8:	ea4a 3a82 	orr.w	sl, sl, r2, lsl #14
   154bc:	ea4f 4992 	mov.w	r9, r2, lsr #18
   154c0:	9a2e      	ldr	r2, [sp, #184]	; 0xb8
   154c2:	ea49 3982 	orr.w	r9, r9, r2, lsl #14
   154c6:	0b91      	lsrs	r1, r2, #14
   154c8:	9a30      	ldr	r2, [sp, #192]	; 0xc0
   154ca:	ea41 4182 	orr.w	r1, r1, r2, lsl #18
   154ce:	0b92      	lsrs	r2, r2, #14
   154d0:	ea8a 0a01 	eor.w	sl, sl, r1
   154d4:	4601      	mov	r1, r0
   154d6:	ea42 4280 	orr.w	r2, r2, r0, lsl #18
   154da:	ea89 0902 	eor.w	r9, r9, r2
   154de:	9a30      	ldr	r2, [sp, #192]	; 0xc0
   154e0:	e9dd 0630 	ldrd	r0, r6, [sp, #192]	; 0xc0
   154e4:	05d2      	lsls	r2, r2, #23
   154e6:	ea42 2251 	orr.w	r2, r2, r1, lsr #9
   154ea:	05c9      	lsls	r1, r1, #23
   154ec:	ea89 0902 	eor.w	r9, r9, r2
   154f0:	9a2a      	ldr	r2, [sp, #168]	; 0xa8
   154f2:	ea41 2150 	orr.w	r1, r1, r0, lsr #9
   154f6:	ea8a 0a01 	eor.w	sl, sl, r1
   154fa:	e9dd 102c 	ldrd	r1, r0, [sp, #176]	; 0xb0
   154fe:	404a      	eors	r2, r1
   15500:	992b      	ldr	r1, [sp, #172]	; 0xac
   15502:	ea81 0800 	eor.w	r8, r1, r0
   15506:	992e      	ldr	r1, [sp, #184]	; 0xb8
   15508:	6e58      	ldr	r0, [r3, #100]	; 0x64
   1550a:	400a      	ands	r2, r1
   1550c:	9930      	ldr	r1, [sp, #192]	; 0xc0
   1550e:	ea08 0801 	and.w	r8, r8, r1
   15512:	992a      	ldr	r1, [sp, #168]	; 0xa8
   15514:	404a      	eors	r2, r1
   15516:	992b      	ldr	r1, [sp, #172]	; 0xac
   15518:	ea88 0801 	eor.w	r8, r8, r1
   1551c:	6e19      	ldr	r1, [r3, #96]	; 0x60
   1551e:	1871      	adds	r1, r6, r1
   15520:	9e28      	ldr	r6, [sp, #160]	; 0xa0
   15522:	eb46 0000 	adc.w	r0, r6, r0
   15526:	eb12 0b01 	adds.w	fp, r2, r1
   1552a:	9901      	ldr	r1, [sp, #4]
   1552c:	eb48 0800 	adc.w	r8, r8, r0
   15530:	2900      	cmp	r1, #0
   15532:	f000 8433 	beq.w	15d9c <_Transform_Sha512+0x1fa4>
   15536:	980f      	ldr	r0, [sp, #60]	; 0x3c
   15538:	991f      	ldr	r1, [sp, #124]	; 0x7c
   1553a:	9a1f      	ldr	r2, [sp, #124]	; 0x7c
   1553c:	0a0f      	lsrs	r7, r1, #8
   1553e:	990f      	ldr	r1, [sp, #60]	; 0x3c
   15540:	ea47 6701 	orr.w	r7, r7, r1, lsl #24
   15544:	0a0e      	lsrs	r6, r1, #8
   15546:	991f      	ldr	r1, [sp, #124]	; 0x7c
   15548:	ea46 6601 	orr.w	r6, r6, r1, lsl #24
   1554c:	0849      	lsrs	r1, r1, #1
   1554e:	ea41 71c0 	orr.w	r1, r1, r0, lsl #31
   15552:	0840      	lsrs	r0, r0, #1
   15554:	4079      	eors	r1, r7
   15556:	09d7      	lsrs	r7, r2, #7
   15558:	ea40 70c2 	orr.w	r0, r0, r2, lsl #31
   1555c:	9a0f      	ldr	r2, [sp, #60]	; 0x3c
   1555e:	4070      	eors	r0, r6
   15560:	ea47 6742 	orr.w	r7, r7, r2, lsl #25
   15564:	ea80 10d2 	eor.w	r0, r0, r2, lsr #7
   15568:	9a13      	ldr	r2, [sp, #76]	; 0x4c
   1556a:	4079      	eors	r1, r7
   1556c:	1889      	adds	r1, r1, r2
   1556e:	9a03      	ldr	r2, [sp, #12]
   15570:	eb42 0000 	adc.w	r0, r2, r0
   15574:	9a14      	ldr	r2, [sp, #80]	; 0x50
   15576:	1889      	adds	r1, r1, r2
   15578:	9a04      	ldr	r2, [sp, #16]
   1557a:	eb42 0000 	adc.w	r0, r2, r0
   1557e:	9a0d      	ldr	r2, [sp, #52]	; 0x34
   15580:	00d6      	lsls	r6, r2, #3
   15582:	9a1d      	ldr	r2, [sp, #116]	; 0x74
   15584:	ea46 7652 	orr.w	r6, r6, r2, lsr #29
   15588:	ea4f 0ec2 	mov.w	lr, r2, lsl #3
   1558c:	9a0d      	ldr	r2, [sp, #52]	; 0x34
   1558e:	ea4e 7e52 	orr.w	lr, lr, r2, lsr #29
   15592:	9a1d      	ldr	r2, [sp, #116]	; 0x74
   15594:	0cd7      	lsrs	r7, r2, #19
   15596:	9a0d      	ldr	r2, [sp, #52]	; 0x34
   15598:	ea47 3742 	orr.w	r7, r7, r2, lsl #13
   1559c:	ea4f 4cd2 	mov.w	ip, r2, lsr #19
   155a0:	9a1d      	ldr	r2, [sp, #116]	; 0x74
   155a2:	ea8e 0707 	eor.w	r7, lr, r7
   155a6:	ea4c 3c42 	orr.w	ip, ip, r2, lsl #13
   155aa:	ea4f 1e92 	mov.w	lr, r2, lsr #6
   155ae:	9a0d      	ldr	r2, [sp, #52]	; 0x34
   155b0:	ea86 060c 	eor.w	r6, r6, ip
   155b4:	ea4e 6e82 	orr.w	lr, lr, r2, lsl #26
   155b8:	ea86 1692 	eor.w	r6, r6, r2, lsr #6
   155bc:	ea87 070e 	eor.w	r7, r7, lr
   155c0:	19ca      	adds	r2, r1, r7
   155c2:	9213      	str	r2, [sp, #76]	; 0x4c
   155c4:	eb40 0206 	adc.w	r2, r0, r6
   155c8:	9913      	ldr	r1, [sp, #76]	; 0x4c
   155ca:	9203      	str	r2, [sp, #12]
   155cc:	eb1a 020b 	adds.w	r2, sl, fp
   155d0:	eb49 0908 	adc.w	r9, r9, r8
   155d4:	eb12 0801 	adds.w	r8, r2, r1
   155d8:	9903      	ldr	r1, [sp, #12]
   155da:	9a27      	ldr	r2, [sp, #156]	; 0x9c
   155dc:	eb41 0909 	adc.w	r9, r1, r9
   155e0:	9922      	ldr	r1, [sp, #136]	; 0x88
   155e2:	eb11 0108 	adds.w	r1, r1, r8
   155e6:	9128      	str	r1, [sp, #160]	; 0xa0
   155e8:	9929      	ldr	r1, [sp, #164]	; 0xa4
   155ea:	eb41 0109 	adc.w	r1, r1, r9
   155ee:	9129      	str	r1, [sp, #164]	; 0xa4
   155f0:	992f      	ldr	r1, [sp, #188]	; 0xbc
   155f2:	078e      	lsls	r6, r1, #30
   155f4:	9927      	ldr	r1, [sp, #156]	; 0x9c
   155f6:	ea46 0691 	orr.w	r6, r6, r1, lsr #2
   155fa:	078f      	lsls	r7, r1, #30
   155fc:	992f      	ldr	r1, [sp, #188]	; 0xbc
   155fe:	ea47 0791 	orr.w	r7, r7, r1, lsr #2
   15602:	9927      	ldr	r1, [sp, #156]	; 0x9c
   15604:	0f08      	lsrs	r0, r1, #28
   15606:	992f      	ldr	r1, [sp, #188]	; 0xbc
   15608:	ea40 1001 	orr.w	r0, r0, r1, lsl #4
   1560c:	0f09      	lsrs	r1, r1, #28
   1560e:	4047      	eors	r7, r0
   15610:	982f      	ldr	r0, [sp, #188]	; 0xbc
   15612:	ea41 1102 	orr.w	r1, r1, r2, lsl #4
   15616:	9a2f      	ldr	r2, [sp, #188]	; 0xbc
   15618:	404e      	eors	r6, r1
   1561a:	ea4f 6c42 	mov.w	ip, r2, lsl #25
   1561e:	9a27      	ldr	r2, [sp, #156]	; 0x9c
   15620:	ea4c 1cd2 	orr.w	ip, ip, r2, lsr #7
   15624:	0651      	lsls	r1, r2, #25
   15626:	9a2f      	ldr	r2, [sp, #188]	; 0xbc
   15628:	ea86 060c 	eor.w	r6, r6, ip
   1562c:	ea41 11d2 	orr.w	r1, r1, r2, lsr #7
   15630:	9a25      	ldr	r2, [sp, #148]	; 0x94
   15632:	404f      	eors	r7, r1
   15634:	9927      	ldr	r1, [sp, #156]	; 0x9c
   15636:	4311      	orrs	r1, r2
   15638:	9a26      	ldr	r2, [sp, #152]	; 0x98
   1563a:	ea42 0e00 	orr.w	lr, r2, r0
   1563e:	9a23      	ldr	r2, [sp, #140]	; 0x8c
   15640:	9827      	ldr	r0, [sp, #156]	; 0x9c
   15642:	4011      	ands	r1, r2
   15644:	9a24      	ldr	r2, [sp, #144]	; 0x90
   15646:	ea0e 0e02 	and.w	lr, lr, r2
   1564a:	9a25      	ldr	r2, [sp, #148]	; 0x94
   1564c:	4010      	ands	r0, r2
   1564e:	9a26      	ldr	r2, [sp, #152]	; 0x98
   15650:	4301      	orrs	r1, r0
   15652:	1879      	adds	r1, r7, r1
   15654:	9828      	ldr	r0, [sp, #160]	; 0xa0
   15656:	4694      	mov	ip, r2
   15658:	9a2f      	ldr	r2, [sp, #188]	; 0xbc
   1565a:	ea0c 0c02 	and.w	ip, ip, r2
   1565e:	ea4e 0c0c 	orr.w	ip, lr, ip
   15662:	eb46 0c0c 	adc.w	ip, r6, ip
   15666:	eb11 0208 	adds.w	r2, r1, r8
   1566a:	eb49 0b0c 	adc.w	fp, r9, ip
   1566e:	9222      	str	r2, [sp, #136]	; 0x88
   15670:	9a28      	ldr	r2, [sp, #160]	; 0xa0
   15672:	ea4f 4a92 	mov.w	sl, r2, lsr #18
   15676:	9a29      	ldr	r2, [sp, #164]	; 0xa4
   15678:	ea4a 3a82 	orr.w	sl, sl, r2, lsl #14
   1567c:	ea4f 4992 	mov.w	r9, r2, lsr #18
   15680:	9a28      	ldr	r2, [sp, #160]	; 0xa0
   15682:	ea49 3982 	orr.w	r9, r9, r2, lsl #14
   15686:	0b91      	lsrs	r1, r2, #14
   15688:	9a29      	ldr	r2, [sp, #164]	; 0xa4
   1568a:	ea41 4182 	orr.w	r1, r1, r2, lsl #18
   1568e:	0b92      	lsrs	r2, r2, #14
   15690:	ea8a 0a01 	eor.w	sl, sl, r1
   15694:	4601      	mov	r1, r0
   15696:	ea42 4280 	orr.w	r2, r2, r0, lsl #18
   1569a:	ea89 0902 	eor.w	r9, r9, r2
   1569e:	9a29      	ldr	r2, [sp, #164]	; 0xa4
   156a0:	e9dd 0629 	ldrd	r0, r6, [sp, #164]	; 0xa4
   156a4:	05d2      	lsls	r2, r2, #23
   156a6:	ea42 2251 	orr.w	r2, r2, r1, lsr #9
   156aa:	05c9      	lsls	r1, r1, #23
   156ac:	ea89 0902 	eor.w	r9, r9, r2
   156b0:	9a2c      	ldr	r2, [sp, #176]	; 0xb0
   156b2:	ea41 2150 	orr.w	r1, r1, r0, lsr #9
   156b6:	9830      	ldr	r0, [sp, #192]	; 0xc0
   156b8:	ea8a 0a01 	eor.w	sl, sl, r1
   156bc:	992e      	ldr	r1, [sp, #184]	; 0xb8
   156be:	404a      	eors	r2, r1
   156c0:	992d      	ldr	r1, [sp, #180]	; 0xb4
   156c2:	ea81 0800 	eor.w	r8, r1, r0
   156c6:	9928      	ldr	r1, [sp, #160]	; 0xa0
   156c8:	6ed8      	ldr	r0, [r3, #108]	; 0x6c
   156ca:	400a      	ands	r2, r1
   156cc:	9929      	ldr	r1, [sp, #164]	; 0xa4
   156ce:	ea08 0801 	and.w	r8, r8, r1
   156d2:	992c      	ldr	r1, [sp, #176]	; 0xb0
   156d4:	404a      	eors	r2, r1
   156d6:	992d      	ldr	r1, [sp, #180]	; 0xb4
   156d8:	ea88 0801 	eor.w	r8, r8, r1
   156dc:	6e99      	ldr	r1, [r3, #104]	; 0x68
   156de:	1871      	adds	r1, r6, r1
   156e0:	9e2b      	ldr	r6, [sp, #172]	; 0xac
   156e2:	eb46 0000 	adc.w	r0, r6, r0
   156e6:	1852      	adds	r2, r2, r1
   156e8:	9901      	ldr	r1, [sp, #4]
   156ea:	eb48 0800 	adc.w	r8, r8, r0
   156ee:	922a      	str	r2, [sp, #168]	; 0xa8
   156f0:	2900      	cmp	r1, #0
   156f2:	f000 8359 	beq.w	15da8 <_Transform_Sha512+0x1fb0>
   156f6:	9810      	ldr	r0, [sp, #64]	; 0x40
   156f8:	9920      	ldr	r1, [sp, #128]	; 0x80
   156fa:	9a20      	ldr	r2, [sp, #128]	; 0x80
   156fc:	0a0f      	lsrs	r7, r1, #8
   156fe:	9910      	ldr	r1, [sp, #64]	; 0x40
   15700:	ea47 6701 	orr.w	r7, r7, r1, lsl #24
   15704:	0a0e      	lsrs	r6, r1, #8
   15706:	9920      	ldr	r1, [sp, #128]	; 0x80
   15708:	ea46 6601 	orr.w	r6, r6, r1, lsl #24
   1570c:	0849      	lsrs	r1, r1, #1
   1570e:	ea41 71c0 	orr.w	r1, r1, r0, lsl #31
   15712:	0840      	lsrs	r0, r0, #1
   15714:	4079      	eors	r1, r7
   15716:	09d7      	lsrs	r7, r2, #7
   15718:	ea40 70c2 	orr.w	r0, r0, r2, lsl #31
   1571c:	9a10      	ldr	r2, [sp, #64]	; 0x40
   1571e:	4070      	eors	r0, r6
   15720:	ea47 6742 	orr.w	r7, r7, r2, lsl #25
   15724:	ea80 10d2 	eor.w	r0, r0, r2, lsr #7
   15728:	9a1f      	ldr	r2, [sp, #124]	; 0x7c
   1572a:	4079      	eors	r1, r7
   1572c:	1889      	adds	r1, r1, r2
   1572e:	9a0f      	ldr	r2, [sp, #60]	; 0x3c
   15730:	eb42 0000 	adc.w	r0, r2, r0
   15734:	9a15      	ldr	r2, [sp, #84]	; 0x54
   15736:	1889      	adds	r1, r1, r2
   15738:	9a05      	ldr	r2, [sp, #20]
   1573a:	eb42 0000 	adc.w	r0, r2, r0
   1573e:	9a0e      	ldr	r2, [sp, #56]	; 0x38
   15740:	00d6      	lsls	r6, r2, #3
   15742:	9a1e      	ldr	r2, [sp, #120]	; 0x78
   15744:	ea46 7652 	orr.w	r6, r6, r2, lsr #29
   15748:	ea4f 0ec2 	mov.w	lr, r2, lsl #3
   1574c:	9a0e      	ldr	r2, [sp, #56]	; 0x38
   1574e:	ea4e 7e52 	orr.w	lr, lr, r2, lsr #29
   15752:	9a1e      	ldr	r2, [sp, #120]	; 0x78
   15754:	0cd7      	lsrs	r7, r2, #19
   15756:	9a0e      	ldr	r2, [sp, #56]	; 0x38
   15758:	ea47 3742 	orr.w	r7, r7, r2, lsl #13
   1575c:	ea4f 4cd2 	mov.w	ip, r2, lsr #19
   15760:	9a1e      	ldr	r2, [sp, #120]	; 0x78
   15762:	ea8e 0707 	eor.w	r7, lr, r7
   15766:	ea4c 3c42 	orr.w	ip, ip, r2, lsl #13
   1576a:	ea4f 1e92 	mov.w	lr, r2, lsr #6
   1576e:	9a0e      	ldr	r2, [sp, #56]	; 0x38
   15770:	ea86 060c 	eor.w	r6, r6, ip
   15774:	ea4e 6e82 	orr.w	lr, lr, r2, lsl #26
   15778:	ea86 1692 	eor.w	r6, r6, r2, lsr #6
   1577c:	ea87 070e 	eor.w	r7, r7, lr
   15780:	19ca      	adds	r2, r1, r7
   15782:	921f      	str	r2, [sp, #124]	; 0x7c
   15784:	eb40 0206 	adc.w	r2, r0, r6
   15788:	920f      	str	r2, [sp, #60]	; 0x3c
   1578a:	ea4f 768b 	mov.w	r6, fp, lsl #30
   1578e:	991f      	ldr	r1, [sp, #124]	; 0x7c
   15790:	ea4f 6c4b 	mov.w	ip, fp, lsl #25
   15794:	9a2a      	ldr	r2, [sp, #168]	; 0xa8
   15796:	eb1a 0202 	adds.w	r2, sl, r2
   1579a:	eb49 0908 	adc.w	r9, r9, r8
   1579e:	eb12 0801 	adds.w	r8, r2, r1
   157a2:	990f      	ldr	r1, [sp, #60]	; 0x3c
   157a4:	9a22      	ldr	r2, [sp, #136]	; 0x88
   157a6:	eb41 0909 	adc.w	r9, r1, r9
   157aa:	9923      	ldr	r1, [sp, #140]	; 0x8c
   157ac:	ea4c 1cd2 	orr.w	ip, ip, r2, lsr #7
   157b0:	eb11 0108 	adds.w	r1, r1, r8
   157b4:	912a      	str	r1, [sp, #168]	; 0xa8
   157b6:	9924      	ldr	r1, [sp, #144]	; 0x90
   157b8:	eb41 0109 	adc.w	r1, r1, r9
   157bc:	912b      	str	r1, [sp, #172]	; 0xac
   157be:	9922      	ldr	r1, [sp, #136]	; 0x88
   157c0:	ea46 0691 	orr.w	r6, r6, r1, lsr #2
   157c4:	078f      	lsls	r7, r1, #30
   157c6:	0f08      	lsrs	r0, r1, #28
   157c8:	ea4f 711b 	mov.w	r1, fp, lsr #28
   157cc:	ea40 100b 	orr.w	r0, r0, fp, lsl #4
   157d0:	ea41 1102 	orr.w	r1, r1, r2, lsl #4
   157d4:	ea47 079b 	orr.w	r7, r7, fp, lsr #2
   157d8:	404e      	eors	r6, r1
   157da:	0651      	lsls	r1, r2, #25
   157dc:	9a27      	ldr	r2, [sp, #156]	; 0x9c
   157de:	4047      	eors	r7, r0
   157e0:	ea86 060c 	eor.w	r6, r6, ip
   157e4:	ea41 11db 	orr.w	r1, r1, fp, lsr #7
   157e8:	9822      	ldr	r0, [sp, #136]	; 0x88
   157ea:	404f      	eors	r7, r1
   157ec:	9922      	ldr	r1, [sp, #136]	; 0x88
   157ee:	4311      	orrs	r1, r2
   157f0:	9a2f      	ldr	r2, [sp, #188]	; 0xbc
   157f2:	ea42 0e0b 	orr.w	lr, r2, fp
   157f6:	9a25      	ldr	r2, [sp, #148]	; 0x94
   157f8:	4011      	ands	r1, r2
   157fa:	9a26      	ldr	r2, [sp, #152]	; 0x98
   157fc:	ea0e 0e02 	and.w	lr, lr, r2
   15800:	9a27      	ldr	r2, [sp, #156]	; 0x9c
   15802:	4010      	ands	r0, r2
   15804:	9a2f      	ldr	r2, [sp, #188]	; 0xbc
   15806:	4301      	orrs	r1, r0
   15808:	1879      	adds	r1, r7, r1
   1580a:	982a      	ldr	r0, [sp, #168]	; 0xa8
   1580c:	ea02 0c0b 	and.w	ip, r2, fp
   15810:	ea4e 0c0c 	orr.w	ip, lr, ip
   15814:	eb46 0c0c 	adc.w	ip, r6, ip
   15818:	eb11 0208 	adds.w	r2, r1, r8
   1581c:	9223      	str	r2, [sp, #140]	; 0x8c
   1581e:	eb49 020c 	adc.w	r2, r9, ip
   15822:	9224      	str	r2, [sp, #144]	; 0x90
   15824:	9a2a      	ldr	r2, [sp, #168]	; 0xa8
   15826:	ea4f 4a92 	mov.w	sl, r2, lsr #18
   1582a:	9a2b      	ldr	r2, [sp, #172]	; 0xac
   1582c:	ea4a 3a82 	orr.w	sl, sl, r2, lsl #14
   15830:	ea4f 4992 	mov.w	r9, r2, lsr #18
   15834:	9a2a      	ldr	r2, [sp, #168]	; 0xa8
   15836:	ea49 3982 	orr.w	r9, r9, r2, lsl #14
   1583a:	0b91      	lsrs	r1, r2, #14
   1583c:	9a2b      	ldr	r2, [sp, #172]	; 0xac
   1583e:	ea41 4182 	orr.w	r1, r1, r2, lsl #18
   15842:	0b92      	lsrs	r2, r2, #14
   15844:	ea8a 0a01 	eor.w	sl, sl, r1
   15848:	4601      	mov	r1, r0
   1584a:	ea42 4280 	orr.w	r2, r2, r0, lsl #18
   1584e:	982b      	ldr	r0, [sp, #172]	; 0xac
   15850:	ea89 0902 	eor.w	r9, r9, r2
   15854:	9a2b      	ldr	r2, [sp, #172]	; 0xac
   15856:	05d2      	lsls	r2, r2, #23
   15858:	ea42 2251 	orr.w	r2, r2, r1, lsr #9
   1585c:	05c9      	lsls	r1, r1, #23
   1585e:	ea89 0902 	eor.w	r9, r9, r2
   15862:	9a2e      	ldr	r2, [sp, #184]	; 0xb8
   15864:	ea41 2150 	orr.w	r1, r1, r0, lsr #9
   15868:	ea8a 0a01 	eor.w	sl, sl, r1
   1586c:	e9dd 1028 	ldrd	r1, r0, [sp, #160]	; 0xa0
   15870:	404a      	eors	r2, r1
   15872:	9930      	ldr	r1, [sp, #192]	; 0xc0
   15874:	ea81 0800 	eor.w	r8, r1, r0
   15878:	992a      	ldr	r1, [sp, #168]	; 0xa8
   1587a:	400a      	ands	r2, r1
   1587c:	e9dd 162b 	ldrd	r1, r6, [sp, #172]	; 0xac
   15880:	6f58      	ldr	r0, [r3, #116]	; 0x74
   15882:	ea08 0801 	and.w	r8, r8, r1
   15886:	992e      	ldr	r1, [sp, #184]	; 0xb8
   15888:	404a      	eors	r2, r1
   1588a:	9930      	ldr	r1, [sp, #192]	; 0xc0
   1588c:	ea88 0801 	eor.w	r8, r8, r1
   15890:	6f19      	ldr	r1, [r3, #112]	; 0x70
   15892:	1871      	adds	r1, r6, r1
   15894:	9e2d      	ldr	r6, [sp, #180]	; 0xb4
   15896:	eb46 0000 	adc.w	r0, r6, r0
   1589a:	1852      	adds	r2, r2, r1
   1589c:	9901      	ldr	r1, [sp, #4]
   1589e:	eb48 0800 	adc.w	r8, r8, r0
   158a2:	922c      	str	r2, [sp, #176]	; 0xb0
   158a4:	2900      	cmp	r1, #0
   158a6:	f000 8285 	beq.w	15db4 <_Transform_Sha512+0x1fbc>
   158aa:	9811      	ldr	r0, [sp, #68]	; 0x44
   158ac:	9921      	ldr	r1, [sp, #132]	; 0x84
   158ae:	9a21      	ldr	r2, [sp, #132]	; 0x84
   158b0:	0a0f      	lsrs	r7, r1, #8
   158b2:	9911      	ldr	r1, [sp, #68]	; 0x44
   158b4:	ea47 6701 	orr.w	r7, r7, r1, lsl #24
   158b8:	0a0e      	lsrs	r6, r1, #8
   158ba:	9921      	ldr	r1, [sp, #132]	; 0x84
   158bc:	ea46 6601 	orr.w	r6, r6, r1, lsl #24
   158c0:	0849      	lsrs	r1, r1, #1
   158c2:	ea41 71c0 	orr.w	r1, r1, r0, lsl #31
   158c6:	0840      	lsrs	r0, r0, #1
   158c8:	4079      	eors	r1, r7
   158ca:	09d7      	lsrs	r7, r2, #7
   158cc:	ea40 70c2 	orr.w	r0, r0, r2, lsl #31
   158d0:	9a11      	ldr	r2, [sp, #68]	; 0x44
   158d2:	4070      	eors	r0, r6
   158d4:	ea47 6742 	orr.w	r7, r7, r2, lsl #25
   158d8:	ea80 10d2 	eor.w	r0, r0, r2, lsr #7
   158dc:	9a20      	ldr	r2, [sp, #128]	; 0x80
   158de:	4079      	eors	r1, r7
   158e0:	1889      	adds	r1, r1, r2
   158e2:	9a10      	ldr	r2, [sp, #64]	; 0x40
   158e4:	eb42 0000 	adc.w	r0, r2, r0
   158e8:	9a16      	ldr	r2, [sp, #88]	; 0x58
   158ea:	1889      	adds	r1, r1, r2
   158ec:	9a06      	ldr	r2, [sp, #24]
   158ee:	eb42 0000 	adc.w	r0, r2, r0
   158f2:	9a03      	ldr	r2, [sp, #12]
   158f4:	00d6      	lsls	r6, r2, #3
   158f6:	9a13      	ldr	r2, [sp, #76]	; 0x4c
   158f8:	ea46 7652 	orr.w	r6, r6, r2, lsr #29
   158fc:	ea4f 0ec2 	mov.w	lr, r2, lsl #3
   15900:	9a03      	ldr	r2, [sp, #12]
   15902:	ea4e 7e52 	orr.w	lr, lr, r2, lsr #29
   15906:	9a13      	ldr	r2, [sp, #76]	; 0x4c
   15908:	0cd7      	lsrs	r7, r2, #19
   1590a:	9a03      	ldr	r2, [sp, #12]
   1590c:	ea47 3742 	orr.w	r7, r7, r2, lsl #13
   15910:	ea4f 4cd2 	mov.w	ip, r2, lsr #19
   15914:	9a13      	ldr	r2, [sp, #76]	; 0x4c
   15916:	ea8e 0707 	eor.w	r7, lr, r7
   1591a:	ea4c 3c42 	orr.w	ip, ip, r2, lsl #13
   1591e:	ea4f 1e92 	mov.w	lr, r2, lsr #6
   15922:	9a03      	ldr	r2, [sp, #12]
   15924:	ea86 060c 	eor.w	r6, r6, ip
   15928:	ea4e 6e82 	orr.w	lr, lr, r2, lsl #26
   1592c:	ea86 1692 	eor.w	r6, r6, r2, lsr #6
   15930:	ea87 070e 	eor.w	r7, r7, lr
   15934:	19ca      	adds	r2, r1, r7
   15936:	9220      	str	r2, [sp, #128]	; 0x80
   15938:	eb40 0206 	adc.w	r2, r0, r6
   1593c:	9210      	str	r2, [sp, #64]	; 0x40
   1593e:	9920      	ldr	r1, [sp, #128]	; 0x80
   15940:	9a2c      	ldr	r2, [sp, #176]	; 0xb0
   15942:	9e23      	ldr	r6, [sp, #140]	; 0x8c
   15944:	eb1a 0202 	adds.w	r2, sl, r2
   15948:	eb49 0908 	adc.w	r9, r9, r8
   1594c:	1852      	adds	r2, r2, r1
   1594e:	9910      	ldr	r1, [sp, #64]	; 0x40
   15950:	eb41 0909 	adc.w	r9, r1, r9
   15954:	9925      	ldr	r1, [sp, #148]	; 0x94
   15956:	1889      	adds	r1, r1, r2
   15958:	912c      	str	r1, [sp, #176]	; 0xb0
   1595a:	9926      	ldr	r1, [sp, #152]	; 0x98
   1595c:	eb41 0109 	adc.w	r1, r1, r9
   15960:	912d      	str	r1, [sp, #180]	; 0xb4
   15962:	9924      	ldr	r1, [sp, #144]	; 0x90
   15964:	078f      	lsls	r7, r1, #30
   15966:	9923      	ldr	r1, [sp, #140]	; 0x8c
   15968:	ea47 0791 	orr.w	r7, r7, r1, lsr #2
   1596c:	ea4f 7e81 	mov.w	lr, r1, lsl #30
   15970:	9924      	ldr	r1, [sp, #144]	; 0x90
   15972:	ea4e 0e91 	orr.w	lr, lr, r1, lsr #2
   15976:	9923      	ldr	r1, [sp, #140]	; 0x8c
   15978:	0f08      	lsrs	r0, r1, #28
   1597a:	9924      	ldr	r1, [sp, #144]	; 0x90
   1597c:	ea40 1001 	orr.w	r0, r0, r1, lsl #4
   15980:	0f09      	lsrs	r1, r1, #28
   15982:	ea8e 0e00 	eor.w	lr, lr, r0
   15986:	9824      	ldr	r0, [sp, #144]	; 0x90
   15988:	ea41 1106 	orr.w	r1, r1, r6, lsl #4
   1598c:	404f      	eors	r7, r1
   1598e:	9924      	ldr	r1, [sp, #144]	; 0x90
   15990:	ea4f 6c41 	mov.w	ip, r1, lsl #25
   15994:	0671      	lsls	r1, r6, #25
   15996:	ea4c 1cd6 	orr.w	ip, ip, r6, lsr #7
   1599a:	ea41 11d0 	orr.w	r1, r1, r0, lsr #7
   1599e:	9824      	ldr	r0, [sp, #144]	; 0x90
   159a0:	ea87 070c 	eor.w	r7, r7, ip
   159a4:	ea8e 0e01 	eor.w	lr, lr, r1
   159a8:	9922      	ldr	r1, [sp, #136]	; 0x88
   159aa:	4331      	orrs	r1, r6
   159ac:	ea4b 0600 	orr.w	r6, fp, r0
   159b0:	9827      	ldr	r0, [sp, #156]	; 0x9c
   159b2:	ea01 0800 	and.w	r8, r1, r0
   159b6:	982f      	ldr	r0, [sp, #188]	; 0xbc
   159b8:	4006      	ands	r6, r0
   159ba:	9822      	ldr	r0, [sp, #136]	; 0x88
   159bc:	4601      	mov	r1, r0
   159be:	9823      	ldr	r0, [sp, #140]	; 0x8c
   159c0:	4008      	ands	r0, r1
   159c2:	9924      	ldr	r1, [sp, #144]	; 0x90
   159c4:	ea0b 0c01 	and.w	ip, fp, r1
   159c8:	ea48 0100 	orr.w	r1, r8, r0
   159cc:	eb1e 0101 	adds.w	r1, lr, r1
   159d0:	ea46 0c0c 	orr.w	ip, r6, ip
   159d4:	eb47 0c0c 	adc.w	ip, r7, ip
   159d8:	188a      	adds	r2, r1, r2
   159da:	e9dd 012c 	ldrd	r0, r1, [sp, #176]	; 0xb0
   159de:	9225      	str	r2, [sp, #148]	; 0x94
   159e0:	eb49 020c 	adc.w	r2, r9, ip
   159e4:	9226      	str	r2, [sp, #152]	; 0x98
   159e6:	9a2c      	ldr	r2, [sp, #176]	; 0xb0
   159e8:	ea4f 4a92 	mov.w	sl, r2, lsr #18
   159ec:	9a2d      	ldr	r2, [sp, #180]	; 0xb4
   159ee:	ea4a 3a82 	orr.w	sl, sl, r2, lsl #14
   159f2:	ea4f 4992 	mov.w	r9, r2, lsr #18
   159f6:	9a2c      	ldr	r2, [sp, #176]	; 0xb0
   159f8:	ea49 3982 	orr.w	r9, r9, r2, lsl #14
   159fc:	0b92      	lsrs	r2, r2, #14
   159fe:	ea42 4281 	orr.w	r2, r2, r1, lsl #18
   15a02:	0b89      	lsrs	r1, r1, #14
   15a04:	ea8a 0a02 	eor.w	sl, sl, r2
   15a08:	9a2d      	ldr	r2, [sp, #180]	; 0xb4
   15a0a:	ea41 4180 	orr.w	r1, r1, r0, lsl #18
   15a0e:	ea89 0901 	eor.w	r9, r9, r1
   15a12:	05d1      	lsls	r1, r2, #23
   15a14:	05c2      	lsls	r2, r0, #23
   15a16:	ea41 2150 	orr.w	r1, r1, r0, lsr #9
   15a1a:	982d      	ldr	r0, [sp, #180]	; 0xb4
   15a1c:	ea89 0901 	eor.w	r9, r9, r1
   15a20:	ea42 2250 	orr.w	r2, r2, r0, lsr #9
   15a24:	ea8a 0a02 	eor.w	sl, sl, r2
   15a28:	9a28      	ldr	r2, [sp, #160]	; 0xa0
   15a2a:	e9dd 102a 	ldrd	r1, r0, [sp, #168]	; 0xa8
   15a2e:	9e2e      	ldr	r6, [sp, #184]	; 0xb8
   15a30:	404a      	eors	r2, r1
   15a32:	9929      	ldr	r1, [sp, #164]	; 0xa4
   15a34:	ea81 0800 	eor.w	r8, r1, r0
   15a38:	992c      	ldr	r1, [sp, #176]	; 0xb0
   15a3a:	6fd8      	ldr	r0, [r3, #124]	; 0x7c
   15a3c:	400a      	ands	r2, r1
   15a3e:	992d      	ldr	r1, [sp, #180]	; 0xb4
   15a40:	ea08 0801 	and.w	r8, r8, r1
   15a44:	9928      	ldr	r1, [sp, #160]	; 0xa0
   15a46:	404a      	eors	r2, r1
   15a48:	9929      	ldr	r1, [sp, #164]	; 0xa4
   15a4a:	ea88 0801 	eor.w	r8, r8, r1
   15a4e:	6f99      	ldr	r1, [r3, #120]	; 0x78
   15a50:	1871      	adds	r1, r6, r1
   15a52:	9e30      	ldr	r6, [sp, #192]	; 0xc0
   15a54:	eb46 0000 	adc.w	r0, r6, r0
   15a58:	1852      	adds	r2, r2, r1
   15a5a:	9901      	ldr	r1, [sp, #4]
   15a5c:	eb48 0800 	adc.w	r8, r8, r0
   15a60:	922e      	str	r2, [sp, #184]	; 0xb8
   15a62:	2900      	cmp	r1, #0
   15a64:	f000 81ac 	beq.w	15dc0 <_Transform_Sha512+0x1fc8>
   15a68:	9808      	ldr	r0, [sp, #32]
   15a6a:	9918      	ldr	r1, [sp, #96]	; 0x60
   15a6c:	9a18      	ldr	r2, [sp, #96]	; 0x60
   15a6e:	0a0f      	lsrs	r7, r1, #8
   15a70:	9908      	ldr	r1, [sp, #32]
   15a72:	ea47 6701 	orr.w	r7, r7, r1, lsl #24
   15a76:	0a0e      	lsrs	r6, r1, #8
   15a78:	9918      	ldr	r1, [sp, #96]	; 0x60
   15a7a:	ea46 6601 	orr.w	r6, r6, r1, lsl #24
   15a7e:	0849      	lsrs	r1, r1, #1
   15a80:	ea41 71c0 	orr.w	r1, r1, r0, lsl #31
   15a84:	0840      	lsrs	r0, r0, #1
   15a86:	4079      	eors	r1, r7
   15a88:	09d7      	lsrs	r7, r2, #7
   15a8a:	ea40 70c2 	orr.w	r0, r0, r2, lsl #31
   15a8e:	9a08      	ldr	r2, [sp, #32]
   15a90:	4070      	eors	r0, r6
   15a92:	ea47 6742 	orr.w	r7, r7, r2, lsl #25
   15a96:	ea80 10d2 	eor.w	r0, r0, r2, lsr #7
   15a9a:	9a21      	ldr	r2, [sp, #132]	; 0x84
   15a9c:	4079      	eors	r1, r7
   15a9e:	1889      	adds	r1, r1, r2
   15aa0:	9a11      	ldr	r2, [sp, #68]	; 0x44
   15aa2:	eb42 0000 	adc.w	r0, r2, r0
   15aa6:	9a1b      	ldr	r2, [sp, #108]	; 0x6c
   15aa8:	1889      	adds	r1, r1, r2
   15aaa:	9a0b      	ldr	r2, [sp, #44]	; 0x2c
   15aac:	eb42 0000 	adc.w	r0, r2, r0
   15ab0:	9a0f      	ldr	r2, [sp, #60]	; 0x3c
   15ab2:	00d6      	lsls	r6, r2, #3
   15ab4:	9a1f      	ldr	r2, [sp, #124]	; 0x7c
   15ab6:	ea46 7652 	orr.w	r6, r6, r2, lsr #29
   15aba:	ea4f 0ec2 	mov.w	lr, r2, lsl #3
   15abe:	9a0f      	ldr	r2, [sp, #60]	; 0x3c
   15ac0:	ea4e 7e52 	orr.w	lr, lr, r2, lsr #29
   15ac4:	9a1f      	ldr	r2, [sp, #124]	; 0x7c
   15ac6:	0cd7      	lsrs	r7, r2, #19
   15ac8:	9a0f      	ldr	r2, [sp, #60]	; 0x3c
   15aca:	ea47 3742 	orr.w	r7, r7, r2, lsl #13
   15ace:	ea4f 4cd2 	mov.w	ip, r2, lsr #19
   15ad2:	9a1f      	ldr	r2, [sp, #124]	; 0x7c
   15ad4:	ea8e 0707 	eor.w	r7, lr, r7
   15ad8:	ea4c 3c42 	orr.w	ip, ip, r2, lsl #13
   15adc:	ea4f 1e92 	mov.w	lr, r2, lsr #6
   15ae0:	9a0f      	ldr	r2, [sp, #60]	; 0x3c
   15ae2:	ea86 060c 	eor.w	r6, r6, ip
   15ae6:	ea4e 6e82 	orr.w	lr, lr, r2, lsl #26
   15aea:	ea86 1692 	eor.w	r6, r6, r2, lsr #6
   15aee:	ea87 070e 	eor.w	r7, r7, lr
   15af2:	19ca      	adds	r2, r1, r7
   15af4:	9221      	str	r2, [sp, #132]	; 0x84
   15af6:	eb40 0206 	adc.w	r2, r0, r6
   15afa:	9211      	str	r2, [sp, #68]	; 0x44
   15afc:	3380      	adds	r3, #128	; 0x80
   15afe:	9921      	ldr	r1, [sp, #132]	; 0x84
   15b00:	9a2e      	ldr	r2, [sp, #184]	; 0xb8
   15b02:	9f25      	ldr	r7, [sp, #148]	; 0x94
   15b04:	eb1a 0202 	adds.w	r2, sl, r2
   15b08:	eb49 0908 	adc.w	r9, r9, r8
   15b0c:	eb12 0801 	adds.w	r8, r2, r1
   15b10:	9a11      	ldr	r2, [sp, #68]	; 0x44
   15b12:	9926      	ldr	r1, [sp, #152]	; 0x98
   15b14:	eb42 0909 	adc.w	r9, r2, r9
   15b18:	9a27      	ldr	r2, [sp, #156]	; 0x9c
   15b1a:	eb12 0208 	adds.w	r2, r2, r8
   15b1e:	922e      	str	r2, [sp, #184]	; 0xb8
   15b20:	9a2f      	ldr	r2, [sp, #188]	; 0xbc
   15b22:	eb42 0a09 	adc.w	sl, r2, r9
   15b26:	9a26      	ldr	r2, [sp, #152]	; 0x98
   15b28:	0790      	lsls	r0, r2, #30
   15b2a:	9a25      	ldr	r2, [sp, #148]	; 0x94
   15b2c:	ea40 0092 	orr.w	r0, r0, r2, lsr #2
   15b30:	0796      	lsls	r6, r2, #30
   15b32:	9a26      	ldr	r2, [sp, #152]	; 0x98
   15b34:	ea46 0692 	orr.w	r6, r6, r2, lsr #2
   15b38:	9a25      	ldr	r2, [sp, #148]	; 0x94
   15b3a:	0f12      	lsrs	r2, r2, #28
   15b3c:	ea42 1201 	orr.w	r2, r2, r1, lsl #4
   15b40:	0f09      	lsrs	r1, r1, #28
   15b42:	4056      	eors	r6, r2
   15b44:	9a26      	ldr	r2, [sp, #152]	; 0x98
   15b46:	ea41 1107 	orr.w	r1, r1, r7, lsl #4
   15b4a:	4048      	eors	r0, r1
   15b4c:	0651      	lsls	r1, r2, #25
   15b4e:	067a      	lsls	r2, r7, #25
   15b50:	ea41 11d7 	orr.w	r1, r1, r7, lsr #7
   15b54:	4048      	eors	r0, r1
   15b56:	e9dd 1725 	ldrd	r1, r7, [sp, #148]	; 0x94
   15b5a:	ea42 12d7 	orr.w	r2, r2, r7, lsr #7
   15b5e:	4056      	eors	r6, r2
   15b60:	9a23      	ldr	r2, [sp, #140]	; 0x8c
   15b62:	ea42 0c01 	orr.w	ip, r2, r1
   15b66:	9a24      	ldr	r2, [sp, #144]	; 0x90
   15b68:	9925      	ldr	r1, [sp, #148]	; 0x94
   15b6a:	4317      	orrs	r7, r2
   15b6c:	9a22      	ldr	r2, [sp, #136]	; 0x88
   15b6e:	ea07 070b 	and.w	r7, r7, fp
   15b72:	ea0c 0c02 	and.w	ip, ip, r2
   15b76:	9a23      	ldr	r2, [sp, #140]	; 0x8c
   15b78:	4011      	ands	r1, r2
   15b7a:	9a24      	ldr	r2, [sp, #144]	; 0x90
   15b7c:	ea4c 0101 	orr.w	r1, ip, r1
   15b80:	1871      	adds	r1, r6, r1
   15b82:	4696      	mov	lr, r2
   15b84:	9a26      	ldr	r2, [sp, #152]	; 0x98
   15b86:	ea0e 0e02 	and.w	lr, lr, r2
   15b8a:	ea47 0e0e 	orr.w	lr, r7, lr
   15b8e:	eb40 0e0e 	adc.w	lr, r0, lr
   15b92:	eb11 0208 	adds.w	r2, r1, r8
   15b96:	eb49 010e 	adc.w	r1, r9, lr
   15b9a:	9127      	str	r1, [sp, #156]	; 0x9c
   15b9c:	9901      	ldr	r1, [sp, #4]
   15b9e:	3110      	adds	r1, #16
   15ba0:	2950      	cmp	r1, #80	; 0x50
   15ba2:	9101      	str	r1, [sp, #4]
   15ba4:	f47e a999 	bne.w	13eda <_Transform_Sha512+0xe2>
   15ba8:	9b2e      	ldr	r3, [sp, #184]	; 0xb8
   15baa:	e9cd 3a3a 	strd	r3, sl, [sp, #232]	; 0xe8
   15bae:	9b2a      	ldr	r3, [sp, #168]	; 0xa8
   15bb0:	933e      	str	r3, [sp, #248]	; 0xf8
   15bb2:	9b2b      	ldr	r3, [sp, #172]	; 0xac
   15bb4:	933f      	str	r3, [sp, #252]	; 0xfc
   15bb6:	9b2c      	ldr	r3, [sp, #176]	; 0xb0
   15bb8:	933c      	str	r3, [sp, #240]	; 0xf0
   15bba:	9b2d      	ldr	r3, [sp, #180]	; 0xb4
   15bbc:	933d      	str	r3, [sp, #244]	; 0xf4
   15bbe:	9b20      	ldr	r3, [sp, #128]	; 0x80
   15bc0:	6723      	str	r3, [r4, #112]	; 0x70
   15bc2:	9b10      	ldr	r3, [sp, #64]	; 0x40
   15bc4:	6763      	str	r3, [r4, #116]	; 0x74
   15bc6:	9b1c      	ldr	r3, [sp, #112]	; 0x70
   15bc8:	64a3      	str	r3, [r4, #72]	; 0x48
   15bca:	9b0c      	ldr	r3, [sp, #48]	; 0x30
   15bcc:	64e3      	str	r3, [r4, #76]	; 0x4c
   15bce:	9b19      	ldr	r3, [sp, #100]	; 0x64
   15bd0:	60a3      	str	r3, [r4, #8]
   15bd2:	9b09      	ldr	r3, [sp, #36]	; 0x24
   15bd4:	60e3      	str	r3, [r4, #12]
   15bd6:	9b18      	ldr	r3, [sp, #96]	; 0x60
   15bd8:	6023      	str	r3, [r4, #0]
   15bda:	9b08      	ldr	r3, [sp, #32]
   15bdc:	6063      	str	r3, [r4, #4]
   15bde:	9b28      	ldr	r3, [sp, #160]	; 0xa0
   15be0:	9340      	str	r3, [sp, #256]	; 0x100
   15be2:	9b29      	ldr	r3, [sp, #164]	; 0xa4
   15be4:	9341      	str	r3, [sp, #260]	; 0x104
   15be6:	9b22      	ldr	r3, [sp, #136]	; 0x88
   15be8:	e9cd 3b38 	strd	r3, fp, [sp, #224]	; 0xe0
   15bec:	9b27      	ldr	r3, [sp, #156]	; 0x9c
   15bee:	9232      	str	r2, [sp, #200]	; 0xc8
   15bf0:	9333      	str	r3, [sp, #204]	; 0xcc
   15bf2:	9b25      	ldr	r3, [sp, #148]	; 0x94
   15bf4:	9334      	str	r3, [sp, #208]	; 0xd0
   15bf6:	9b26      	ldr	r3, [sp, #152]	; 0x98
   15bf8:	9335      	str	r3, [sp, #212]	; 0xd4
   15bfa:	9b23      	ldr	r3, [sp, #140]	; 0x8c
   15bfc:	9336      	str	r3, [sp, #216]	; 0xd8
   15bfe:	9b24      	ldr	r3, [sp, #144]	; 0x90
   15c00:	9337      	str	r3, [sp, #220]	; 0xdc
   15c02:	9b21      	ldr	r3, [sp, #132]	; 0x84
   15c04:	67a3      	str	r3, [r4, #120]	; 0x78
   15c06:	9b11      	ldr	r3, [sp, #68]	; 0x44
   15c08:	67e3      	str	r3, [r4, #124]	; 0x7c
   15c0a:	9b1d      	ldr	r3, [sp, #116]	; 0x74
   15c0c:	6523      	str	r3, [r4, #80]	; 0x50
   15c0e:	9b0d      	ldr	r3, [sp, #52]	; 0x34
   15c10:	6563      	str	r3, [r4, #84]	; 0x54
   15c12:	9b17      	ldr	r3, [sp, #92]	; 0x5c
   15c14:	6123      	str	r3, [r4, #16]
   15c16:	9b07      	ldr	r3, [sp, #28]
   15c18:	6163      	str	r3, [r4, #20]
   15c1a:	9b1e      	ldr	r3, [sp, #120]	; 0x78
   15c1c:	65a3      	str	r3, [r4, #88]	; 0x58
   15c1e:	9b0e      	ldr	r3, [sp, #56]	; 0x38
   15c20:	65e3      	str	r3, [r4, #92]	; 0x5c
   15c22:	9b12      	ldr	r3, [sp, #72]	; 0x48
   15c24:	61a3      	str	r3, [r4, #24]
   15c26:	9b02      	ldr	r3, [sp, #8]
   15c28:	61e3      	str	r3, [r4, #28]
   15c2a:	9b13      	ldr	r3, [sp, #76]	; 0x4c
   15c2c:	6869      	ldr	r1, [r5, #4]
   15c2e:	6623      	str	r3, [r4, #96]	; 0x60
   15c30:	9b03      	ldr	r3, [sp, #12]
   15c32:	6663      	str	r3, [r4, #100]	; 0x64
   15c34:	9b1a      	ldr	r3, [sp, #104]	; 0x68
   15c36:	6223      	str	r3, [r4, #32]
   15c38:	9b0a      	ldr	r3, [sp, #40]	; 0x28
   15c3a:	6263      	str	r3, [r4, #36]	; 0x24
   15c3c:	9b1f      	ldr	r3, [sp, #124]	; 0x7c
   15c3e:	66a3      	str	r3, [r4, #104]	; 0x68
   15c40:	9b0f      	ldr	r3, [sp, #60]	; 0x3c
   15c42:	66e3      	str	r3, [r4, #108]	; 0x6c
   15c44:	9b14      	ldr	r3, [sp, #80]	; 0x50
   15c46:	62a3      	str	r3, [r4, #40]	; 0x28
   15c48:	9b04      	ldr	r3, [sp, #16]
   15c4a:	62e3      	str	r3, [r4, #44]	; 0x2c
   15c4c:	9b15      	ldr	r3, [sp, #84]	; 0x54
   15c4e:	6323      	str	r3, [r4, #48]	; 0x30
   15c50:	9b05      	ldr	r3, [sp, #20]
   15c52:	6363      	str	r3, [r4, #52]	; 0x34
   15c54:	9b16      	ldr	r3, [sp, #88]	; 0x58
   15c56:	63a3      	str	r3, [r4, #56]	; 0x38
   15c58:	9b06      	ldr	r3, [sp, #24]
   15c5a:	63e3      	str	r3, [r4, #60]	; 0x3c
   15c5c:	9b1b      	ldr	r3, [sp, #108]	; 0x6c
   15c5e:	6423      	str	r3, [r4, #64]	; 0x40
   15c60:	9b0b      	ldr	r3, [sp, #44]	; 0x2c
   15c62:	6463      	str	r3, [r4, #68]	; 0x44
   15c64:	682b      	ldr	r3, [r5, #0]
   15c66:	189b      	adds	r3, r3, r2
   15c68:	9a27      	ldr	r2, [sp, #156]	; 0x9c
   15c6a:	eb42 0101 	adc.w	r1, r2, r1
   15c6e:	e9c5 3100 	strd	r3, r1, [r5]
   15c72:	e9d5 1602 	ldrd	r1, r6, [r5, #8]
   15c76:	9b25      	ldr	r3, [sp, #148]	; 0x94
   15c78:	692a      	ldr	r2, [r5, #16]
   15c7a:	e9d5 0708 	ldrd	r0, r7, [r5, #32]
   15c7e:	18c9      	adds	r1, r1, r3
   15c80:	9b26      	ldr	r3, [sp, #152]	; 0x98
   15c82:	eb43 0606 	adc.w	r6, r3, r6
   15c86:	9b23      	ldr	r3, [sp, #140]	; 0x8c
   15c88:	e9c5 1602 	strd	r1, r6, [r5, #8]
   15c8c:	18d2      	adds	r2, r2, r3
   15c8e:	9b24      	ldr	r3, [sp, #144]	; 0x90
   15c90:	612a      	str	r2, [r5, #16]
   15c92:	e9d5 6205 	ldrd	r6, r2, [r5, #20]
   15c96:	eb43 0606 	adc.w	r6, r3, r6
   15c9a:	9b22      	ldr	r3, [sp, #136]	; 0x88
   15c9c:	18d2      	adds	r2, r2, r3
   15c9e:	9b2e      	ldr	r3, [sp, #184]	; 0xb8
   15ca0:	e9c5 6205 	strd	r6, r2, [r5, #20]
   15ca4:	f104 0280 	add.w	r2, r4, #128	; 0x80
   15ca8:	69ee      	ldr	r6, [r5, #28]
   15caa:	eb4b 0606 	adc.w	r6, fp, r6
   15cae:	18c0      	adds	r0, r0, r3
   15cb0:	9b2c      	ldr	r3, [sp, #176]	; 0xb0
   15cb2:	eb4a 0707 	adc.w	r7, sl, r7
   15cb6:	e9c5 6007 	strd	r6, r0, [r5, #28]
   15cba:	626f      	str	r7, [r5, #36]	; 0x24
   15cbc:	e9d5 070a 	ldrd	r0, r7, [r5, #40]	; 0x28
   15cc0:	6b6e      	ldr	r6, [r5, #52]	; 0x34
   15cc2:	18c0      	adds	r0, r0, r3
   15cc4:	9b2d      	ldr	r3, [sp, #180]	; 0xb4
   15cc6:	eb43 0707 	adc.w	r7, r3, r7
   15cca:	9b2a      	ldr	r3, [sp, #168]	; 0xa8
   15ccc:	e9c5 070a 	strd	r0, r7, [r5, #40]	; 0x28
   15cd0:	6b28      	ldr	r0, [r5, #48]	; 0x30
   15cd2:	18c0      	adds	r0, r0, r3
   15cd4:	9b2b      	ldr	r3, [sp, #172]	; 0xac
   15cd6:	eb43 0606 	adc.w	r6, r3, r6
   15cda:	e9c5 060c 	strd	r0, r6, [r5, #48]	; 0x30
   15cde:	e9d5 160e 	ldrd	r1, r6, [r5, #56]	; 0x38
   15ce2:	9b28      	ldr	r3, [sp, #160]	; 0xa0
   15ce4:	18c9      	adds	r1, r1, r3
   15ce6:	9b29      	ldr	r3, [sp, #164]	; 0xa4
   15ce8:	eb43 0606 	adc.w	r6, r3, r6
   15cec:	4623      	mov	r3, r4
   15cee:	e9c5 160e 	strd	r1, r6, [r5, #56]	; 0x38
   15cf2:	2100      	movs	r1, #0
   15cf4:	4293      	cmp	r3, r2
   15cf6:	d169      	bne.n	15dcc <_Transform_Sha512+0x1fd4>
   15cf8:	2300      	movs	r3, #0
   15cfa:	4619      	mov	r1, r3
   15cfc:	aa32      	add	r2, sp, #200	; 0xc8
   15cfe:	441a      	add	r2, r3
   15d00:	3301      	adds	r3, #1
   15d02:	2b41      	cmp	r3, #65	; 0x41
   15d04:	d165      	bne.n	15dd2 <_Transform_Sha512+0x1fda>
   15d06:	4620      	mov	r0, r4
   15d08:	f7fa eb84 	blx	10414 <free@plt>
   15d0c:	2000      	movs	r0, #0
   15d0e:	b043      	add	sp, #268	; 0x10c
   15d10:	e8bd 8ff0 	ldmia.w	sp!, {r4, r5, r6, r7, r8, r9, sl, fp, pc}
   15d14:	6c29      	ldr	r1, [r5, #64]	; 0x40
   15d16:	9118      	str	r1, [sp, #96]	; 0x60
   15d18:	6c69      	ldr	r1, [r5, #68]	; 0x44
   15d1a:	f7fe b96f 	b.w	13ffc <_Transform_Sha512+0x204>
   15d1e:	6ca8      	ldr	r0, [r5, #72]	; 0x48
   15d20:	9019      	str	r0, [sp, #100]	; 0x64
   15d22:	6ce8      	ldr	r0, [r5, #76]	; 0x4c
   15d24:	f7fe ba5e 	b.w	141e4 <_Transform_Sha512+0x3ec>
   15d28:	6d28      	ldr	r0, [r5, #80]	; 0x50
   15d2a:	9017      	str	r0, [sp, #92]	; 0x5c
   15d2c:	6d68      	ldr	r0, [r5, #84]	; 0x54
   15d2e:	f7fe bb4d 	b.w	143cc <_Transform_Sha512+0x5d4>
   15d32:	6da8      	ldr	r0, [r5, #88]	; 0x58
   15d34:	9012      	str	r0, [sp, #72]	; 0x48
   15d36:	6de8      	ldr	r0, [r5, #92]	; 0x5c
   15d38:	f7fe bc36 	b.w	145a8 <_Transform_Sha512+0x7b0>
   15d3c:	6e29      	ldr	r1, [r5, #96]	; 0x60
   15d3e:	911a      	str	r1, [sp, #104]	; 0x68
   15d40:	6e69      	ldr	r1, [r5, #100]	; 0x64
   15d42:	f7fe bd1a 	b.w	1477a <_Transform_Sha512+0x982>
   15d46:	6ea9      	ldr	r1, [r5, #104]	; 0x68
   15d48:	9114      	str	r1, [sp, #80]	; 0x50
   15d4a:	6ee9      	ldr	r1, [r5, #108]	; 0x6c
   15d4c:	f7fe bdf8 	b.w	14940 <_Transform_Sha512+0xb48>
   15d50:	6f29      	ldr	r1, [r5, #112]	; 0x70
   15d52:	9115      	str	r1, [sp, #84]	; 0x54
   15d54:	6f69      	ldr	r1, [r5, #116]	; 0x74
   15d56:	f7fe bed9 	b.w	14b0c <_Transform_Sha512+0xd14>
   15d5a:	6fa9      	ldr	r1, [r5, #120]	; 0x78
   15d5c:	9116      	str	r1, [sp, #88]	; 0x58
   15d5e:	6fe9      	ldr	r1, [r5, #124]	; 0x7c
   15d60:	f7fe bfba 	b.w	14cd8 <_Transform_Sha512+0xee0>
   15d64:	f8d5 1080 	ldr.w	r1, [r5, #128]	; 0x80
   15d68:	911b      	str	r1, [sp, #108]	; 0x6c
   15d6a:	f8d5 1084 	ldr.w	r1, [r5, #132]	; 0x84
   15d6e:	f7ff b89a 	b.w	14ea6 <_Transform_Sha512+0x10ae>
   15d72:	f8d5 2088 	ldr.w	r2, [r5, #136]	; 0x88
   15d76:	921c      	str	r2, [sp, #112]	; 0x70
   15d78:	f8d5 208c 	ldr.w	r2, [r5, #140]	; 0x8c
   15d7c:	f7ff b978 	b.w	15070 <_Transform_Sha512+0x1278>
   15d80:	f8d5 2090 	ldr.w	r2, [r5, #144]	; 0x90
   15d84:	921d      	str	r2, [sp, #116]	; 0x74
   15d86:	f8d5 2094 	ldr.w	r2, [r5, #148]	; 0x94
   15d8a:	f7ff ba57 	b.w	1523c <_Transform_Sha512+0x1444>
   15d8e:	f8d5 2098 	ldr.w	r2, [r5, #152]	; 0x98
   15d92:	921e      	str	r2, [sp, #120]	; 0x78
   15d94:	f8d5 209c 	ldr.w	r2, [r5, #156]	; 0x9c
   15d98:	f7ff bb36 	b.w	15408 <_Transform_Sha512+0x1610>
   15d9c:	f8d5 20a0 	ldr.w	r2, [r5, #160]	; 0xa0
   15da0:	9213      	str	r2, [sp, #76]	; 0x4c
   15da2:	f8d5 20a4 	ldr.w	r2, [r5, #164]	; 0xa4
   15da6:	e40f      	b.n	155c8 <_Transform_Sha512+0x17d0>
   15da8:	f8d5 20a8 	ldr.w	r2, [r5, #168]	; 0xa8
   15dac:	921f      	str	r2, [sp, #124]	; 0x7c
   15dae:	f8d5 20ac 	ldr.w	r2, [r5, #172]	; 0xac
   15db2:	e4e9      	b.n	15788 <_Transform_Sha512+0x1990>
   15db4:	f8d5 20b0 	ldr.w	r2, [r5, #176]	; 0xb0
   15db8:	9220      	str	r2, [sp, #128]	; 0x80
   15dba:	f8d5 20b4 	ldr.w	r2, [r5, #180]	; 0xb4
   15dbe:	e5bd      	b.n	1593c <_Transform_Sha512+0x1b44>
   15dc0:	f8d5 20b8 	ldr.w	r2, [r5, #184]	; 0xb8
   15dc4:	9221      	str	r2, [sp, #132]	; 0x84
   15dc6:	f8d5 20bc 	ldr.w	r2, [r5, #188]	; 0xbc
   15dca:	e696      	b.n	15afa <_Transform_Sha512+0x1d02>
   15dcc:	f803 1b01 	strb.w	r1, [r3], #1
   15dd0:	e790      	b.n	15cf4 <_Transform_Sha512+0x1efc>
   15dd2:	7011      	strb	r1, [r2, #0]
   15dd4:	e792      	b.n	15cfc <_Transform_Sha512+0x1f04>
   15dd6:	f06f 007c 	mvn.w	r0, #124	; 0x7c
   15dda:	e798      	b.n	15d0e <_Transform_Sha512+0x1f16>

00015ddc <Sha512Final>:
   15ddc:	b570      	push	{r4, r5, r6, lr}
   15dde:	4604      	mov	r4, r0
   15de0:	2800      	cmp	r0, #0
   15de2:	d054      	beq.n	15e8e <Sha512Final+0xb2>
   15de4:	f100 0640 	add.w	r6, r0, #64	; 0x40
   15de8:	2580      	movs	r5, #128	; 0x80
   15dea:	f8d0 30c0 	ldr.w	r3, [r0, #192]	; 0xc0
   15dee:	1c5a      	adds	r2, r3, #1
   15df0:	f8c0 20c0 	str.w	r2, [r0, #192]	; 0xc0
   15df4:	54f5      	strb	r5, [r6, r3]
   15df6:	f8d0 00c0 	ldr.w	r0, [r0, #192]	; 0xc0
   15dfa:	2870      	cmp	r0, #112	; 0x70
   15dfc:	d912      	bls.n	15e24 <Sha512Final+0x48>
   15dfe:	1a2a      	subs	r2, r5, r0
   15e00:	2100      	movs	r1, #0
   15e02:	4430      	add	r0, r6
   15e04:	f7fa eb30 	blx	10468 <memset@plt>
   15e08:	462a      	mov	r2, r5
   15e0a:	4631      	mov	r1, r6
   15e0c:	f8c4 50c0 	str.w	r5, [r4, #192]	; 0xc0
   15e10:	4630      	mov	r0, r6
   15e12:	f7fd ffe1 	bl	13dd8 <ByteReverseWords64>
   15e16:	4620      	mov	r0, r4
   15e18:	f7fd ffee 	bl	13df8 <_Transform_Sha512>
   15e1c:	4605      	mov	r5, r0
   15e1e:	bba0      	cbnz	r0, 15e8a <Sha512Final+0xae>
   15e20:	f8c4 00c0 	str.w	r0, [r4, #192]	; 0xc0
   15e24:	f8d4 00c0 	ldr.w	r0, [r4, #192]	; 0xc0
   15e28:	2100      	movs	r1, #0
   15e2a:	f1c0 0270 	rsb	r2, r0, #112	; 0x70
   15e2e:	4430      	add	r0, r6
   15e30:	f7fa eb1a 	blx	10468 <memset@plt>
   15e34:	e9d4 0132 	ldrd	r0, r1, [r4, #200]	; 0xc8
   15e38:	e9d4 3234 	ldrd	r3, r2, [r4, #208]	; 0xd0
   15e3c:	0f4d      	lsrs	r5, r1, #29
   15e3e:	00c9      	lsls	r1, r1, #3
   15e40:	00d2      	lsls	r2, r2, #3
   15e42:	ea41 7150 	orr.w	r1, r1, r0, lsr #29
   15e46:	ea42 7253 	orr.w	r2, r2, r3, lsr #29
   15e4a:	00db      	lsls	r3, r3, #3
   15e4c:	00c0      	lsls	r0, r0, #3
   15e4e:	195b      	adds	r3, r3, r5
   15e50:	f142 0200 	adc.w	r2, r2, #0
   15e54:	e9c4 0132 	strd	r0, r1, [r4, #200]	; 0xc8
   15e58:	4631      	mov	r1, r6
   15e5a:	4630      	mov	r0, r6
   15e5c:	e9c4 3234 	strd	r3, r2, [r4, #208]	; 0xd0
   15e60:	2270      	movs	r2, #112	; 0x70
   15e62:	f7fd ffb9 	bl	13dd8 <ByteReverseWords64>
   15e66:	e9d4 2334 	ldrd	r2, r3, [r4, #208]	; 0xd0
   15e6a:	4620      	mov	r0, r4
   15e6c:	e9c4 232c 	strd	r2, r3, [r4, #176]	; 0xb0
   15e70:	e9d4 2332 	ldrd	r2, r3, [r4, #200]	; 0xc8
   15e74:	e9c4 232e 	strd	r2, r3, [r4, #184]	; 0xb8
   15e78:	f7fd ffbe 	bl	13df8 <_Transform_Sha512>
   15e7c:	4605      	mov	r5, r0
   15e7e:	b920      	cbnz	r0, 15e8a <Sha512Final+0xae>
   15e80:	2240      	movs	r2, #64	; 0x40
   15e82:	4621      	mov	r1, r4
   15e84:	4620      	mov	r0, r4
   15e86:	f7fd ffa7 	bl	13dd8 <ByteReverseWords64>
   15e8a:	4628      	mov	r0, r5
   15e8c:	bd70      	pop	{r4, r5, r6, pc}
   15e8e:	f06f 05ac 	mvn.w	r5, #172	; 0xac
   15e92:	e7fa      	b.n	15e8a <Sha512Final+0xae>

00015e94 <Sha512_Family_Final>:
   15e94:	b573      	push	{r0, r1, r4, r5, r6, lr}
   15e96:	460d      	mov	r5, r1
   15e98:	461e      	mov	r6, r3
   15e9a:	4604      	mov	r4, r0
   15e9c:	9201      	str	r2, [sp, #4]
   15e9e:	b170      	cbz	r0, 15ebe <Sha512_Family_Final+0x2a>
   15ea0:	b169      	cbz	r1, 15ebe <Sha512_Family_Final+0x2a>
   15ea2:	f7ff ff9b 	bl	15ddc <Sha512Final>
   15ea6:	b960      	cbnz	r0, 15ec2 <Sha512_Family_Final+0x2e>
   15ea8:	9a01      	ldr	r2, [sp, #4]
   15eaa:	4621      	mov	r1, r4
   15eac:	4628      	mov	r0, r5
   15eae:	f7fa eabe 	blx	1042c <memcpy@plt>
   15eb2:	4620      	mov	r0, r4
   15eb4:	4633      	mov	r3, r6
   15eb6:	b002      	add	sp, #8
   15eb8:	e8bd 4070 	ldmia.w	sp!, {r4, r5, r6, lr}
   15ebc:	4718      	bx	r3
   15ebe:	f06f 00ac 	mvn.w	r0, #172	; 0xac
   15ec2:	b002      	add	sp, #8
   15ec4:	bd70      	pop	{r4, r5, r6, pc}
	...

00015ec8 <wc_Sha512Final>:
   15ec8:	4b01      	ldr	r3, [pc, #4]	; (15ed0 <wc_Sha512Final+0x8>)
   15eca:	2240      	movs	r2, #64	; 0x40
   15ecc:	f7ff bfe2 	b.w	15e94 <Sha512_Family_Final>
   15ed0:	00013bc9 	.word	0x00013bc9

00015ed4 <wc_Sha512_224Final>:
   15ed4:	4b01      	ldr	r3, [pc, #4]	; (15edc <wc_Sha512_224Final+0x8>)
   15ed6:	221c      	movs	r2, #28
   15ed8:	f7ff bfdc 	b.w	15e94 <Sha512_Family_Final>
   15edc:	00013c79 	.word	0x00013c79

00015ee0 <wc_Sha512_256Final>:
   15ee0:	4b01      	ldr	r3, [pc, #4]	; (15ee8 <wc_Sha512_256Final+0x8>)
   15ee2:	2220      	movs	r2, #32
   15ee4:	f7ff bfd6 	b.w	15e94 <Sha512_Family_Final>
   15ee8:	00013d29 	.word	0x00013d29

00015eec <wc_InitSha512_ex>:
   15eec:	b118      	cbz	r0, 15ef6 <wc_InitSha512_ex+0xa>
   15eee:	f8c0 10d8 	str.w	r1, [r0, #216]	; 0xd8
   15ef2:	f7fd be69 	b.w	13bc8 <InitSha512>
   15ef6:	f06f 00ac 	mvn.w	r0, #172	; 0xac
   15efa:	4770      	bx	lr

00015efc <wc_InitSha512_224_ex>:
   15efc:	b118      	cbz	r0, 15f06 <wc_InitSha512_224_ex+0xa>
   15efe:	f8c0 10d8 	str.w	r1, [r0, #216]	; 0xd8
   15f02:	f7fd beb9 	b.w	13c78 <InitSha512_224>
   15f06:	f06f 00ac 	mvn.w	r0, #172	; 0xac
   15f0a:	4770      	bx	lr

00015f0c <wc_InitSha512_256_ex>:
   15f0c:	b118      	cbz	r0, 15f16 <wc_InitSha512_256_ex+0xa>
   15f0e:	f8c0 10d8 	str.w	r1, [r0, #216]	; 0xd8
   15f12:	f7fd bf09 	b.w	13d28 <InitSha512_256>
   15f16:	f06f 00ac 	mvn.w	r0, #172	; 0xac
   15f1a:	4770      	bx	lr

00015f1c <wc_Sha512Update>:
   15f1c:	e92d 41f0 	stmdb	sp!, {r4, r5, r6, r7, r8, lr}
   15f20:	460e      	mov	r6, r1
   15f22:	4614      	mov	r4, r2
   15f24:	4605      	mov	r5, r0
   15f26:	2800      	cmp	r0, #0
   15f28:	d05b      	beq.n	15fe2 <wc_Sha512Update+0xc6>
   15f2a:	b909      	cbnz	r1, 15f30 <wc_Sha512Update+0x14>
   15f2c:	2a00      	cmp	r2, #0
   15f2e:	d158      	bne.n	15fe2 <wc_Sha512Update+0xc6>
   15f30:	f8d5 00c0 	ldr.w	r0, [r5, #192]	; 0xc0
   15f34:	287f      	cmp	r0, #127	; 0x7f
   15f36:	d857      	bhi.n	15fe8 <wc_Sha512Update+0xcc>
   15f38:	b90c      	cbnz	r4, 15f3e <wc_Sha512Update+0x22>
   15f3a:	2000      	movs	r0, #0
   15f3c:	e04f      	b.n	15fde <wc_Sha512Update+0xc2>
   15f3e:	e9d5 3232 	ldrd	r3, r2, [r5, #200]	; 0xc8
   15f42:	2100      	movs	r1, #0
   15f44:	191b      	adds	r3, r3, r4
   15f46:	f152 0200 	adcs.w	r2, r2, #0
   15f4a:	bf28      	it	cs
   15f4c:	2101      	movcs	r1, #1
   15f4e:	e9c5 3232 	strd	r3, r2, [r5, #200]	; 0xc8
   15f52:	b131      	cbz	r1, 15f62 <wc_Sha512Update+0x46>
   15f54:	e9d5 3234 	ldrd	r3, r2, [r5, #208]	; 0xd0
   15f58:	3301      	adds	r3, #1
   15f5a:	f142 0200 	adc.w	r2, r2, #0
   15f5e:	e9c5 3234 	strd	r3, r2, [r5, #208]	; 0xd0
   15f62:	f105 0740 	add.w	r7, r5, #64	; 0x40
   15f66:	b1e8      	cbz	r0, 15fa4 <wc_Sha512Update+0x88>
   15f68:	f1c0 0880 	rsb	r8, r0, #128	; 0x80
   15f6c:	4631      	mov	r1, r6
   15f6e:	45a0      	cmp	r8, r4
   15f70:	4438      	add	r0, r7
   15f72:	bf28      	it	cs
   15f74:	46a0      	movcs	r8, r4
   15f76:	4642      	mov	r2, r8
   15f78:	4446      	add	r6, r8
   15f7a:	f7fa ea58 	blx	1042c <memcpy@plt>
   15f7e:	f8d5 20c0 	ldr.w	r2, [r5, #192]	; 0xc0
   15f82:	eba4 0408 	sub.w	r4, r4, r8
   15f86:	4442      	add	r2, r8
   15f88:	2a80      	cmp	r2, #128	; 0x80
   15f8a:	f8c5 20c0 	str.w	r2, [r5, #192]	; 0xc0
   15f8e:	d109      	bne.n	15fa4 <wc_Sha512Update+0x88>
   15f90:	4638      	mov	r0, r7
   15f92:	4639      	mov	r1, r7
   15f94:	f7fd ff20 	bl	13dd8 <ByteReverseWords64>
   15f98:	4628      	mov	r0, r5
   15f9a:	f7fd ff2d 	bl	13df8 <_Transform_Sha512>
   15f9e:	b9f0      	cbnz	r0, 15fde <wc_Sha512Update+0xc2>
   15fa0:	f8c5 00c0 	str.w	r0, [r5, #192]	; 0xc0
   15fa4:	4426      	add	r6, r4
   15fa6:	2c7f      	cmp	r4, #127	; 0x7f
   15fa8:	eba6 0104 	sub.w	r1, r6, r4
   15fac:	d808      	bhi.n	15fc0 <wc_Sha512Update+0xa4>
   15fae:	2c00      	cmp	r4, #0
   15fb0:	d0c3      	beq.n	15f3a <wc_Sha512Update+0x1e>
   15fb2:	4622      	mov	r2, r4
   15fb4:	4638      	mov	r0, r7
   15fb6:	f7fa ea3a 	blx	1042c <memcpy@plt>
   15fba:	f8c5 40c0 	str.w	r4, [r5, #192]	; 0xc0
   15fbe:	e7bc      	b.n	15f3a <wc_Sha512Update+0x1e>
   15fc0:	2280      	movs	r2, #128	; 0x80
   15fc2:	4638      	mov	r0, r7
   15fc4:	f7fa ea32 	blx	1042c <memcpy@plt>
   15fc8:	4638      	mov	r0, r7
   15fca:	2280      	movs	r2, #128	; 0x80
   15fcc:	4639      	mov	r1, r7
   15fce:	3c80      	subs	r4, #128	; 0x80
   15fd0:	f7fd ff02 	bl	13dd8 <ByteReverseWords64>
   15fd4:	4628      	mov	r0, r5
   15fd6:	f7fd ff0f 	bl	13df8 <_Transform_Sha512>
   15fda:	2800      	cmp	r0, #0
   15fdc:	d0e3      	beq.n	15fa6 <wc_Sha512Update+0x8a>
   15fde:	e8bd 81f0 	ldmia.w	sp!, {r4, r5, r6, r7, r8, pc}
   15fe2:	f06f 00ac 	mvn.w	r0, #172	; 0xac
   15fe6:	e7fa      	b.n	15fde <wc_Sha512Update+0xc2>
   15fe8:	f06f 0083 	mvn.w	r0, #131	; 0x83
   15fec:	e7f7      	b.n	15fde <wc_Sha512Update+0xc2>

00015fee <wc_InitSha512>:
   15fee:	f06f 0201 	mvn.w	r2, #1
   15ff2:	2100      	movs	r1, #0
   15ff4:	f7ff bf7a 	b.w	15eec <wc_InitSha512_ex>

00015ff8 <wc_Sha512Free>:
   15ff8:	4770      	bx	lr

00015ffa <wc_Sha384Update>:
   15ffa:	f7ff bf8f 	b.w	15f1c <wc_Sha512Update>
	...

00016000 <wc_Sha384Final>:
   16000:	b570      	push	{r4, r5, r6, lr}
   16002:	460e      	mov	r6, r1
   16004:	4604      	mov	r4, r0
   16006:	2800      	cmp	r0, #0
   16008:	d03c      	beq.n	16084 <wc_Sha384Final+0x84>
   1600a:	2900      	cmp	r1, #0
   1600c:	d03a      	beq.n	16084 <wc_Sha384Final+0x84>
   1600e:	f7ff fee5 	bl	15ddc <Sha512Final>
   16012:	4605      	mov	r5, r0
   16014:	bba0      	cbnz	r0, 16080 <wc_Sha384Final+0x80>
   16016:	2230      	movs	r2, #48	; 0x30
   16018:	4621      	mov	r1, r4
   1601a:	4630      	mov	r0, r6
   1601c:	f7fa ea06 	blx	1042c <memcpy@plt>
   16020:	a31b      	add	r3, pc, #108	; (adr r3, 16090 <wc_Sha384Final+0x90>)
   16022:	e9d3 2300 	ldrd	r2, r3, [r3]
   16026:	e9c4 2300 	strd	r2, r3, [r4]
   1602a:	a31b      	add	r3, pc, #108	; (adr r3, 16098 <wc_Sha384Final+0x98>)
   1602c:	e9d3 2300 	ldrd	r2, r3, [r3]
   16030:	f8c4 50c0 	str.w	r5, [r4, #192]	; 0xc0
   16034:	e9c4 2302 	strd	r2, r3, [r4, #8]
   16038:	a319      	add	r3, pc, #100	; (adr r3, 160a0 <wc_Sha384Final+0xa0>)
   1603a:	e9d3 2300 	ldrd	r2, r3, [r3]
   1603e:	e9c4 2304 	strd	r2, r3, [r4, #16]
   16042:	a319      	add	r3, pc, #100	; (adr r3, 160a8 <wc_Sha384Final+0xa8>)
   16044:	e9d3 2300 	ldrd	r2, r3, [r3]
   16048:	e9c4 2306 	strd	r2, r3, [r4, #24]
   1604c:	a318      	add	r3, pc, #96	; (adr r3, 160b0 <wc_Sha384Final+0xb0>)
   1604e:	e9d3 2300 	ldrd	r2, r3, [r3]
   16052:	e9c4 2308 	strd	r2, r3, [r4, #32]
   16056:	a318      	add	r3, pc, #96	; (adr r3, 160b8 <wc_Sha384Final+0xb8>)
   16058:	e9d3 2300 	ldrd	r2, r3, [r3]
   1605c:	e9c4 230a 	strd	r2, r3, [r4, #40]	; 0x28
   16060:	a317      	add	r3, pc, #92	; (adr r3, 160c0 <wc_Sha384Final+0xc0>)
   16062:	e9d3 2300 	ldrd	r2, r3, [r3]
   16066:	e9c4 230c 	strd	r2, r3, [r4, #48]	; 0x30
   1606a:	a317      	add	r3, pc, #92	; (adr r3, 160c8 <wc_Sha384Final+0xc8>)
   1606c:	e9d3 2300 	ldrd	r2, r3, [r3]
   16070:	e9c4 230e 	strd	r2, r3, [r4, #56]	; 0x38
   16074:	2200      	movs	r2, #0
   16076:	2300      	movs	r3, #0
   16078:	e9c4 2332 	strd	r2, r3, [r4, #200]	; 0xc8
   1607c:	e9c4 2334 	strd	r2, r3, [r4, #208]	; 0xd0
   16080:	4628      	mov	r0, r5
   16082:	bd70      	pop	{r4, r5, r6, pc}
   16084:	f06f 05ac 	mvn.w	r5, #172	; 0xac
   16088:	e7fa      	b.n	16080 <wc_Sha384Final+0x80>
   1608a:	bf00      	nop
   1608c:	f3af 8000 	nop.w
   16090:	c1059ed8 	.word	0xc1059ed8
   16094:	cbbb9d5d 	.word	0xcbbb9d5d
   16098:	367cd507 	.word	0x367cd507
   1609c:	629a292a 	.word	0x629a292a
   160a0:	3070dd17 	.word	0x3070dd17
   160a4:	9159015a 	.word	0x9159015a
   160a8:	f70e5939 	.word	0xf70e5939
   160ac:	152fecd8 	.word	0x152fecd8
   160b0:	ffc00b31 	.word	0xffc00b31
   160b4:	67332667 	.word	0x67332667
   160b8:	68581511 	.word	0x68581511
   160bc:	8eb44a87 	.word	0x8eb44a87
   160c0:	64f98fa7 	.word	0x64f98fa7
   160c4:	db0c2e0d 	.word	0xdb0c2e0d
   160c8:	befa4fa4 	.word	0xbefa4fa4
   160cc:	47b5481d 	.word	0x47b5481d

000160d0 <wc_InitSha384_ex>:
   160d0:	b530      	push	{r4, r5, lr}
   160d2:	b3a0      	cbz	r0, 1613e <wc_InitSha384_ex+0x6e>
   160d4:	2400      	movs	r4, #0
   160d6:	2500      	movs	r5, #0
   160d8:	a31b      	add	r3, pc, #108	; (adr r3, 16148 <wc_InitSha384_ex+0x78>)
   160da:	e9d3 2300 	ldrd	r2, r3, [r3]
   160de:	e9c0 2300 	strd	r2, r3, [r0]
   160e2:	a31b      	add	r3, pc, #108	; (adr r3, 16150 <wc_InitSha384_ex+0x80>)
   160e4:	e9d3 2300 	ldrd	r2, r3, [r3]
   160e8:	e9c0 4532 	strd	r4, r5, [r0, #200]	; 0xc8
   160ec:	e9c0 4534 	strd	r4, r5, [r0, #208]	; 0xd0
   160f0:	f8c0 10d8 	str.w	r1, [r0, #216]	; 0xd8
   160f4:	e9c0 2302 	strd	r2, r3, [r0, #8]
   160f8:	a317      	add	r3, pc, #92	; (adr r3, 16158 <wc_InitSha384_ex+0x88>)
   160fa:	e9d3 2300 	ldrd	r2, r3, [r3]
   160fe:	e9c0 2304 	strd	r2, r3, [r0, #16]
   16102:	a317      	add	r3, pc, #92	; (adr r3, 16160 <wc_InitSha384_ex+0x90>)
   16104:	e9d3 2300 	ldrd	r2, r3, [r3]
   16108:	e9c0 2306 	strd	r2, r3, [r0, #24]
   1610c:	a316      	add	r3, pc, #88	; (adr r3, 16168 <wc_InitSha384_ex+0x98>)
   1610e:	e9d3 2300 	ldrd	r2, r3, [r3]
   16112:	e9c0 2308 	strd	r2, r3, [r0, #32]
   16116:	a316      	add	r3, pc, #88	; (adr r3, 16170 <wc_InitSha384_ex+0xa0>)
   16118:	e9d3 2300 	ldrd	r2, r3, [r3]
   1611c:	e9c0 230a 	strd	r2, r3, [r0, #40]	; 0x28
   16120:	a315      	add	r3, pc, #84	; (adr r3, 16178 <wc_InitSha384_ex+0xa8>)
   16122:	e9d3 2300 	ldrd	r2, r3, [r3]
   16126:	e9c0 230c 	strd	r2, r3, [r0, #48]	; 0x30
   1612a:	a315      	add	r3, pc, #84	; (adr r3, 16180 <wc_InitSha384_ex+0xb0>)
   1612c:	e9d3 2300 	ldrd	r2, r3, [r3]
   16130:	e9c0 230e 	strd	r2, r3, [r0, #56]	; 0x38
   16134:	2300      	movs	r3, #0
   16136:	f8c0 30c0 	str.w	r3, [r0, #192]	; 0xc0
   1613a:	4618      	mov	r0, r3
   1613c:	bd30      	pop	{r4, r5, pc}
   1613e:	f06f 00ac 	mvn.w	r0, #172	; 0xac
   16142:	e7fb      	b.n	1613c <wc_InitSha384_ex+0x6c>
   16144:	f3af 8000 	nop.w
   16148:	c1059ed8 	.word	0xc1059ed8
   1614c:	cbbb9d5d 	.word	0xcbbb9d5d
   16150:	367cd507 	.word	0x367cd507
   16154:	629a292a 	.word	0x629a292a
   16158:	3070dd17 	.word	0x3070dd17
   1615c:	9159015a 	.word	0x9159015a
   16160:	f70e5939 	.word	0xf70e5939
   16164:	152fecd8 	.word	0x152fecd8
   16168:	ffc00b31 	.word	0xffc00b31
   1616c:	67332667 	.word	0x67332667
   16170:	68581511 	.word	0x68581511
   16174:	8eb44a87 	.word	0x8eb44a87
   16178:	64f98fa7 	.word	0x64f98fa7
   1617c:	db0c2e0d 	.word	0xdb0c2e0d
   16180:	befa4fa4 	.word	0xbefa4fa4
   16184:	47b5481d 	.word	0x47b5481d

00016188 <wc_InitSha384>:
   16188:	f06f 0201 	mvn.w	r2, #1
   1618c:	2100      	movs	r1, #0
   1618e:	f7ff bf9f 	b.w	160d0 <wc_InitSha384_ex>

00016192 <wc_Sha384Free>:
   16192:	4770      	bx	lr

00016194 <wc_InitSha512_224>:
   16194:	f06f 0201 	mvn.w	r2, #1
   16198:	2100      	movs	r1, #0
   1619a:	f7ff beaf 	b.w	15efc <wc_InitSha512_224_ex>

0001619e <wc_Sha512_224Update>:
   1619e:	f7ff bebd 	b.w	15f1c <wc_Sha512Update>

000161a2 <wc_Sha512_224Free>:
   161a2:	4770      	bx	lr

000161a4 <wc_InitSha512_256>:
   161a4:	f06f 0201 	mvn.w	r2, #1
   161a8:	2100      	movs	r1, #0
   161aa:	f7ff beaf 	b.w	15f0c <wc_InitSha512_256_ex>

000161ae <wc_Sha512_256Update>:
   161ae:	f7ff beb5 	b.w	15f1c <wc_Sha512Update>

000161b2 <wc_Sha512_256Free>:
   161b2:	4770      	bx	lr

000161b4 <BlockSha3>:
   161b4:	e92d 4ff0 	stmdb	sp!, {r4, r5, r6, r7, r8, r9, sl, fp, lr}
   161b8:	b0cb      	sub	sp, #300	; 0x12c
   161ba:	6a83      	ldr	r3, [r0, #40]	; 0x28
   161bc:	e9d0 1200 	ldrd	r1, r2, [r0]
   161c0:	930d      	str	r3, [sp, #52]	; 0x34
   161c2:	6ac3      	ldr	r3, [r0, #44]	; 0x2c
   161c4:	930e      	str	r3, [sp, #56]	; 0x38
   161c6:	6d03      	ldr	r3, [r0, #80]	; 0x50
   161c8:	930f      	str	r3, [sp, #60]	; 0x3c
   161ca:	6d43      	ldr	r3, [r0, #84]	; 0x54
   161cc:	9310      	str	r3, [sp, #64]	; 0x40
   161ce:	6f83      	ldr	r3, [r0, #120]	; 0x78
   161d0:	9311      	str	r3, [sp, #68]	; 0x44
   161d2:	6fc3      	ldr	r3, [r0, #124]	; 0x7c
   161d4:	9312      	str	r3, [sp, #72]	; 0x48
   161d6:	f8d0 30a0 	ldr.w	r3, [r0, #160]	; 0xa0
   161da:	9313      	str	r3, [sp, #76]	; 0x4c
   161dc:	f8d0 30a4 	ldr.w	r3, [r0, #164]	; 0xa4
   161e0:	9314      	str	r3, [sp, #80]	; 0x50
   161e2:	6883      	ldr	r3, [r0, #8]
   161e4:	9315      	str	r3, [sp, #84]	; 0x54
   161e6:	68c3      	ldr	r3, [r0, #12]
   161e8:	9316      	str	r3, [sp, #88]	; 0x58
   161ea:	6b03      	ldr	r3, [r0, #48]	; 0x30
   161ec:	931d      	str	r3, [sp, #116]	; 0x74
   161ee:	6b43      	ldr	r3, [r0, #52]	; 0x34
   161f0:	931e      	str	r3, [sp, #120]	; 0x78
   161f2:	6d83      	ldr	r3, [r0, #88]	; 0x58
   161f4:	9325      	str	r3, [sp, #148]	; 0x94
   161f6:	6dc3      	ldr	r3, [r0, #92]	; 0x5c
   161f8:	9326      	str	r3, [sp, #152]	; 0x98
   161fa:	f8d0 3080 	ldr.w	r3, [r0, #128]	; 0x80
   161fe:	932d      	str	r3, [sp, #180]	; 0xb4
   16200:	f8d0 3084 	ldr.w	r3, [r0, #132]	; 0x84
   16204:	932e      	str	r3, [sp, #184]	; 0xb8
   16206:	f8d0 30a8 	ldr.w	r3, [r0, #168]	; 0xa8
   1620a:	9335      	str	r3, [sp, #212]	; 0xd4
   1620c:	f8d0 30ac 	ldr.w	r3, [r0, #172]	; 0xac
   16210:	9336      	str	r3, [sp, #216]	; 0xd8
   16212:	6903      	ldr	r3, [r0, #16]
   16214:	9317      	str	r3, [sp, #92]	; 0x5c
   16216:	6943      	ldr	r3, [r0, #20]
   16218:	9318      	str	r3, [sp, #96]	; 0x60
   1621a:	6b83      	ldr	r3, [r0, #56]	; 0x38
   1621c:	931f      	str	r3, [sp, #124]	; 0x7c
   1621e:	6bc3      	ldr	r3, [r0, #60]	; 0x3c
   16220:	9320      	str	r3, [sp, #128]	; 0x80
   16222:	6e03      	ldr	r3, [r0, #96]	; 0x60
   16224:	9327      	str	r3, [sp, #156]	; 0x9c
   16226:	6e43      	ldr	r3, [r0, #100]	; 0x64
   16228:	9328      	str	r3, [sp, #160]	; 0xa0
   1622a:	f8d0 3088 	ldr.w	r3, [r0, #136]	; 0x88
   1622e:	932f      	str	r3, [sp, #188]	; 0xbc
   16230:	f8d0 308c 	ldr.w	r3, [r0, #140]	; 0x8c
   16234:	9330      	str	r3, [sp, #192]	; 0xc0
   16236:	f8d0 30b0 	ldr.w	r3, [r0, #176]	; 0xb0
   1623a:	9337      	str	r3, [sp, #220]	; 0xdc
   1623c:	f8d0 30b4 	ldr.w	r3, [r0, #180]	; 0xb4
   16240:	9338      	str	r3, [sp, #224]	; 0xe0
   16242:	6983      	ldr	r3, [r0, #24]
   16244:	9319      	str	r3, [sp, #100]	; 0x64
   16246:	69c3      	ldr	r3, [r0, #28]
   16248:	931a      	str	r3, [sp, #104]	; 0x68
   1624a:	6c03      	ldr	r3, [r0, #64]	; 0x40
   1624c:	9321      	str	r3, [sp, #132]	; 0x84
   1624e:	6c43      	ldr	r3, [r0, #68]	; 0x44
   16250:	9322      	str	r3, [sp, #136]	; 0x88
   16252:	6e83      	ldr	r3, [r0, #104]	; 0x68
   16254:	9329      	str	r3, [sp, #164]	; 0xa4
   16256:	6ec3      	ldr	r3, [r0, #108]	; 0x6c
   16258:	932a      	str	r3, [sp, #168]	; 0xa8
   1625a:	f8d0 3090 	ldr.w	r3, [r0, #144]	; 0x90
   1625e:	9331      	str	r3, [sp, #196]	; 0xc4
   16260:	f8d0 3094 	ldr.w	r3, [r0, #148]	; 0x94
   16264:	9332      	str	r3, [sp, #200]	; 0xc8
   16266:	f8d0 30b8 	ldr.w	r3, [r0, #184]	; 0xb8
   1626a:	9339      	str	r3, [sp, #228]	; 0xe4
   1626c:	f8d0 30bc 	ldr.w	r3, [r0, #188]	; 0xbc
   16270:	933a      	str	r3, [sp, #232]	; 0xe8
   16272:	6a03      	ldr	r3, [r0, #32]
   16274:	931b      	str	r3, [sp, #108]	; 0x6c
   16276:	6a43      	ldr	r3, [r0, #36]	; 0x24
   16278:	931c      	str	r3, [sp, #112]	; 0x70
   1627a:	6c83      	ldr	r3, [r0, #72]	; 0x48
   1627c:	9323      	str	r3, [sp, #140]	; 0x8c
   1627e:	6cc3      	ldr	r3, [r0, #76]	; 0x4c
   16280:	9324      	str	r3, [sp, #144]	; 0x90
   16282:	6f03      	ldr	r3, [r0, #112]	; 0x70
   16284:	932b      	str	r3, [sp, #172]	; 0xac
   16286:	6f43      	ldr	r3, [r0, #116]	; 0x74
   16288:	932c      	str	r3, [sp, #176]	; 0xb0
   1628a:	f8d0 3098 	ldr.w	r3, [r0, #152]	; 0x98
   1628e:	9333      	str	r3, [sp, #204]	; 0xcc
   16290:	f8d0 309c 	ldr.w	r3, [r0, #156]	; 0x9c
   16294:	9334      	str	r3, [sp, #208]	; 0xd0
   16296:	f8d0 30c0 	ldr.w	r3, [r0, #192]	; 0xc0
   1629a:	933b      	str	r3, [sp, #236]	; 0xec
   1629c:	f8d0 30c4 	ldr.w	r3, [r0, #196]	; 0xc4
   162a0:	933c      	str	r3, [sp, #240]	; 0xf0
   162a2:	4b01      	ldr	r3, [pc, #4]	; (162a8 <BlockSha3+0xf4>)
   162a4:	9300      	str	r3, [sp, #0]
   162a6:	e001      	b.n	162ac <BlockSha3+0xf8>
   162a8:	0001d0c8 	.word	0x0001d0c8
   162ac:	9b0d      	ldr	r3, [sp, #52]	; 0x34
   162ae:	9c1d      	ldr	r4, [sp, #116]	; 0x74
   162b0:	9e20      	ldr	r6, [sp, #128]	; 0x80
   162b2:	ea81 0503 	eor.w	r5, r1, r3
   162b6:	9b0e      	ldr	r3, [sp, #56]	; 0x38
   162b8:	ea82 0c03 	eor.w	ip, r2, r3
   162bc:	9b0f      	ldr	r3, [sp, #60]	; 0x3c
   162be:	405d      	eors	r5, r3
   162c0:	9b10      	ldr	r3, [sp, #64]	; 0x40
   162c2:	ea8c 0c03 	eor.w	ip, ip, r3
   162c6:	9b11      	ldr	r3, [sp, #68]	; 0x44
   162c8:	405d      	eors	r5, r3
   162ca:	9b12      	ldr	r3, [sp, #72]	; 0x48
   162cc:	ea8c 0c03 	eor.w	ip, ip, r3
   162d0:	9b13      	ldr	r3, [sp, #76]	; 0x4c
   162d2:	405d      	eors	r5, r3
   162d4:	9b14      	ldr	r3, [sp, #80]	; 0x50
   162d6:	ea8c 0c03 	eor.w	ip, ip, r3
   162da:	9b15      	ldr	r3, [sp, #84]	; 0x54
   162dc:	ea83 0b04 	eor.w	fp, r3, r4
   162e0:	9b16      	ldr	r3, [sp, #88]	; 0x58
   162e2:	9c1e      	ldr	r4, [sp, #120]	; 0x78
   162e4:	ea83 0a04 	eor.w	sl, r3, r4
   162e8:	9c1f      	ldr	r4, [sp, #124]	; 0x7c
   162ea:	9b25      	ldr	r3, [sp, #148]	; 0x94
   162ec:	ea8b 0b03 	eor.w	fp, fp, r3
   162f0:	9b26      	ldr	r3, [sp, #152]	; 0x98
   162f2:	ea8a 0a03 	eor.w	sl, sl, r3
   162f6:	9b2d      	ldr	r3, [sp, #180]	; 0xb4
   162f8:	ea8b 0b03 	eor.w	fp, fp, r3
   162fc:	9b2e      	ldr	r3, [sp, #184]	; 0xb8
   162fe:	ea8a 0a03 	eor.w	sl, sl, r3
   16302:	9b35      	ldr	r3, [sp, #212]	; 0xd4
   16304:	ea8b 0b03 	eor.w	fp, fp, r3
   16308:	9b36      	ldr	r3, [sp, #216]	; 0xd8
   1630a:	ea8a 0a03 	eor.w	sl, sl, r3
   1630e:	9b17      	ldr	r3, [sp, #92]	; 0x5c
   16310:	4063      	eors	r3, r4
   16312:	9c18      	ldr	r4, [sp, #96]	; 0x60
   16314:	ea84 0e06 	eor.w	lr, r4, r6
   16318:	9e21      	ldr	r6, [sp, #132]	; 0x84
   1631a:	9c27      	ldr	r4, [sp, #156]	; 0x9c
   1631c:	4063      	eors	r3, r4
   1631e:	9c28      	ldr	r4, [sp, #160]	; 0xa0
   16320:	ea8e 0e04 	eor.w	lr, lr, r4
   16324:	9c2f      	ldr	r4, [sp, #188]	; 0xbc
   16326:	4063      	eors	r3, r4
   16328:	9c30      	ldr	r4, [sp, #192]	; 0xc0
   1632a:	ea8e 0e04 	eor.w	lr, lr, r4
   1632e:	9c37      	ldr	r4, [sp, #220]	; 0xdc
   16330:	4063      	eors	r3, r4
   16332:	9c38      	ldr	r4, [sp, #224]	; 0xe0
   16334:	9307      	str	r3, [sp, #28]
   16336:	ea8e 0e04 	eor.w	lr, lr, r4
   1633a:	9c19      	ldr	r4, [sp, #100]	; 0x64
   1633c:	4074      	eors	r4, r6
   1633e:	9e1a      	ldr	r6, [sp, #104]	; 0x68
   16340:	9f22      	ldr	r7, [sp, #136]	; 0x88
   16342:	4077      	eors	r7, r6
   16344:	9e29      	ldr	r6, [sp, #164]	; 0xa4
   16346:	4074      	eors	r4, r6
   16348:	9e2a      	ldr	r6, [sp, #168]	; 0xa8
   1634a:	4077      	eors	r7, r6
   1634c:	9e31      	ldr	r6, [sp, #196]	; 0xc4
   1634e:	4074      	eors	r4, r6
   16350:	9e32      	ldr	r6, [sp, #200]	; 0xc8
   16352:	4077      	eors	r7, r6
   16354:	9e39      	ldr	r6, [sp, #228]	; 0xe4
   16356:	4074      	eors	r4, r6
   16358:	9e3a      	ldr	r6, [sp, #232]	; 0xe8
   1635a:	4077      	eors	r7, r6
   1635c:	9e1b      	ldr	r6, [sp, #108]	; 0x6c
   1635e:	4633      	mov	r3, r6
   16360:	9e23      	ldr	r6, [sp, #140]	; 0x8c
   16362:	405e      	eors	r6, r3
   16364:	9b1c      	ldr	r3, [sp, #112]	; 0x70
   16366:	4698      	mov	r8, r3
   16368:	9b24      	ldr	r3, [sp, #144]	; 0x90
   1636a:	ea88 0903 	eor.w	r9, r8, r3
   1636e:	9b2b      	ldr	r3, [sp, #172]	; 0xac
   16370:	ea4f 084a 	mov.w	r8, sl, lsl #1
   16374:	405e      	eors	r6, r3
   16376:	9b2c      	ldr	r3, [sp, #176]	; 0xb0
   16378:	ea89 0903 	eor.w	r9, r9, r3
   1637c:	9b33      	ldr	r3, [sp, #204]	; 0xcc
   1637e:	405e      	eors	r6, r3
   16380:	9b34      	ldr	r3, [sp, #208]	; 0xd0
   16382:	ea89 0903 	eor.w	r9, r9, r3
   16386:	9b3b      	ldr	r3, [sp, #236]	; 0xec
   16388:	405e      	eors	r6, r3
   1638a:	9b3c      	ldr	r3, [sp, #240]	; 0xf0
   1638c:	ea89 0903 	eor.w	r9, r9, r3
   16390:	ea48 73db 	orr.w	r3, r8, fp, lsr #31
   16394:	ea4f 084b 	mov.w	r8, fp, lsl #1
   16398:	ea48 78da 	orr.w	r8, r8, sl, lsr #31
   1639c:	9302      	str	r3, [sp, #8]
   1639e:	ea88 0306 	eor.w	r3, r8, r6
   163a2:	9301      	str	r3, [sp, #4]
   163a4:	9b02      	ldr	r3, [sp, #8]
   163a6:	ea83 0309 	eor.w	r3, r3, r9
   163aa:	9302      	str	r3, [sp, #8]
   163ac:	9b01      	ldr	r3, [sp, #4]
   163ae:	404b      	eors	r3, r1
   163b0:	ea4f 014e 	mov.w	r1, lr, lsl #1
   163b4:	933d      	str	r3, [sp, #244]	; 0xf4
   163b6:	9b02      	ldr	r3, [sp, #8]
   163b8:	4053      	eors	r3, r2
   163ba:	933e      	str	r3, [sp, #248]	; 0xf8
   163bc:	9b07      	ldr	r3, [sp, #28]
   163be:	005a      	lsls	r2, r3, #1
   163c0:	ea41 71d3 	orr.w	r1, r1, r3, lsr #31
   163c4:	ea42 72de 	orr.w	r2, r2, lr, lsr #31
   163c8:	ea82 0305 	eor.w	r3, r2, r5
   163cc:	007a      	lsls	r2, r7, #1
   163ce:	9303      	str	r3, [sp, #12]
   163d0:	ea81 030c 	eor.w	r3, r1, ip
   163d4:	0061      	lsls	r1, r4, #1
   163d6:	ea42 72d4 	orr.w	r2, r2, r4, lsr #31
   163da:	ea41 71d7 	orr.w	r1, r1, r7, lsr #31
   163de:	9304      	str	r3, [sp, #16]
   163e0:	ea81 030b 	eor.w	r3, r1, fp
   163e4:	9305      	str	r3, [sp, #20]
   163e6:	ea82 030a 	eor.w	r3, r2, sl
   163ea:	ea4f 0249 	mov.w	r2, r9, lsl #1
   163ee:	9306      	str	r3, [sp, #24]
   163f0:	ea42 72d6 	orr.w	r2, r2, r6, lsr #31
   163f4:	9b07      	ldr	r3, [sp, #28]
   163f6:	0076      	lsls	r6, r6, #1
   163f8:	ea46 76d9 	orr.w	r6, r6, r9, lsr #31
   163fc:	4073      	eors	r3, r6
   163fe:	9307      	str	r3, [sp, #28]
   16400:	ea82 030e 	eor.w	r3, r2, lr
   16404:	9308      	str	r3, [sp, #32]
   16406:	ea4f 034c 	mov.w	r3, ip, lsl #1
   1640a:	ea43 73d5 	orr.w	r3, r3, r5, lsr #31
   1640e:	006d      	lsls	r5, r5, #1
   16410:	407b      	eors	r3, r7
   16412:	ea45 75dc 	orr.w	r5, r5, ip, lsr #31
   16416:	ea85 0204 	eor.w	r2, r5, r4
   1641a:	e9cd 2309 	strd	r2, r3, [sp, #36]	; 0x24
   1641e:	9b03      	ldr	r3, [sp, #12]
   16420:	9a1d      	ldr	r2, [sp, #116]	; 0x74
   16422:	ea83 0b02 	eor.w	fp, r3, r2
   16426:	9b04      	ldr	r3, [sp, #16]
   16428:	ea4f 541b 	mov.w	r4, fp, lsr #20
   1642c:	9a1e      	ldr	r2, [sp, #120]	; 0x78
   1642e:	ea83 0702 	eor.w	r7, r3, r2
   16432:	9b05      	ldr	r3, [sp, #20]
   16434:	ea44 3407 	orr.w	r4, r4, r7, lsl #12
   16438:	9a27      	ldr	r2, [sp, #156]	; 0x9c
   1643a:	0d3f      	lsrs	r7, r7, #20
   1643c:	ea47 390b 	orr.w	r9, r7, fp, lsl #12
   16440:	ea83 0102 	eor.w	r1, r3, r2
   16444:	9b06      	ldr	r3, [sp, #24]
   16446:	ea4f 5851 	mov.w	r8, r1, lsr #21
   1644a:	9a28      	ldr	r2, [sp, #160]	; 0xa0
   1644c:	405a      	eors	r2, r3
   1644e:	ea48 23c2 	orr.w	r3, r8, r2, lsl #11
   16452:	0d52      	lsrs	r2, r2, #21
   16454:	930b      	str	r3, [sp, #44]	; 0x2c
   16456:	ea42 23c1 	orr.w	r3, r2, r1, lsl #11
   1645a:	9f0b      	ldr	r7, [sp, #44]	; 0x2c
   1645c:	930c      	str	r3, [sp, #48]	; 0x30
   1645e:	9b07      	ldr	r3, [sp, #28]
   16460:	9a31      	ldr	r2, [sp, #196]	; 0xc4
   16462:	ea83 0102 	eor.w	r1, r3, r2
   16466:	9b08      	ldr	r3, [sp, #32]
   16468:	9a32      	ldr	r2, [sp, #200]	; 0xc8
   1646a:	ea83 0c02 	eor.w	ip, r3, r2
   1646e:	9b09      	ldr	r3, [sp, #36]	; 0x24
   16470:	ea4f 524c 	mov.w	r2, ip, lsl #21
   16474:	ea42 22d1 	orr.w	r2, r2, r1, lsr #11
   16478:	0549      	lsls	r1, r1, #21
   1647a:	ea41 2cdc 	orr.w	ip, r1, ip, lsr #11
   1647e:	993b      	ldr	r1, [sp, #236]	; 0xec
   16480:	ea47 0e0c 	orr.w	lr, r7, ip
   16484:	9f0c      	ldr	r7, [sp, #48]	; 0x30
   16486:	ea83 0801 	eor.w	r8, r3, r1
   1648a:	9b0a      	ldr	r3, [sp, #40]	; 0x28
   1648c:	993c      	ldr	r1, [sp, #240]	; 0xf0
   1648e:	4317      	orrs	r7, r2
   16490:	ea83 0601 	eor.w	r6, r3, r1
   16494:	9b0b      	ldr	r3, [sp, #44]	; 0x2c
   16496:	03b1      	lsls	r1, r6, #14
   16498:	ea41 4198 	orr.w	r1, r1, r8, lsr #18
   1649c:	ea4f 3888 	mov.w	r8, r8, lsl #14
   164a0:	4063      	eors	r3, r4
   164a2:	ea48 4696 	orr.w	r6, r8, r6, lsr #18
   164a6:	ea82 0801 	eor.w	r8, r2, r1
   164aa:	ea21 0202 	bic.w	r2, r1, r2
   164ae:	9348      	str	r3, [sp, #288]	; 0x120
   164b0:	9b0c      	ldr	r3, [sp, #48]	; 0x30
   164b2:	ea8c 0506 	eor.w	r5, ip, r6
   164b6:	ea26 0c0c 	bic.w	ip, r6, ip
   164ba:	ea89 0303 	eor.w	r3, r9, r3
   164be:	9349      	str	r3, [sp, #292]	; 0x124
   164c0:	9b48      	ldr	r3, [sp, #288]	; 0x120
   164c2:	ea8e 0303 	eor.w	r3, lr, r3
   164c6:	9327      	str	r3, [sp, #156]	; 0x9c
   164c8:	9b49      	ldr	r3, [sp, #292]	; 0x124
   164ca:	407b      	eors	r3, r7
   164cc:	9328      	str	r3, [sp, #160]	; 0xa0
   164ce:	9b0b      	ldr	r3, [sp, #44]	; 0x2c
   164d0:	ea8c 0303 	eor.w	r3, ip, r3
   164d4:	933b      	str	r3, [sp, #236]	; 0xec
   164d6:	9b0c      	ldr	r3, [sp, #48]	; 0x30
   164d8:	4053      	eors	r3, r2
   164da:	933c      	str	r3, [sp, #240]	; 0xf0
   164dc:	9b3d      	ldr	r3, [sp, #244]	; 0xf4
   164de:	ea43 0706 	orr.w	r7, r3, r6
   164e2:	9b3e      	ldr	r3, [sp, #248]	; 0xf8
   164e4:	ea43 0201 	orr.w	r2, r3, r1
   164e8:	ea87 0305 	eor.w	r3, r7, r5
   164ec:	931d      	str	r3, [sp, #116]	; 0x74
   164ee:	ea82 0308 	eor.w	r3, r2, r8
   164f2:	9a19      	ldr	r2, [sp, #100]	; 0x64
   164f4:	931e      	str	r3, [sp, #120]	; 0x78
   164f6:	9b3d      	ldr	r3, [sp, #244]	; 0xf4
   164f8:	ea24 0403 	bic.w	r4, r4, r3
   164fc:	9b3e      	ldr	r3, [sp, #248]	; 0xf8
   164fe:	ea29 0903 	bic.w	r9, r9, r3
   16502:	ea84 0306 	eor.w	r3, r4, r6
   16506:	9c02      	ldr	r4, [sp, #8]
   16508:	9331      	str	r3, [sp, #196]	; 0xc4
   1650a:	ea89 0301 	eor.w	r3, r9, r1
   1650e:	9332      	str	r3, [sp, #200]	; 0xc8
   16510:	9b07      	ldr	r3, [sp, #28]
   16512:	ea83 0102 	eor.w	r1, r3, r2
   16516:	9b08      	ldr	r3, [sp, #32]
   16518:	9a1a      	ldr	r2, [sp, #104]	; 0x68
   1651a:	4053      	eors	r3, r2
   1651c:	ea4f 7e03 	mov.w	lr, r3, lsl #28
   16520:	ea4e 1211 	orr.w	r2, lr, r1, lsr #4
   16524:	0709      	lsls	r1, r1, #28
   16526:	ea41 1313 	orr.w	r3, r1, r3, lsr #4
   1652a:	e9cd 3219 	strd	r3, r2, [sp, #100]	; 0x64
   1652e:	9b09      	ldr	r3, [sp, #36]	; 0x24
   16530:	9a23      	ldr	r2, [sp, #140]	; 0x8c
   16532:	ea83 0c02 	eor.w	ip, r3, r2
   16536:	9b0a      	ldr	r3, [sp, #40]	; 0x28
   16538:	9a24      	ldr	r2, [sp, #144]	; 0x90
   1653a:	ea83 0102 	eor.w	r1, r3, r2
   1653e:	9a01      	ldr	r2, [sp, #4]
   16540:	050b      	lsls	r3, r1, #20
   16542:	ea43 391c 	orr.w	r9, r3, ip, lsr #12
   16546:	9b0f      	ldr	r3, [sp, #60]	; 0x3c
   16548:	ea4f 5c0c 	mov.w	ip, ip, lsl #20
   1654c:	ea4c 3111 	orr.w	r1, ip, r1, lsr #12
   16550:	4053      	eors	r3, r2
   16552:	9a10      	ldr	r2, [sp, #64]	; 0x40
   16554:	ea82 0604 	eor.w	r6, r2, r4
   16558:	9a2d      	ldr	r2, [sp, #180]	; 0xb4
   1655a:	ea4f 08c6 	mov.w	r8, r6, lsl #3
   1655e:	ea48 7853 	orr.w	r8, r8, r3, lsr #29
   16562:	00db      	lsls	r3, r3, #3
   16564:	ea43 7656 	orr.w	r6, r3, r6, lsr #29
   16568:	9b03      	ldr	r3, [sp, #12]
   1656a:	ea26 0a01 	bic.w	sl, r6, r1
   1656e:	ea83 0502 	eor.w	r5, r3, r2
   16572:	9b04      	ldr	r3, [sp, #16]
   16574:	ea4f 4cd5 	mov.w	ip, r5, lsr #19
   16578:	9a2e      	ldr	r2, [sp, #184]	; 0xb8
   1657a:	405a      	eors	r2, r3
   1657c:	9b05      	ldr	r3, [sp, #20]
   1657e:	ea4c 3c42 	orr.w	ip, ip, r2, lsl #13
   16582:	0cd2      	lsrs	r2, r2, #19
   16584:	ea42 3b45 	orr.w	fp, r2, r5, lsl #13
   16588:	9a37      	ldr	r2, [sp, #220]	; 0xdc
   1658a:	ea83 0502 	eor.w	r5, r3, r2
   1658e:	9b06      	ldr	r3, [sp, #24]
   16590:	ea4f 0ed5 	mov.w	lr, r5, lsr #3
   16594:	9a38      	ldr	r2, [sp, #224]	; 0xe0
   16596:	ea83 0402 	eor.w	r4, r3, r2
   1659a:	ea89 0208 	eor.w	r2, r9, r8
   1659e:	ea4e 7e44 	orr.w	lr, lr, r4, lsl #29
   165a2:	08e4      	lsrs	r4, r4, #3
   165a4:	ea8c 030e 	eor.w	r3, ip, lr
   165a8:	ea44 7745 	orr.w	r7, r4, r5, lsl #29
   165ac:	ea81 0506 	eor.w	r5, r1, r6
   165b0:	ea8b 0407 	eor.w	r4, fp, r7
   165b4:	e9cd 340f 	strd	r3, r4, [sp, #60]	; 0x3c
   165b8:	ea28 0409 	bic.w	r4, r8, r9
   165bc:	9b19      	ldr	r3, [sp, #100]	; 0x64
   165be:	ea8a 0303 	eor.w	r3, sl, r3
   165c2:	ea46 0a0c 	orr.w	sl, r6, ip
   165c6:	ea2e 0c0c 	bic.w	ip, lr, ip
   165ca:	932d      	str	r3, [sp, #180]	; 0xb4
   165cc:	9b1a      	ldr	r3, [sp, #104]	; 0x68
   165ce:	4063      	eors	r3, r4
   165d0:	ea48 040b 	orr.w	r4, r8, fp
   165d4:	ea27 0b0b 	bic.w	fp, r7, fp
   165d8:	932e      	str	r3, [sp, #184]	; 0xb8
   165da:	ea8a 0305 	eor.w	r3, sl, r5
   165de:	9323      	str	r3, [sp, #140]	; 0x8c
   165e0:	ea84 0302 	eor.w	r3, r4, r2
   165e4:	9324      	str	r3, [sp, #144]	; 0x90
   165e6:	ea8c 0306 	eor.w	r3, ip, r6
   165ea:	9337      	str	r3, [sp, #220]	; 0xdc
   165ec:	ea8b 0308 	eor.w	r3, fp, r8
   165f0:	9338      	str	r3, [sp, #224]	; 0xe0
   165f2:	9b19      	ldr	r3, [sp, #100]	; 0x64
   165f4:	ea43 040e 	orr.w	r4, r3, lr
   165f8:	9b1a      	ldr	r3, [sp, #104]	; 0x68
   165fa:	ea43 0207 	orr.w	r2, r3, r7
   165fe:	9b0f      	ldr	r3, [sp, #60]	; 0x3c
   16600:	4063      	eors	r3, r4
   16602:	933f      	str	r3, [sp, #252]	; 0xfc
   16604:	9b10      	ldr	r3, [sp, #64]	; 0x40
   16606:	4053      	eors	r3, r2
   16608:	9340      	str	r3, [sp, #256]	; 0x100
   1660a:	9b19      	ldr	r3, [sp, #100]	; 0x64
   1660c:	ea21 0103 	bic.w	r1, r1, r3
   16610:	9b1a      	ldr	r3, [sp, #104]	; 0x68
   16612:	ea81 020e 	eor.w	r2, r1, lr
   16616:	991f      	ldr	r1, [sp, #124]	; 0x7c
   16618:	ea29 0303 	bic.w	r3, r9, r3
   1661c:	407b      	eors	r3, r7
   1661e:	e9cd 2341 	strd	r2, r3, [sp, #260]	; 0x104
   16622:	9b03      	ldr	r3, [sp, #12]
   16624:	9a15      	ldr	r2, [sp, #84]	; 0x54
   16626:	ea83 0402 	eor.w	r4, r3, r2
   1662a:	9b04      	ldr	r3, [sp, #16]
   1662c:	9a16      	ldr	r2, [sp, #88]	; 0x58
   1662e:	405a      	eors	r2, r3
   16630:	0053      	lsls	r3, r2, #1
   16632:	ea43 73d4 	orr.w	r3, r3, r4, lsr #31
   16636:	0064      	lsls	r4, r4, #1
   16638:	930f      	str	r3, [sp, #60]	; 0x3c
   1663a:	ea44 72d2 	orr.w	r2, r4, r2, lsr #31
   1663e:	9b05      	ldr	r3, [sp, #20]
   16640:	ea83 0601 	eor.w	r6, r3, r1
   16644:	9b06      	ldr	r3, [sp, #24]
   16646:	9920      	ldr	r1, [sp, #128]	; 0x80
   16648:	ea83 0a01 	eor.w	sl, r3, r1
   1664c:	9929      	ldr	r1, [sp, #164]	; 0xa4
   1664e:	ea4f 138a 	mov.w	r3, sl, lsl #6
   16652:	ea43 6496 	orr.w	r4, r3, r6, lsr #26
   16656:	01b6      	lsls	r6, r6, #6
   16658:	ea46 639a 	orr.w	r3, r6, sl, lsr #26
   1665c:	9310      	str	r3, [sp, #64]	; 0x40
   1665e:	9b07      	ldr	r3, [sp, #28]
   16660:	ea83 0e01 	eor.w	lr, r3, r1
   16664:	9b08      	ldr	r3, [sp, #32]
   16666:	992a      	ldr	r1, [sp, #168]	; 0xa8
   16668:	404b      	eors	r3, r1
   1666a:	9933      	ldr	r1, [sp, #204]	; 0xcc
   1666c:	ea4f 6c43 	mov.w	ip, r3, lsl #25
   16670:	ea4c 1cde 	orr.w	ip, ip, lr, lsr #7
   16674:	ea4f 6e4e 	mov.w	lr, lr, lsl #25
   16678:	ea4e 15d3 	orr.w	r5, lr, r3, lsr #7
   1667c:	9b09      	ldr	r3, [sp, #36]	; 0x24
   1667e:	ea83 0801 	eor.w	r8, r3, r1
   16682:	9b0a      	ldr	r3, [sp, #40]	; 0x28
   16684:	ea4f 2e08 	mov.w	lr, r8, lsl #8
   16688:	9934      	ldr	r1, [sp, #208]	; 0xd0
   1668a:	404b      	eors	r3, r1
   1668c:	9901      	ldr	r1, [sp, #4]
   1668e:	ea4e 6e13 	orr.w	lr, lr, r3, lsr #24
   16692:	021e      	lsls	r6, r3, #8
   16694:	9b13      	ldr	r3, [sp, #76]	; 0x4c
   16696:	ea46 6618 	orr.w	r6, r6, r8, lsr #24
   1669a:	ea83 0b01 	eor.w	fp, r3, r1
   1669e:	9902      	ldr	r1, [sp, #8]
   166a0:	ea4f 498b 	mov.w	r9, fp, lsl #18
   166a4:	9b14      	ldr	r3, [sp, #80]	; 0x50
   166a6:	404b      	eors	r3, r1
   166a8:	ea49 3993 	orr.w	r9, r9, r3, lsr #14
   166ac:	049f      	lsls	r7, r3, #18
   166ae:	9b10      	ldr	r3, [sp, #64]	; 0x40
   166b0:	ea8e 0a09 	eor.w	sl, lr, r9
   166b4:	ea47 379b 	orr.w	r7, r7, fp, lsr #14
   166b8:	ea83 0805 	eor.w	r8, r3, r5
   166bc:	ea84 030c 	eor.w	r3, r4, ip
   166c0:	9315      	str	r3, [sp, #84]	; 0x54
   166c2:	ea86 0307 	eor.w	r3, r6, r7
   166c6:	9319      	str	r3, [sp, #100]	; 0x64
   166c8:	9b10      	ldr	r3, [sp, #64]	; 0x40
   166ca:	ea25 0b03 	bic.w	fp, r5, r3
   166ce:	ea2c 0304 	bic.w	r3, ip, r4
   166d2:	ea8b 0102 	eor.w	r1, fp, r2
   166d6:	ea45 0b0e 	orr.w	fp, r5, lr
   166da:	ea29 0e0e 	bic.w	lr, r9, lr
   166de:	9113      	str	r1, [sp, #76]	; 0x4c
   166e0:	990f      	ldr	r1, [sp, #60]	; 0x3c
   166e2:	404b      	eors	r3, r1
   166e4:	ea8b 0108 	eor.w	r1, fp, r8
   166e8:	9314      	str	r3, [sp, #80]	; 0x50
   166ea:	ea4c 0306 	orr.w	r3, ip, r6
   166ee:	ea27 0606 	bic.w	r6, r7, r6
   166f2:	9134      	str	r1, [sp, #208]	; 0xd0
   166f4:	9915      	ldr	r1, [sp, #84]	; 0x54
   166f6:	404b      	eors	r3, r1
   166f8:	ea42 0109 	orr.w	r1, r2, r9
   166fc:	ea81 010a 	eor.w	r1, r1, sl
   16700:	9343      	str	r3, [sp, #268]	; 0x10c
   16702:	ea8e 0305 	eor.w	r3, lr, r5
   16706:	9315      	str	r3, [sp, #84]	; 0x54
   16708:	ea86 030c 	eor.w	r3, r6, ip
   1670c:	9129      	str	r1, [sp, #164]	; 0xa4
   1670e:	9316      	str	r3, [sp, #88]	; 0x58
   16710:	9b0f      	ldr	r3, [sp, #60]	; 0x3c
   16712:	9919      	ldr	r1, [sp, #100]	; 0x64
   16714:	433b      	orrs	r3, r7
   16716:	404b      	eors	r3, r1
   16718:	932a      	str	r3, [sp, #168]	; 0xa8
   1671a:	9b10      	ldr	r3, [sp, #64]	; 0x40
   1671c:	ea23 0202 	bic.w	r2, r3, r2
   16720:	9b0f      	ldr	r3, [sp, #60]	; 0x3c
   16722:	ea24 0403 	bic.w	r4, r4, r3
   16726:	ea82 0309 	eor.w	r3, r2, r9
   1672a:	9a1b      	ldr	r2, [sp, #108]	; 0x6c
   1672c:	9344      	str	r3, [sp, #272]	; 0x110
   1672e:	ea84 0307 	eor.w	r3, r4, r7
   16732:	9345      	str	r3, [sp, #276]	; 0x114
   16734:	9b09      	ldr	r3, [sp, #36]	; 0x24
   16736:	ea83 0802 	eor.w	r8, r3, r2
   1673a:	9b0a      	ldr	r3, [sp, #40]	; 0x28
   1673c:	9a1c      	ldr	r2, [sp, #112]	; 0x70
   1673e:	9d30      	ldr	r5, [sp, #192]	; 0xc0
   16740:	ea83 0a02 	eor.w	sl, r3, r2
   16744:	9a01      	ldr	r2, [sp, #4]
   16746:	ea4f 61ca 	mov.w	r1, sl, lsl #27
   1674a:	9b0d      	ldr	r3, [sp, #52]	; 0x34
   1674c:	ea41 1e58 	orr.w	lr, r1, r8, lsr #5
   16750:	ea4f 68c8 	mov.w	r8, r8, lsl #27
   16754:	9925      	ldr	r1, [sp, #148]	; 0x94
   16756:	ea48 1a5a 	orr.w	sl, r8, sl, lsr #5
   1675a:	ea83 0b02 	eor.w	fp, r3, r2
   1675e:	9a02      	ldr	r2, [sp, #8]
   16760:	9b0e      	ldr	r3, [sp, #56]	; 0x38
   16762:	ea83 0802 	eor.w	r8, r3, r2
   16766:	9a03      	ldr	r2, [sp, #12]
   16768:	ea4f 731b 	mov.w	r3, fp, lsr #28
   1676c:	ea43 1308 	orr.w	r3, r3, r8, lsl #4
   16770:	ea4f 7818 	mov.w	r8, r8, lsr #28
   16774:	ea82 0601 	eor.w	r6, r2, r1
   16778:	9a04      	ldr	r2, [sp, #16]
   1677a:	930d      	str	r3, [sp, #52]	; 0x34
   1677c:	ea48 130b 	orr.w	r3, r8, fp, lsl #4
   16780:	9926      	ldr	r1, [sp, #152]	; 0x98
   16782:	930e      	str	r3, [sp, #56]	; 0x38
   16784:	ea82 0401 	eor.w	r4, r2, r1
   16788:	9a05      	ldr	r2, [sp, #20]
   1678a:	02a7      	lsls	r7, r4, #10
   1678c:	992f      	ldr	r1, [sp, #188]	; 0xbc
   1678e:	ea47 5796 	orr.w	r7, r7, r6, lsr #22
   16792:	02b6      	lsls	r6, r6, #10
   16794:	ea46 5494 	orr.w	r4, r6, r4, lsr #22
   16798:	9e39      	ldr	r6, [sp, #228]	; 0xe4
   1679a:	4051      	eors	r1, r2
   1679c:	9a06      	ldr	r2, [sp, #24]
   1679e:	ea82 0905 	eor.w	r9, r2, r5
   167a2:	ea4f 35c9 	mov.w	r5, r9, lsl #15
   167a6:	ea45 4551 	orr.w	r5, r5, r1, lsr #17
   167aa:	03c9      	lsls	r1, r1, #15
   167ac:	ea41 4259 	orr.w	r2, r1, r9, lsr #17
   167b0:	9907      	ldr	r1, [sp, #28]
   167b2:	4071      	eors	r1, r6
   167b4:	9e08      	ldr	r6, [sp, #32]
   167b6:	4633      	mov	r3, r6
   167b8:	9e3a      	ldr	r6, [sp, #232]	; 0xe8
   167ba:	ea83 0c06 	eor.w	ip, r3, r6
   167be:	9b0d      	ldr	r3, [sp, #52]	; 0x34
   167c0:	0a0e      	lsrs	r6, r1, #8
   167c2:	ea46 660c 	orr.w	r6, r6, ip, lsl #24
   167c6:	ea4f 2c1c 	mov.w	ip, ip, lsr #8
   167ca:	4063      	eors	r3, r4
   167cc:	ea4c 6101 	orr.w	r1, ip, r1, lsl #24
   167d0:	930f      	str	r3, [sp, #60]	; 0x3c
   167d2:	ea85 0c01 	eor.w	ip, r5, r1
   167d6:	9b0e      	ldr	r3, [sp, #56]	; 0x38
   167d8:	ea83 0807 	eor.w	r8, r3, r7
   167dc:	ea82 0306 	eor.w	r3, r2, r6
   167e0:	9319      	str	r3, [sp, #100]	; 0x64
   167e2:	9b0d      	ldr	r3, [sp, #52]	; 0x34
   167e4:	ea24 0b03 	bic.w	fp, r4, r3
   167e8:	9b0e      	ldr	r3, [sp, #56]	; 0x38
   167ea:	ea27 0903 	bic.w	r9, r7, r3
   167ee:	ea8b 030a 	eor.w	r3, fp, sl
   167f2:	ea44 0b02 	orr.w	fp, r4, r2
   167f6:	ea26 0202 	bic.w	r2, r6, r2
   167fa:	9339      	str	r3, [sp, #228]	; 0xe4
   167fc:	ea89 030e 	eor.w	r3, r9, lr
   16800:	ea47 0905 	orr.w	r9, r7, r5
   16804:	ea21 0505 	bic.w	r5, r1, r5
   16808:	933a      	str	r3, [sp, #232]	; 0xe8
   1680a:	9b0f      	ldr	r3, [sp, #60]	; 0x3c
   1680c:	ea8b 0303 	eor.w	r3, fp, r3
   16810:	9310      	str	r3, [sp, #64]	; 0x40
   16812:	ea89 0308 	eor.w	r3, r9, r8
   16816:	931f      	str	r3, [sp, #124]	; 0x7c
   16818:	ea82 0304 	eor.w	r3, r2, r4
   1681c:	ea4a 0406 	orr.w	r4, sl, r6
   16820:	ea4e 0201 	orr.w	r2, lr, r1
   16824:	932f      	str	r3, [sp, #188]	; 0xbc
   16826:	ea85 0307 	eor.w	r3, r5, r7
   1682a:	9330      	str	r3, [sp, #192]	; 0xc0
   1682c:	9b19      	ldr	r3, [sp, #100]	; 0x64
   1682e:	4063      	eors	r3, r4
   16830:	930f      	str	r3, [sp, #60]	; 0x3c
   16832:	ea82 030c 	eor.w	r3, r2, ip
   16836:	9319      	str	r3, [sp, #100]	; 0x64
   16838:	9b0d      	ldr	r3, [sp, #52]	; 0x34
   1683a:	ea23 020a 	bic.w	r2, r3, sl
   1683e:	9b0e      	ldr	r3, [sp, #56]	; 0x38
   16840:	4072      	eors	r2, r6
   16842:	9e35      	ldr	r6, [sp, #212]	; 0xd4
   16844:	ea23 030e 	bic.w	r3, r3, lr
   16848:	404b      	eors	r3, r1
   1684a:	e9cd 2325 	strd	r2, r3, [sp, #148]	; 0x94
   1684e:	9b05      	ldr	r3, [sp, #20]
   16850:	9a17      	ldr	r2, [sp, #92]	; 0x5c
   16852:	ea83 0102 	eor.w	r1, r3, r2
   16856:	9b06      	ldr	r3, [sp, #24]
   16858:	9a18      	ldr	r2, [sp, #96]	; 0x60
   1685a:	405a      	eors	r2, r3
   1685c:	088b      	lsrs	r3, r1, #2
   1685e:	ea43 7382 	orr.w	r3, r3, r2, lsl #30
   16862:	0892      	lsrs	r2, r2, #2
   16864:	ea42 7c81 	orr.w	ip, r2, r1, lsl #30
   16868:	9305      	str	r3, [sp, #20]
   1686a:	9b07      	ldr	r3, [sp, #28]
   1686c:	e9dd 2121 	ldrd	r2, r1, [sp, #132]	; 0x84
   16870:	4053      	eors	r3, r2
   16872:	9a08      	ldr	r2, [sp, #32]
   16874:	404a      	eors	r2, r1
   16876:	0a59      	lsrs	r1, r3, #9
   16878:	ea41 5ec2 	orr.w	lr, r1, r2, lsl #23
   1687c:	992b      	ldr	r1, [sp, #172]	; 0xac
   1687e:	0a52      	lsrs	r2, r2, #9
   16880:	ea42 53c3 	orr.w	r3, r2, r3, lsl #23
   16884:	9a09      	ldr	r2, [sp, #36]	; 0x24
   16886:	9306      	str	r3, [sp, #24]
   16888:	ea82 0401 	eor.w	r4, r2, r1
   1688c:	9a0a      	ldr	r2, [sp, #40]	; 0x28
   1688e:	0e67      	lsrs	r7, r4, #25
   16890:	992c      	ldr	r1, [sp, #176]	; 0xb0
   16892:	404a      	eors	r2, r1
   16894:	9901      	ldr	r1, [sp, #4]
   16896:	ea47 17c2 	orr.w	r7, r7, r2, lsl #7
   1689a:	0e52      	lsrs	r2, r2, #25
   1689c:	ea27 0b0e 	bic.w	fp, r7, lr
   168a0:	ea42 14c4 	orr.w	r4, r2, r4, lsl #7
   168a4:	9a11      	ldr	r2, [sp, #68]	; 0x44
   168a6:	ea82 0801 	eor.w	r8, r2, r1
   168aa:	9902      	ldr	r1, [sp, #8]
   168ac:	ea4f 55d8 	mov.w	r5, r8, lsr #23
   168b0:	9a12      	ldr	r2, [sp, #72]	; 0x48
   168b2:	404a      	eors	r2, r1
   168b4:	9903      	ldr	r1, [sp, #12]
   168b6:	ea45 2542 	orr.w	r5, r5, r2, lsl #9
   168ba:	0dd2      	lsrs	r2, r2, #23
   168bc:	ea42 2248 	orr.w	r2, r2, r8, lsl #9
   168c0:	ea83 0804 	eor.w	r8, r3, r4
   168c4:	ea81 0a06 	eor.w	sl, r1, r6
   168c8:	9904      	ldr	r1, [sp, #16]
   168ca:	9e36      	ldr	r6, [sp, #216]	; 0xd8
   168cc:	4071      	eors	r1, r6
   168ce:	008e      	lsls	r6, r1, #2
   168d0:	ea46 769a 	orr.w	r6, r6, sl, lsr #30
   168d4:	ea4f 0a8a 	mov.w	sl, sl, lsl #2
   168d8:	ea4a 7191 	orr.w	r1, sl, r1, lsr #30
   168dc:	ea8e 0a07 	eor.w	sl, lr, r7
   168e0:	ea85 0301 	eor.w	r3, r5, r1
   168e4:	9301      	str	r3, [sp, #4]
   168e6:	ea82 0306 	eor.w	r3, r2, r6
   168ea:	9302      	str	r3, [sp, #8]
   168ec:	9b06      	ldr	r3, [sp, #24]
   168ee:	ea24 0903 	bic.w	r9, r4, r3
   168f2:	9b05      	ldr	r3, [sp, #20]
   168f4:	ea8b 0303 	eor.w	r3, fp, r3
   168f8:	ea47 0b05 	orr.w	fp, r7, r5
   168fc:	ea21 0505 	bic.w	r5, r1, r5
   16900:	9311      	str	r3, [sp, #68]	; 0x44
   16902:	ea89 030c 	eor.w	r3, r9, ip
   16906:	ea44 0902 	orr.w	r9, r4, r2
   1690a:	ea26 0202 	bic.w	r2, r6, r2
   1690e:	9312      	str	r3, [sp, #72]	; 0x48
   16910:	ea8b 030a 	eor.w	r3, fp, sl
   16914:	9335      	str	r3, [sp, #212]	; 0xd4
   16916:	ea89 0308 	eor.w	r3, r9, r8
   1691a:	9336      	str	r3, [sp, #216]	; 0xd8
   1691c:	ea85 0307 	eor.w	r3, r5, r7
   16920:	930d      	str	r3, [sp, #52]	; 0x34
   16922:	ea82 0304 	eor.w	r3, r2, r4
   16926:	ea4c 0406 	orr.w	r4, ip, r6
   1692a:	930e      	str	r3, [sp, #56]	; 0x38
   1692c:	9b05      	ldr	r3, [sp, #20]
   1692e:	ea43 0201 	orr.w	r2, r3, r1
   16932:	9b01      	ldr	r3, [sp, #4]
   16934:	4053      	eors	r3, r2
   16936:	9346      	str	r3, [sp, #280]	; 0x118
   16938:	9b02      	ldr	r3, [sp, #8]
   1693a:	4063      	eors	r3, r4
   1693c:	9347      	str	r3, [sp, #284]	; 0x11c
   1693e:	9b05      	ldr	r3, [sp, #20]
   16940:	ea2e 0203 	bic.w	r2, lr, r3
   16944:	9b06      	ldr	r3, [sp, #24]
   16946:	404a      	eors	r2, r1
   16948:	ea23 030c 	bic.w	r3, r3, ip
   1694c:	4073      	eors	r3, r6
   1694e:	e9cd 2317 	strd	r2, r3, [sp, #92]	; 0x5c
   16952:	9b00      	ldr	r3, [sp, #0]
   16954:	9a3d      	ldr	r2, [sp, #244]	; 0xf4
   16956:	e9d3 1300 	ldrd	r1, r3, [r3]
   1695a:	ea82 0401 	eor.w	r4, r2, r1
   1695e:	9a3e      	ldr	r2, [sp, #248]	; 0xf8
   16960:	9948      	ldr	r1, [sp, #288]	; 0x120
   16962:	4053      	eors	r3, r2
   16964:	9a0b      	ldr	r2, [sp, #44]	; 0x2c
   16966:	ea02 0801 	and.w	r8, r2, r1
   1696a:	9a0c      	ldr	r2, [sp, #48]	; 0x30
   1696c:	ea84 0808 	eor.w	r8, r4, r8
   16970:	9949      	ldr	r1, [sp, #292]	; 0x124
   16972:	400a      	ands	r2, r1
   16974:	4053      	eors	r3, r2
   16976:	9a13      	ldr	r2, [sp, #76]	; 0x4c
   16978:	9303      	str	r3, [sp, #12]
   1697a:	9b2d      	ldr	r3, [sp, #180]	; 0xb4
   1697c:	ea83 0102 	eor.w	r1, r3, r2
   16980:	9a14      	ldr	r2, [sp, #80]	; 0x50
   16982:	9b2e      	ldr	r3, [sp, #184]	; 0xb8
   16984:	ea83 0602 	eor.w	r6, r3, r2
   16988:	9b39      	ldr	r3, [sp, #228]	; 0xe4
   1698a:	4059      	eors	r1, r3
   1698c:	9b3a      	ldr	r3, [sp, #232]	; 0xe8
   1698e:	405e      	eors	r6, r3
   16990:	9b11      	ldr	r3, [sp, #68]	; 0x44
   16992:	9a23      	ldr	r2, [sp, #140]	; 0x8c
   16994:	9c38      	ldr	r4, [sp, #224]	; 0xe0
   16996:	4059      	eors	r1, r3
   16998:	9b12      	ldr	r3, [sp, #72]	; 0x48
   1699a:	ea81 0108 	eor.w	r1, r1, r8
   1699e:	9d40      	ldr	r5, [sp, #256]	; 0x100
   169a0:	405e      	eors	r6, r3
   169a2:	9b03      	ldr	r3, [sp, #12]
   169a4:	405e      	eors	r6, r3
   169a6:	9b27      	ldr	r3, [sp, #156]	; 0x9c
   169a8:	ea83 0b02 	eor.w	fp, r3, r2
   169ac:	9a24      	ldr	r2, [sp, #144]	; 0x90
   169ae:	9b28      	ldr	r3, [sp, #160]	; 0xa0
   169b0:	ea83 0a02 	eor.w	sl, r3, r2
   169b4:	9b34      	ldr	r3, [sp, #208]	; 0xd0
   169b6:	9a37      	ldr	r2, [sp, #220]	; 0xdc
   169b8:	ea8b 0b03 	eor.w	fp, fp, r3
   169bc:	9b43      	ldr	r3, [sp, #268]	; 0x10c
   169be:	ea8a 0a03 	eor.w	sl, sl, r3
   169c2:	9b10      	ldr	r3, [sp, #64]	; 0x40
   169c4:	ea8b 0b03 	eor.w	fp, fp, r3
   169c8:	9b1f      	ldr	r3, [sp, #124]	; 0x7c
   169ca:	ea8a 0a03 	eor.w	sl, sl, r3
   169ce:	9b35      	ldr	r3, [sp, #212]	; 0xd4
   169d0:	ea8b 0b03 	eor.w	fp, fp, r3
   169d4:	9b36      	ldr	r3, [sp, #216]	; 0xd8
   169d6:	ea8a 0a03 	eor.w	sl, sl, r3
   169da:	9b3b      	ldr	r3, [sp, #236]	; 0xec
   169dc:	ea4f 094a 	mov.w	r9, sl, lsl #1
   169e0:	ea49 79db 	orr.w	r9, r9, fp, lsr #31
   169e4:	4053      	eors	r3, r2
   169e6:	9a3c      	ldr	r2, [sp, #240]	; 0xf0
   169e8:	ea82 0c04 	eor.w	ip, r2, r4
   169ec:	9a15      	ldr	r2, [sp, #84]	; 0x54
   169ee:	9c3f      	ldr	r4, [sp, #252]	; 0xfc
   169f0:	4053      	eors	r3, r2
   169f2:	9a16      	ldr	r2, [sp, #88]	; 0x58
   169f4:	ea8c 0c02 	eor.w	ip, ip, r2
   169f8:	9a2f      	ldr	r2, [sp, #188]	; 0xbc
   169fa:	4053      	eors	r3, r2
   169fc:	9a30      	ldr	r2, [sp, #192]	; 0xc0
   169fe:	ea8c 0c02 	eor.w	ip, ip, r2
   16a02:	9a0d      	ldr	r2, [sp, #52]	; 0x34
   16a04:	4053      	eors	r3, r2
   16a06:	9a0e      	ldr	r2, [sp, #56]	; 0x38
   16a08:	ea8c 0c02 	eor.w	ip, ip, r2
   16a0c:	9a1d      	ldr	r2, [sp, #116]	; 0x74
   16a0e:	4054      	eors	r4, r2
   16a10:	9a1e      	ldr	r2, [sp, #120]	; 0x78
   16a12:	ea82 0705 	eor.w	r7, r2, r5
   16a16:	9a29      	ldr	r2, [sp, #164]	; 0xa4
   16a18:	4054      	eors	r4, r2
   16a1a:	9a2a      	ldr	r2, [sp, #168]	; 0xa8
   16a1c:	4057      	eors	r7, r2
   16a1e:	9a0f      	ldr	r2, [sp, #60]	; 0x3c
   16a20:	4054      	eors	r4, r2
   16a22:	9a19      	ldr	r2, [sp, #100]	; 0x64
   16a24:	4057      	eors	r7, r2
   16a26:	9a46      	ldr	r2, [sp, #280]	; 0x118
   16a28:	4054      	eors	r4, r2
   16a2a:	9a47      	ldr	r2, [sp, #284]	; 0x11c
   16a2c:	9d44      	ldr	r5, [sp, #272]	; 0x110
   16a2e:	4057      	eors	r7, r2
   16a30:	9a41      	ldr	r2, [sp, #260]	; 0x104
   16a32:	4055      	eors	r5, r2
   16a34:	9a42      	ldr	r2, [sp, #264]	; 0x108
   16a36:	4696      	mov	lr, r2
   16a38:	9a45      	ldr	r2, [sp, #276]	; 0x114
   16a3a:	ea8e 0e02 	eor.w	lr, lr, r2
   16a3e:	9a31      	ldr	r2, [sp, #196]	; 0xc4
   16a40:	4055      	eors	r5, r2
   16a42:	9a32      	ldr	r2, [sp, #200]	; 0xc8
   16a44:	ea8e 0e02 	eor.w	lr, lr, r2
   16a48:	9a25      	ldr	r2, [sp, #148]	; 0x94
   16a4a:	4055      	eors	r5, r2
   16a4c:	9a26      	ldr	r2, [sp, #152]	; 0x98
   16a4e:	ea8e 0e02 	eor.w	lr, lr, r2
   16a52:	9a17      	ldr	r2, [sp, #92]	; 0x5c
   16a54:	4055      	eors	r5, r2
   16a56:	9a18      	ldr	r2, [sp, #96]	; 0x60
   16a58:	ea8e 0e02 	eor.w	lr, lr, r2
   16a5c:	ea4f 024b 	mov.w	r2, fp, lsl #1
   16a60:	ea42 72da 	orr.w	r2, r2, sl, lsr #31
   16a64:	406a      	eors	r2, r5
   16a66:	9201      	str	r2, [sp, #4]
   16a68:	ea89 020e 	eor.w	r2, r9, lr
   16a6c:	9202      	str	r2, [sp, #8]
   16a6e:	9a01      	ldr	r2, [sp, #4]
   16a70:	ea88 0202 	eor.w	r2, r8, r2
   16a74:	923d      	str	r2, [sp, #244]	; 0xf4
   16a76:	9a03      	ldr	r2, [sp, #12]
   16a78:	4690      	mov	r8, r2
   16a7a:	9a02      	ldr	r2, [sp, #8]
   16a7c:	ea88 0202 	eor.w	r2, r8, r2
   16a80:	ea4f 084c 	mov.w	r8, ip, lsl #1
   16a84:	923e      	str	r2, [sp, #248]	; 0xf8
   16a86:	005a      	lsls	r2, r3, #1
   16a88:	ea48 78d3 	orr.w	r8, r8, r3, lsr #31
   16a8c:	ea42 72dc 	orr.w	r2, r2, ip, lsr #31
   16a90:	404a      	eors	r2, r1
   16a92:	9203      	str	r2, [sp, #12]
   16a94:	ea88 0206 	eor.w	r2, r8, r6
   16a98:	ea4f 0844 	mov.w	r8, r4, lsl #1
   16a9c:	ea48 78d7 	orr.w	r8, r8, r7, lsr #31
   16aa0:	9204      	str	r2, [sp, #16]
   16aa2:	007a      	lsls	r2, r7, #1
   16aa4:	ea42 79d4 	orr.w	r9, r2, r4, lsr #31
   16aa8:	ea88 020b 	eor.w	r2, r8, fp
   16aac:	9205      	str	r2, [sp, #20]
   16aae:	ea89 020a 	eor.w	r2, r9, sl
   16ab2:	9206      	str	r2, [sp, #24]
   16ab4:	ea4f 024e 	mov.w	r2, lr, lsl #1
   16ab8:	ea42 72d5 	orr.w	r2, r2, r5, lsr #31
   16abc:	006d      	lsls	r5, r5, #1
   16abe:	ea45 75de 	orr.w	r5, r5, lr, lsr #31
   16ac2:	406b      	eors	r3, r5
   16ac4:	9307      	str	r3, [sp, #28]
   16ac6:	ea82 030c 	eor.w	r3, r2, ip
   16aca:	9308      	str	r3, [sp, #32]
   16acc:	0073      	lsls	r3, r6, #1
   16ace:	ea43 73d1 	orr.w	r3, r3, r1, lsr #31
   16ad2:	0049      	lsls	r1, r1, #1
   16ad4:	407b      	eors	r3, r7
   16ad6:	ea41 71d6 	orr.w	r1, r1, r6, lsr #31
   16ada:	ea81 0204 	eor.w	r2, r1, r4
   16ade:	e9cd 2309 	strd	r2, r3, [sp, #36]	; 0x24
   16ae2:	9a03      	ldr	r2, [sp, #12]
   16ae4:	9b23      	ldr	r3, [sp, #140]	; 0x8c
   16ae6:	ea83 0502 	eor.w	r5, r3, r2
   16aea:	9a04      	ldr	r2, [sp, #16]
   16aec:	ea4f 5815 	mov.w	r8, r5, lsr #20
   16af0:	9b24      	ldr	r3, [sp, #144]	; 0x90
   16af2:	405a      	eors	r2, r3
   16af4:	9b15      	ldr	r3, [sp, #84]	; 0x54
   16af6:	ea48 3802 	orr.w	r8, r8, r2, lsl #12
   16afa:	0d12      	lsrs	r2, r2, #20
   16afc:	ea42 3a05 	orr.w	sl, r2, r5, lsl #12
   16b00:	9a05      	ldr	r2, [sp, #20]
   16b02:	ea83 0e02 	eor.w	lr, r3, r2
   16b06:	9b16      	ldr	r3, [sp, #88]	; 0x58
   16b08:	ea4f 515e 	mov.w	r1, lr, lsr #21
   16b0c:	9a06      	ldr	r2, [sp, #24]
   16b0e:	ea83 0602 	eor.w	r6, r3, r2
   16b12:	9a07      	ldr	r2, [sp, #28]
   16b14:	ea41 23c6 	orr.w	r3, r1, r6, lsl #11
   16b18:	0d76      	lsrs	r6, r6, #21
   16b1a:	930b      	str	r3, [sp, #44]	; 0x2c
   16b1c:	ea46 23ce 	orr.w	r3, r6, lr, lsl #11
   16b20:	930c      	str	r3, [sp, #48]	; 0x30
   16b22:	9b0f      	ldr	r3, [sp, #60]	; 0x3c
   16b24:	ea83 0402 	eor.w	r4, r3, r2
   16b28:	9a08      	ldr	r2, [sp, #32]
   16b2a:	9b19      	ldr	r3, [sp, #100]	; 0x64
   16b2c:	405a      	eors	r2, r3
   16b2e:	9b17      	ldr	r3, [sp, #92]	; 0x5c
   16b30:	0555      	lsls	r5, r2, #21
   16b32:	ea45 25d4 	orr.w	r5, r5, r4, lsr #11
   16b36:	0564      	lsls	r4, r4, #21
   16b38:	ea44 2cd2 	orr.w	ip, r4, r2, lsr #11
   16b3c:	9a09      	ldr	r2, [sp, #36]	; 0x24
   16b3e:	ea83 0102 	eor.w	r1, r3, r2
   16b42:	9a0a      	ldr	r2, [sp, #40]	; 0x28
   16b44:	9b18      	ldr	r3, [sp, #96]	; 0x60
   16b46:	ea83 0602 	eor.w	r6, r3, r2
   16b4a:	9b0b      	ldr	r3, [sp, #44]	; 0x2c
   16b4c:	03b7      	lsls	r7, r6, #14
   16b4e:	9a0b      	ldr	r2, [sp, #44]	; 0x2c
   16b50:	ea47 4791 	orr.w	r7, r7, r1, lsr #18
   16b54:	0389      	lsls	r1, r1, #14
   16b56:	ea88 0303 	eor.w	r3, r8, r3
   16b5a:	ea85 0e07 	eor.w	lr, r5, r7
   16b5e:	ea41 4696 	orr.w	r6, r1, r6, lsr #18
   16b62:	9348      	str	r3, [sp, #288]	; 0x120
   16b64:	ea42 040c 	orr.w	r4, r2, ip
   16b68:	9b0c      	ldr	r3, [sp, #48]	; 0x30
   16b6a:	ea8c 0106 	eor.w	r1, ip, r6
   16b6e:	ea26 0c0c 	bic.w	ip, r6, ip
   16b72:	9a0c      	ldr	r2, [sp, #48]	; 0x30
   16b74:	ea8a 0303 	eor.w	r3, sl, r3
   16b78:	9349      	str	r3, [sp, #292]	; 0x124
   16b7a:	432a      	orrs	r2, r5
   16b7c:	ea27 0505 	bic.w	r5, r7, r5
   16b80:	9b48      	ldr	r3, [sp, #288]	; 0x120
   16b82:	405c      	eors	r4, r3
   16b84:	9b49      	ldr	r3, [sp, #292]	; 0x124
   16b86:	4053      	eors	r3, r2
   16b88:	e9cd 4315 	strd	r4, r3, [sp, #84]	; 0x54
   16b8c:	9b0b      	ldr	r3, [sp, #44]	; 0x2c
   16b8e:	ea8c 0303 	eor.w	r3, ip, r3
   16b92:	9317      	str	r3, [sp, #92]	; 0x5c
   16b94:	9b0c      	ldr	r3, [sp, #48]	; 0x30
   16b96:	406b      	eors	r3, r5
   16b98:	9318      	str	r3, [sp, #96]	; 0x60
   16b9a:	9b3d      	ldr	r3, [sp, #244]	; 0xf4
   16b9c:	ea43 0406 	orr.w	r4, r3, r6
   16ba0:	9b3e      	ldr	r3, [sp, #248]	; 0xf8
   16ba2:	ea43 0207 	orr.w	r2, r3, r7
   16ba6:	ea84 0301 	eor.w	r3, r4, r1
   16baa:	9319      	str	r3, [sp, #100]	; 0x64
   16bac:	ea82 030e 	eor.w	r3, r2, lr
   16bb0:	931a      	str	r3, [sp, #104]	; 0x68
   16bb2:	9b3d      	ldr	r3, [sp, #244]	; 0xf4
   16bb4:	ea28 0803 	bic.w	r8, r8, r3
   16bb8:	9b3e      	ldr	r3, [sp, #248]	; 0xf8
   16bba:	ea2a 0a03 	bic.w	sl, sl, r3
   16bbe:	ea88 0306 	eor.w	r3, r8, r6
   16bc2:	931b      	str	r3, [sp, #108]	; 0x6c
   16bc4:	ea8a 0307 	eor.w	r3, sl, r7
   16bc8:	9c03      	ldr	r4, [sp, #12]
   16bca:	931c      	str	r3, [sp, #112]	; 0x70
   16bcc:	9a07      	ldr	r2, [sp, #28]
   16bce:	9b1d      	ldr	r3, [sp, #116]	; 0x74
   16bd0:	ea83 0502 	eor.w	r5, r3, r2
   16bd4:	9a08      	ldr	r2, [sp, #32]
   16bd6:	9b1e      	ldr	r3, [sp, #120]	; 0x78
   16bd8:	4053      	eors	r3, r2
   16bda:	9a09      	ldr	r2, [sp, #36]	; 0x24
   16bdc:	0719      	lsls	r1, r3, #28
   16bde:	ea41 1915 	orr.w	r9, r1, r5, lsr #4
   16be2:	072d      	lsls	r5, r5, #28
   16be4:	ea45 1513 	orr.w	r5, r5, r3, lsr #4
   16be8:	9b41      	ldr	r3, [sp, #260]	; 0x104
   16bea:	ea83 0102 	eor.w	r1, r3, r2
   16bee:	9a0a      	ldr	r2, [sp, #40]	; 0x28
   16bf0:	ea4f 5e01 	mov.w	lr, r1, lsl #20
   16bf4:	9b42      	ldr	r3, [sp, #264]	; 0x108
   16bf6:	4053      	eors	r3, r2
   16bf8:	051a      	lsls	r2, r3, #20
   16bfa:	ea4e 3e13 	orr.w	lr, lr, r3, lsr #12
   16bfe:	9b13      	ldr	r3, [sp, #76]	; 0x4c
   16c00:	ea42 3211 	orr.w	r2, r2, r1, lsr #12
   16c04:	920f      	str	r2, [sp, #60]	; 0x3c
   16c06:	9a01      	ldr	r2, [sp, #4]
   16c08:	ea83 0b02 	eor.w	fp, r3, r2
   16c0c:	9a02      	ldr	r2, [sp, #8]
   16c0e:	9b14      	ldr	r3, [sp, #80]	; 0x50
   16c10:	ea83 0102 	eor.w	r1, r3, r2
   16c14:	ea4f 03cb 	mov.w	r3, fp, lsl #3
   16c18:	00ca      	lsls	r2, r1, #3
   16c1a:	ea43 7351 	orr.w	r3, r3, r1, lsr #29
   16c1e:	9910      	ldr	r1, [sp, #64]	; 0x40
   16c20:	ea42 725b 	orr.w	r2, r2, fp, lsr #29
   16c24:	ea81 0b04 	eor.w	fp, r1, r4
   16c28:	9c04      	ldr	r4, [sp, #16]
   16c2a:	ea4f 46db 	mov.w	r6, fp, lsr #19
   16c2e:	991f      	ldr	r1, [sp, #124]	; 0x7c
   16c30:	ea81 0804 	eor.w	r8, r1, r4
   16c34:	9c05      	ldr	r4, [sp, #20]
   16c36:	ea46 3648 	orr.w	r6, r6, r8, lsl #13
   16c3a:	990d      	ldr	r1, [sp, #52]	; 0x34
   16c3c:	ea4f 48d8 	mov.w	r8, r8, lsr #19
   16c40:	ea48 3a4b 	orr.w	sl, r8, fp, lsl #13
   16c44:	ea23 0b0e 	bic.w	fp, r3, lr
   16c48:	ea81 0704 	eor.w	r7, r1, r4
   16c4c:	9c06      	ldr	r4, [sp, #24]
   16c4e:	ea4f 0cd7 	mov.w	ip, r7, lsr #3
   16c52:	990e      	ldr	r1, [sp, #56]	; 0x38
   16c54:	404c      	eors	r4, r1
   16c56:	ea4c 7c44 	orr.w	ip, ip, r4, lsl #29
   16c5a:	08e1      	lsrs	r1, r4, #3
   16c5c:	ea8e 0403 	eor.w	r4, lr, r3
   16c60:	ea2e 0e05 	bic.w	lr, lr, r5
   16c64:	9410      	str	r4, [sp, #64]	; 0x40
   16c66:	ea41 7147 	orr.w	r1, r1, r7, lsl #29
   16c6a:	9c0f      	ldr	r4, [sp, #60]	; 0x3c
   16c6c:	ea84 0702 	eor.w	r7, r4, r2
   16c70:	ea86 040c 	eor.w	r4, r6, ip
   16c74:	9413      	str	r4, [sp, #76]	; 0x4c
   16c76:	ea8a 0401 	eor.w	r4, sl, r1
   16c7a:	9414      	str	r4, [sp, #80]	; 0x50
   16c7c:	9c0f      	ldr	r4, [sp, #60]	; 0x3c
   16c7e:	ea22 0804 	bic.w	r8, r2, r4
   16c82:	ea8b 0405 	eor.w	r4, fp, r5
   16c86:	ea43 0b06 	orr.w	fp, r3, r6
   16c8a:	ea2c 0606 	bic.w	r6, ip, r6
   16c8e:	940d      	str	r4, [sp, #52]	; 0x34
   16c90:	ea88 0409 	eor.w	r4, r8, r9
   16c94:	ea42 080a 	orr.w	r8, r2, sl
   16c98:	4073      	eors	r3, r6
   16c9a:	ea21 0a0a 	bic.w	sl, r1, sl
   16c9e:	940e      	str	r4, [sp, #56]	; 0x38
   16ca0:	9c10      	ldr	r4, [sp, #64]	; 0x40
   16ca2:	ea8b 0404 	eor.w	r4, fp, r4
   16ca6:	941d      	str	r4, [sp, #116]	; 0x74
   16ca8:	ea88 0407 	eor.w	r4, r8, r7
   16cac:	e9cd 431e 	strd	r4, r3, [sp, #120]	; 0x78
   16cb0:	ea8a 0302 	eor.w	r3, sl, r2
   16cb4:	ea45 020c 	orr.w	r2, r5, ip
   16cb8:	9c13      	ldr	r4, [sp, #76]	; 0x4c
   16cba:	4062      	eors	r2, r4
   16cbc:	e9cd 3220 	strd	r3, r2, [sp, #128]	; 0x80
   16cc0:	ea49 0301 	orr.w	r3, r9, r1
   16cc4:	9a14      	ldr	r2, [sp, #80]	; 0x50
   16cc6:	4053      	eors	r3, r2
   16cc8:	ea8e 020c 	eor.w	r2, lr, ip
   16ccc:	e9cd 3222 	strd	r3, r2, [sp, #136]	; 0x88
   16cd0:	9a03      	ldr	r2, [sp, #12]
   16cd2:	9b0f      	ldr	r3, [sp, #60]	; 0x3c
   16cd4:	ea23 0309 	bic.w	r3, r3, r9
   16cd8:	404b      	eors	r3, r1
   16cda:	9324      	str	r3, [sp, #144]	; 0x90
   16cdc:	9b27      	ldr	r3, [sp, #156]	; 0x9c
   16cde:	ea83 0e02 	eor.w	lr, r3, r2
   16ce2:	9a04      	ldr	r2, [sp, #16]
   16ce4:	9b28      	ldr	r3, [sp, #160]	; 0xa0
   16ce6:	ea83 0702 	eor.w	r7, r3, r2
   16cea:	9a05      	ldr	r2, [sp, #20]
   16cec:	007b      	lsls	r3, r7, #1
   16cee:	ea43 75de 	orr.w	r5, r3, lr, lsr #31
   16cf2:	9b37      	ldr	r3, [sp, #220]	; 0xdc
   16cf4:	ea4f 0e4e 	mov.w	lr, lr, lsl #1
   16cf8:	ea4e 7ed7 	orr.w	lr, lr, r7, lsr #31
   16cfc:	ea83 0c02 	eor.w	ip, r3, r2
   16d00:	9a06      	ldr	r2, [sp, #24]
   16d02:	9b38      	ldr	r3, [sp, #224]	; 0xe0
   16d04:	ea83 0b02 	eor.w	fp, r3, r2
   16d08:	9a07      	ldr	r2, [sp, #28]
   16d0a:	ea4f 138b 	mov.w	r3, fp, lsl #6
   16d0e:	ea43 649c 	orr.w	r4, r3, ip, lsr #26
   16d12:	9b29      	ldr	r3, [sp, #164]	; 0xa4
   16d14:	ea4f 1c8c 	mov.w	ip, ip, lsl #6
   16d18:	ea4c 689b 	orr.w	r8, ip, fp, lsr #26
   16d1c:	ea83 0a02 	eor.w	sl, r3, r2
   16d20:	9a08      	ldr	r2, [sp, #32]
   16d22:	9b2a      	ldr	r3, [sp, #168]	; 0xa8
   16d24:	4053      	eors	r3, r2
   16d26:	9a09      	ldr	r2, [sp, #36]	; 0x24
   16d28:	ea4f 6c43 	mov.w	ip, r3, lsl #25
   16d2c:	ea4c 1cda 	orr.w	ip, ip, sl, lsr #7
   16d30:	ea4f 6a4a 	mov.w	sl, sl, lsl #25
   16d34:	ea4a 1ad3 	orr.w	sl, sl, r3, lsr #7
   16d38:	9b25      	ldr	r3, [sp, #148]	; 0x94
   16d3a:	ea83 0602 	eor.w	r6, r3, r2
   16d3e:	9a0a      	ldr	r2, [sp, #40]	; 0x28
   16d40:	0231      	lsls	r1, r6, #8
   16d42:	9b26      	ldr	r3, [sp, #152]	; 0x98
   16d44:	4053      	eors	r3, r2
   16d46:	021a      	lsls	r2, r3, #8
   16d48:	ea41 6113 	orr.w	r1, r1, r3, lsr #24
   16d4c:	9b11      	ldr	r3, [sp, #68]	; 0x44
   16d4e:	ea42 6216 	orr.w	r2, r2, r6, lsr #24
   16d52:	9e01      	ldr	r6, [sp, #4]
   16d54:	ea83 0b06 	eor.w	fp, r3, r6
   16d58:	9e02      	ldr	r6, [sp, #8]
   16d5a:	ea4f 498b 	mov.w	r9, fp, lsl #18
   16d5e:	9b12      	ldr	r3, [sp, #72]	; 0x48
   16d60:	4073      	eors	r3, r6
   16d62:	ea2c 0604 	bic.w	r6, ip, r4
   16d66:	ea49 3993 	orr.w	r9, r9, r3, lsr #14
   16d6a:	049f      	lsls	r7, r3, #18
   16d6c:	ea84 030c 	eor.w	r3, r4, ip
   16d70:	ea24 0405 	bic.w	r4, r4, r5
   16d74:	ea47 379b 	orr.w	r7, r7, fp, lsr #14
   16d78:	9311      	str	r3, [sp, #68]	; 0x44
   16d7a:	ea81 0309 	eor.w	r3, r1, r9
   16d7e:	ea88 0b0a 	eor.w	fp, r8, sl
   16d82:	9312      	str	r3, [sp, #72]	; 0x48
   16d84:	ea82 0307 	eor.w	r3, r2, r7
   16d88:	9313      	str	r3, [sp, #76]	; 0x4c
   16d8a:	ea2a 0308 	bic.w	r3, sl, r8
   16d8e:	ea28 080e 	bic.w	r8, r8, lr
   16d92:	ea83 030e 	eor.w	r3, r3, lr
   16d96:	930f      	str	r3, [sp, #60]	; 0x3c
   16d98:	ea86 0305 	eor.w	r3, r6, r5
   16d9c:	ea4a 0601 	orr.w	r6, sl, r1
   16da0:	ea86 060b 	eor.w	r6, r6, fp
   16da4:	ea29 0101 	bic.w	r1, r9, r1
   16da8:	9310      	str	r3, [sp, #64]	; 0x40
   16daa:	ea4c 0302 	orr.w	r3, ip, r2
   16dae:	ea27 0202 	bic.w	r2, r7, r2
   16db2:	9625      	str	r6, [sp, #148]	; 0x94
   16db4:	9e11      	ldr	r6, [sp, #68]	; 0x44
   16db6:	4073      	eors	r3, r6
   16db8:	9326      	str	r3, [sp, #152]	; 0x98
   16dba:	ea81 030a 	eor.w	r3, r1, sl
   16dbe:	9912      	ldr	r1, [sp, #72]	; 0x48
   16dc0:	9327      	str	r3, [sp, #156]	; 0x9c
   16dc2:	ea82 030c 	eor.w	r3, r2, ip
   16dc6:	ea4e 0209 	orr.w	r2, lr, r9
   16dca:	404a      	eors	r2, r1
   16dcc:	9903      	ldr	r1, [sp, #12]
   16dce:	e9cd 3228 	strd	r3, r2, [sp, #160]	; 0xa0
   16dd2:	ea45 0307 	orr.w	r3, r5, r7
   16dd6:	9d06      	ldr	r5, [sp, #24]
   16dd8:	9a13      	ldr	r2, [sp, #76]	; 0x4c
   16dda:	4053      	eors	r3, r2
   16ddc:	9a09      	ldr	r2, [sp, #36]	; 0x24
   16dde:	932a      	str	r3, [sp, #168]	; 0xa8
   16de0:	ea88 0309 	eor.w	r3, r8, r9
   16de4:	932b      	str	r3, [sp, #172]	; 0xac
   16de6:	ea84 0307 	eor.w	r3, r4, r7
   16dea:	932c      	str	r3, [sp, #176]	; 0xb0
   16dec:	9b31      	ldr	r3, [sp, #196]	; 0xc4
   16dee:	ea83 0402 	eor.w	r4, r3, r2
   16df2:	9a0a      	ldr	r2, [sp, #40]	; 0x28
   16df4:	9b32      	ldr	r3, [sp, #200]	; 0xc8
   16df6:	ea83 0902 	eor.w	r9, r3, r2
   16dfa:	9a01      	ldr	r2, [sp, #4]
   16dfc:	ea4f 6ec9 	mov.w	lr, r9, lsl #27
   16e00:	ea4e 1354 	orr.w	r3, lr, r4, lsr #5
   16e04:	06e4      	lsls	r4, r4, #27
   16e06:	9314      	str	r3, [sp, #80]	; 0x50
   16e08:	ea44 1359 	orr.w	r3, r4, r9, lsr #5
   16e0c:	9313      	str	r3, [sp, #76]	; 0x4c
   16e0e:	9b2d      	ldr	r3, [sp, #180]	; 0xb4
   16e10:	ea83 0a02 	eor.w	sl, r3, r2
   16e14:	9a02      	ldr	r2, [sp, #8]
   16e16:	9b2e      	ldr	r3, [sp, #184]	; 0xb8
   16e18:	ea83 0402 	eor.w	r4, r3, r2
   16e1c:	9a34      	ldr	r2, [sp, #208]	; 0xd0
   16e1e:	ea4f 731a 	mov.w	r3, sl, lsr #28
   16e22:	ea43 1304 	orr.w	r3, r3, r4, lsl #4
   16e26:	0f24      	lsrs	r4, r4, #28
   16e28:	ea82 0801 	eor.w	r8, r2, r1
   16e2c:	9904      	ldr	r1, [sp, #16]
   16e2e:	9333      	str	r3, [sp, #204]	; 0xcc
   16e30:	ea44 130a 	orr.w	r3, r4, sl, lsl #4
   16e34:	9c05      	ldr	r4, [sp, #20]
   16e36:	9a43      	ldr	r2, [sp, #268]	; 0x10c
   16e38:	4051      	eors	r1, r2
   16e3a:	9a2f      	ldr	r2, [sp, #188]	; 0xbc
   16e3c:	ea4f 2981 	mov.w	r9, r1, lsl #10
   16e40:	ea49 5998 	orr.w	r9, r9, r8, lsr #22
   16e44:	ea4f 2888 	mov.w	r8, r8, lsl #10
   16e48:	4062      	eors	r2, r4
   16e4a:	9c30      	ldr	r4, [sp, #192]	; 0xc0
   16e4c:	ea48 5191 	orr.w	r1, r8, r1, lsr #22
   16e50:	4065      	eors	r5, r4
   16e52:	9c07      	ldr	r4, [sp, #28]
   16e54:	03ee      	lsls	r6, r5, #15
   16e56:	ea46 4652 	orr.w	r6, r6, r2, lsr #17
   16e5a:	03d2      	lsls	r2, r2, #15
   16e5c:	ea42 4755 	orr.w	r7, r2, r5, lsr #17
   16e60:	9a46      	ldr	r2, [sp, #280]	; 0x118
   16e62:	4062      	eors	r2, r4
   16e64:	9c47      	ldr	r4, [sp, #284]	; 0x11c
   16e66:	ea4f 2812 	mov.w	r8, r2, lsr #8
   16e6a:	9d08      	ldr	r5, [sp, #32]
   16e6c:	ea84 0c05 	eor.w	ip, r4, r5
   16e70:	ea48 680c 	orr.w	r8, r8, ip, lsl #24
   16e74:	ea4f 2c1c 	mov.w	ip, ip, lsr #8
   16e78:	ea87 0a08 	eor.w	sl, r7, r8
   16e7c:	ea4c 6e02 	orr.w	lr, ip, r2, lsl #24
   16e80:	9a33      	ldr	r2, [sp, #204]	; 0xcc
   16e82:	ea86 0c0e 	eor.w	ip, r6, lr
   16e86:	ea82 0501 	eor.w	r5, r2, r1
   16e8a:	ea83 0209 	eor.w	r2, r3, r9
   16e8e:	922e      	str	r2, [sp, #184]	; 0xb8
   16e90:	9a33      	ldr	r2, [sp, #204]	; 0xcc
   16e92:	ea21 0b02 	bic.w	fp, r1, r2
   16e96:	ea29 0203 	bic.w	r2, r9, r3
   16e9a:	4614      	mov	r4, r2
   16e9c:	9a13      	ldr	r2, [sp, #76]	; 0x4c
   16e9e:	ea8b 0202 	eor.w	r2, fp, r2
   16ea2:	ea41 0b07 	orr.w	fp, r1, r7
   16ea6:	ea28 0707 	bic.w	r7, r8, r7
   16eaa:	ea8b 0505 	eor.w	r5, fp, r5
   16eae:	9211      	str	r2, [sp, #68]	; 0x44
   16eb0:	9a14      	ldr	r2, [sp, #80]	; 0x50
   16eb2:	952d      	str	r5, [sp, #180]	; 0xb4
   16eb4:	4054      	eors	r4, r2
   16eb6:	4622      	mov	r2, r4
   16eb8:	9c2e      	ldr	r4, [sp, #184]	; 0xb8
   16eba:	9212      	str	r2, [sp, #72]	; 0x48
   16ebc:	ea49 0206 	orr.w	r2, r9, r6
   16ec0:	ea2e 0606 	bic.w	r6, lr, r6
   16ec4:	4062      	eors	r2, r4
   16ec6:	922e      	str	r2, [sp, #184]	; 0xb8
   16ec8:	ea87 0201 	eor.w	r2, r7, r1
   16ecc:	922f      	str	r2, [sp, #188]	; 0xbc
   16ece:	ea86 0209 	eor.w	r2, r6, r9
   16ed2:	9230      	str	r2, [sp, #192]	; 0xc0
   16ed4:	9a13      	ldr	r2, [sp, #76]	; 0x4c
   16ed6:	ea42 0108 	orr.w	r1, r2, r8
   16eda:	9a14      	ldr	r2, [sp, #80]	; 0x50
   16edc:	ea81 010a 	eor.w	r1, r1, sl
   16ee0:	ea42 020e 	orr.w	r2, r2, lr
   16ee4:	ea82 020c 	eor.w	r2, r2, ip
   16ee8:	e9cd 1231 	strd	r1, r2, [sp, #196]	; 0xc4
   16eec:	9913      	ldr	r1, [sp, #76]	; 0x4c
   16eee:	9a33      	ldr	r2, [sp, #204]	; 0xcc
   16ef0:	ea22 0201 	bic.w	r2, r2, r1
   16ef4:	9914      	ldr	r1, [sp, #80]	; 0x50
   16ef6:	ea82 0208 	eor.w	r2, r2, r8
   16efa:	ea23 0301 	bic.w	r3, r3, r1
   16efe:	9908      	ldr	r1, [sp, #32]
   16f00:	ea83 030e 	eor.w	r3, r3, lr
   16f04:	e9cd 2333 	strd	r2, r3, [sp, #204]	; 0xcc
   16f08:	9a05      	ldr	r2, [sp, #20]
   16f0a:	9b3b      	ldr	r3, [sp, #236]	; 0xec
   16f0c:	ea83 0802 	eor.w	r8, r3, r2
   16f10:	9a06      	ldr	r2, [sp, #24]
   16f12:	9b3c      	ldr	r3, [sp, #240]	; 0xf0
   16f14:	405a      	eors	r2, r3
   16f16:	ea4f 0398 	mov.w	r3, r8, lsr #2
   16f1a:	ea43 7e82 	orr.w	lr, r3, r2, lsl #30
   16f1e:	9b3f      	ldr	r3, [sp, #252]	; 0xfc
   16f20:	0892      	lsrs	r2, r2, #2
   16f22:	ea42 7c88 	orr.w	ip, r2, r8, lsl #30
   16f26:	9a07      	ldr	r2, [sp, #28]
   16f28:	4053      	eors	r3, r2
   16f2a:	9a40      	ldr	r2, [sp, #256]	; 0x100
   16f2c:	404a      	eors	r2, r1
   16f2e:	0a59      	lsrs	r1, r3, #9
   16f30:	ea41 51c2 	orr.w	r1, r1, r2, lsl #23
   16f34:	0a52      	lsrs	r2, r2, #9
   16f36:	ea42 53c3 	orr.w	r3, r2, r3, lsl #23
   16f3a:	9305      	str	r3, [sp, #20]
   16f3c:	9a44      	ldr	r2, [sp, #272]	; 0x110
   16f3e:	9e02      	ldr	r6, [sp, #8]
   16f40:	e9dd 4509 	ldrd	r4, r5, [sp, #36]	; 0x24
   16f44:	4054      	eors	r4, r2
   16f46:	9a45      	ldr	r2, [sp, #276]	; 0x114
   16f48:	0e67      	lsrs	r7, r4, #25
   16f4a:	406a      	eors	r2, r5
   16f4c:	9d01      	ldr	r5, [sp, #4]
   16f4e:	ea47 17c2 	orr.w	r7, r7, r2, lsl #7
   16f52:	0e52      	lsrs	r2, r2, #25
   16f54:	ea27 0b01 	bic.w	fp, r7, r1
   16f58:	ea42 14c4 	orr.w	r4, r2, r4, lsl #7
   16f5c:	9a39      	ldr	r2, [sp, #228]	; 0xe4
   16f5e:	406a      	eors	r2, r5
   16f60:	9d3a      	ldr	r5, [sp, #232]	; 0xe8
   16f62:	ea85 0906 	eor.w	r9, r5, r6
   16f66:	9e35      	ldr	r6, [sp, #212]	; 0xd4
   16f68:	0dd5      	lsrs	r5, r2, #23
   16f6a:	ea45 2549 	orr.w	r5, r5, r9, lsl #9
   16f6e:	ea4f 59d9 	mov.w	r9, r9, lsr #23
   16f72:	4633      	mov	r3, r6
   16f74:	9e03      	ldr	r6, [sp, #12]
   16f76:	ea49 2242 	orr.w	r2, r9, r2, lsl #9
   16f7a:	ea83 0a06 	eor.w	sl, r3, r6
   16f7e:	9e36      	ldr	r6, [sp, #216]	; 0xd8
   16f80:	4633      	mov	r3, r6
   16f82:	9e04      	ldr	r6, [sp, #16]
   16f84:	ea83 0806 	eor.w	r8, r3, r6
   16f88:	9b05      	ldr	r3, [sp, #20]
   16f8a:	ea4f 0688 	mov.w	r6, r8, lsl #2
   16f8e:	ea46 769a 	orr.w	r6, r6, sl, lsr #30
   16f92:	ea4f 0a8a 	mov.w	sl, sl, lsl #2
   16f96:	4063      	eors	r3, r4
   16f98:	ea4a 7898 	orr.w	r8, sl, r8, lsr #30
   16f9c:	ea81 0a07 	eor.w	sl, r1, r7
   16fa0:	9301      	str	r3, [sp, #4]
   16fa2:	ea85 0308 	eor.w	r3, r5, r8
   16fa6:	9302      	str	r3, [sp, #8]
   16fa8:	ea82 0306 	eor.w	r3, r2, r6
   16fac:	9303      	str	r3, [sp, #12]
   16fae:	9b05      	ldr	r3, [sp, #20]
   16fb0:	ea24 0903 	bic.w	r9, r4, r3
   16fb4:	ea8b 030e 	eor.w	r3, fp, lr
   16fb8:	ea47 0b05 	orr.w	fp, r7, r5
   16fbc:	ea28 0505 	bic.w	r5, r8, r5
   16fc0:	9313      	str	r3, [sp, #76]	; 0x4c
   16fc2:	ea89 030c 	eor.w	r3, r9, ip
   16fc6:	ea44 0902 	orr.w	r9, r4, r2
   16fca:	ea26 0202 	bic.w	r2, r6, r2
   16fce:	9314      	str	r3, [sp, #80]	; 0x50
   16fd0:	ea8b 030a 	eor.w	r3, fp, sl
   16fd4:	9335      	str	r3, [sp, #212]	; 0xd4
   16fd6:	9b01      	ldr	r3, [sp, #4]
   16fd8:	ea89 0303 	eor.w	r3, r9, r3
   16fdc:	ea21 090e 	bic.w	r9, r1, lr
   16fe0:	9336      	str	r3, [sp, #216]	; 0xd8
   16fe2:	ea85 0307 	eor.w	r3, r5, r7
   16fe6:	9337      	str	r3, [sp, #220]	; 0xdc
   16fe8:	ea82 0304 	eor.w	r3, r2, r4
   16fec:	ea4e 0408 	orr.w	r4, lr, r8
   16ff0:	ea4c 0206 	orr.w	r2, ip, r6
   16ff4:	9338      	str	r3, [sp, #224]	; 0xe0
   16ff6:	9b02      	ldr	r3, [sp, #8]
   16ff8:	4063      	eors	r3, r4
   16ffa:	9339      	str	r3, [sp, #228]	; 0xe4
   16ffc:	9b03      	ldr	r3, [sp, #12]
   16ffe:	4053      	eors	r3, r2
   17000:	ea89 0208 	eor.w	r2, r9, r8
   17004:	e9cd 323a 	strd	r3, r2, [sp, #232]	; 0xe8
   17008:	9b05      	ldr	r3, [sp, #20]
   1700a:	ea23 030c 	bic.w	r3, r3, ip
   1700e:	4073      	eors	r3, r6
   17010:	933c      	str	r3, [sp, #240]	; 0xf0
   17012:	9b00      	ldr	r3, [sp, #0]
   17014:	e9d3 1302 	ldrd	r1, r3, [r3, #8]
   17018:	9a3d      	ldr	r2, [sp, #244]	; 0xf4
   1701a:	9c48      	ldr	r4, [sp, #288]	; 0x120
   1701c:	4051      	eors	r1, r2
   1701e:	9a3e      	ldr	r2, [sp, #248]	; 0xf8
   17020:	4053      	eors	r3, r2
   17022:	9a0b      	ldr	r2, [sp, #44]	; 0x2c
   17024:	ea02 0804 	and.w	r8, r2, r4
   17028:	9a0c      	ldr	r2, [sp, #48]	; 0x30
   1702a:	ea81 0108 	eor.w	r1, r1, r8
   1702e:	9c49      	ldr	r4, [sp, #292]	; 0x124
   17030:	ea02 0604 	and.w	r6, r2, r4
   17034:	ea83 0206 	eor.w	r2, r3, r6
   17038:	9b00      	ldr	r3, [sp, #0]
   1703a:	3310      	adds	r3, #16
   1703c:	9300      	str	r3, [sp, #0]
   1703e:	4b3e      	ldr	r3, [pc, #248]	; (17138 <BlockSha3+0xf84>)
   17040:	9c00      	ldr	r4, [sp, #0]
   17042:	42a3      	cmp	r3, r4
   17044:	f47f a932 	bne.w	162ac <BlockSha3+0xf8>
   17048:	9b0d      	ldr	r3, [sp, #52]	; 0x34
   1704a:	e9c0 1200 	strd	r1, r2, [r0]
   1704e:	6283      	str	r3, [r0, #40]	; 0x28
   17050:	9b0e      	ldr	r3, [sp, #56]	; 0x38
   17052:	62c3      	str	r3, [r0, #44]	; 0x2c
   17054:	9b0f      	ldr	r3, [sp, #60]	; 0x3c
   17056:	6503      	str	r3, [r0, #80]	; 0x50
   17058:	9b10      	ldr	r3, [sp, #64]	; 0x40
   1705a:	6543      	str	r3, [r0, #84]	; 0x54
   1705c:	9b11      	ldr	r3, [sp, #68]	; 0x44
   1705e:	6783      	str	r3, [r0, #120]	; 0x78
   17060:	9b12      	ldr	r3, [sp, #72]	; 0x48
   17062:	67c3      	str	r3, [r0, #124]	; 0x7c
   17064:	9b13      	ldr	r3, [sp, #76]	; 0x4c
   17066:	f8c0 30a0 	str.w	r3, [r0, #160]	; 0xa0
   1706a:	9b14      	ldr	r3, [sp, #80]	; 0x50
   1706c:	f8c0 30a4 	str.w	r3, [r0, #164]	; 0xa4
   17070:	9b15      	ldr	r3, [sp, #84]	; 0x54
   17072:	6083      	str	r3, [r0, #8]
   17074:	9b16      	ldr	r3, [sp, #88]	; 0x58
   17076:	60c3      	str	r3, [r0, #12]
   17078:	9b1d      	ldr	r3, [sp, #116]	; 0x74
   1707a:	6303      	str	r3, [r0, #48]	; 0x30
   1707c:	9b1e      	ldr	r3, [sp, #120]	; 0x78
   1707e:	6343      	str	r3, [r0, #52]	; 0x34
   17080:	9b25      	ldr	r3, [sp, #148]	; 0x94
   17082:	6583      	str	r3, [r0, #88]	; 0x58
   17084:	9b26      	ldr	r3, [sp, #152]	; 0x98
   17086:	65c3      	str	r3, [r0, #92]	; 0x5c
   17088:	9b2d      	ldr	r3, [sp, #180]	; 0xb4
   1708a:	f8c0 3080 	str.w	r3, [r0, #128]	; 0x80
   1708e:	9b2e      	ldr	r3, [sp, #184]	; 0xb8
   17090:	f8c0 3084 	str.w	r3, [r0, #132]	; 0x84
   17094:	9b35      	ldr	r3, [sp, #212]	; 0xd4
   17096:	f8c0 30a8 	str.w	r3, [r0, #168]	; 0xa8
   1709a:	9b36      	ldr	r3, [sp, #216]	; 0xd8
   1709c:	f8c0 30ac 	str.w	r3, [r0, #172]	; 0xac
   170a0:	9b17      	ldr	r3, [sp, #92]	; 0x5c
   170a2:	6103      	str	r3, [r0, #16]
   170a4:	9b18      	ldr	r3, [sp, #96]	; 0x60
   170a6:	6143      	str	r3, [r0, #20]
   170a8:	9b1f      	ldr	r3, [sp, #124]	; 0x7c
   170aa:	6383      	str	r3, [r0, #56]	; 0x38
   170ac:	9b20      	ldr	r3, [sp, #128]	; 0x80
   170ae:	63c3      	str	r3, [r0, #60]	; 0x3c
   170b0:	9b27      	ldr	r3, [sp, #156]	; 0x9c
   170b2:	6603      	str	r3, [r0, #96]	; 0x60
   170b4:	9b28      	ldr	r3, [sp, #160]	; 0xa0
   170b6:	6643      	str	r3, [r0, #100]	; 0x64
   170b8:	9b2f      	ldr	r3, [sp, #188]	; 0xbc
   170ba:	f8c0 3088 	str.w	r3, [r0, #136]	; 0x88
   170be:	9b30      	ldr	r3, [sp, #192]	; 0xc0
   170c0:	f8c0 308c 	str.w	r3, [r0, #140]	; 0x8c
   170c4:	9b37      	ldr	r3, [sp, #220]	; 0xdc
   170c6:	f8c0 30b0 	str.w	r3, [r0, #176]	; 0xb0
   170ca:	9b38      	ldr	r3, [sp, #224]	; 0xe0
   170cc:	f8c0 30b4 	str.w	r3, [r0, #180]	; 0xb4
   170d0:	9b19      	ldr	r3, [sp, #100]	; 0x64
   170d2:	6183      	str	r3, [r0, #24]
   170d4:	9b1a      	ldr	r3, [sp, #104]	; 0x68
   170d6:	61c3      	str	r3, [r0, #28]
   170d8:	9b21      	ldr	r3, [sp, #132]	; 0x84
   170da:	6403      	str	r3, [r0, #64]	; 0x40
   170dc:	9b22      	ldr	r3, [sp, #136]	; 0x88
   170de:	6443      	str	r3, [r0, #68]	; 0x44
   170e0:	9b29      	ldr	r3, [sp, #164]	; 0xa4
   170e2:	6683      	str	r3, [r0, #104]	; 0x68
   170e4:	9b2a      	ldr	r3, [sp, #168]	; 0xa8
   170e6:	66c3      	str	r3, [r0, #108]	; 0x6c
   170e8:	9b31      	ldr	r3, [sp, #196]	; 0xc4
   170ea:	f8c0 3090 	str.w	r3, [r0, #144]	; 0x90
   170ee:	9b32      	ldr	r3, [sp, #200]	; 0xc8
   170f0:	f8c0 3094 	str.w	r3, [r0, #148]	; 0x94
   170f4:	9b39      	ldr	r3, [sp, #228]	; 0xe4
   170f6:	f8c0 30b8 	str.w	r3, [r0, #184]	; 0xb8
   170fa:	9b3a      	ldr	r3, [sp, #232]	; 0xe8
   170fc:	f8c0 30bc 	str.w	r3, [r0, #188]	; 0xbc
   17100:	9b1b      	ldr	r3, [sp, #108]	; 0x6c
   17102:	6203      	str	r3, [r0, #32]
   17104:	9b1c      	ldr	r3, [sp, #112]	; 0x70
   17106:	6243      	str	r3, [r0, #36]	; 0x24
   17108:	9b23      	ldr	r3, [sp, #140]	; 0x8c
   1710a:	6483      	str	r3, [r0, #72]	; 0x48
   1710c:	9b24      	ldr	r3, [sp, #144]	; 0x90
   1710e:	64c3      	str	r3, [r0, #76]	; 0x4c
   17110:	9b2b      	ldr	r3, [sp, #172]	; 0xac
   17112:	6703      	str	r3, [r0, #112]	; 0x70
   17114:	9b2c      	ldr	r3, [sp, #176]	; 0xb0
   17116:	6743      	str	r3, [r0, #116]	; 0x74
   17118:	9b33      	ldr	r3, [sp, #204]	; 0xcc
   1711a:	f8c0 3098 	str.w	r3, [r0, #152]	; 0x98
   1711e:	9b34      	ldr	r3, [sp, #208]	; 0xd0
   17120:	f8c0 309c 	str.w	r3, [r0, #156]	; 0x9c
   17124:	9b3b      	ldr	r3, [sp, #236]	; 0xec
   17126:	f8c0 30c0 	str.w	r3, [r0, #192]	; 0xc0
   1712a:	9b3c      	ldr	r3, [sp, #240]	; 0xf0
   1712c:	f8c0 30c4 	str.w	r3, [r0, #196]	; 0xc4
   17130:	b04b      	add	sp, #300	; 0x12c
   17132:	e8bd 8ff0 	ldmia.w	sp!, {r4, r5, r6, r7, r8, r9, sl, fp, pc}
   17136:	bf00      	nop
   17138:	0001d188 	.word	0x0001d188

0001713c <InitSha3>:
   1713c:	b530      	push	{r4, r5, lr}
   1713e:	f1a0 0308 	sub.w	r3, r0, #8
   17142:	f100 02c0 	add.w	r2, r0, #192	; 0xc0
   17146:	2400      	movs	r4, #0
   17148:	2500      	movs	r5, #0
   1714a:	e9e3 4502 	strd	r4, r5, [r3, #8]!
   1714e:	4293      	cmp	r3, r2
   17150:	d1fb      	bne.n	1714a <InitSha3+0xe>
   17152:	2300      	movs	r3, #0
   17154:	f880 3190 	strb.w	r3, [r0, #400]	; 0x190
   17158:	4618      	mov	r0, r3
   1715a:	bd30      	pop	{r4, r5, pc}

0001715c <Sha3Update>:
   1715c:	e92d 41f0 	stmdb	sp!, {r4, r5, r6, r7, r8, lr}
   17160:	461e      	mov	r6, r3
   17162:	460c      	mov	r4, r1
   17164:	4615      	mov	r5, r2
   17166:	f890 3190 	ldrb.w	r3, [r0, #400]	; 0x190
   1716a:	b34b      	cbz	r3, 171c0 <Sha3Update+0x64>
   1716c:	ebc3 01c6 	rsb	r1, r3, r6, lsl #3
   17170:	33c8      	adds	r3, #200	; 0xc8
   17172:	4403      	add	r3, r0
   17174:	b2c9      	uxtb	r1, r1
   17176:	4291      	cmp	r1, r2
   17178:	bf88      	it	hi
   1717a:	b2d1      	uxtbhi	r1, r2
   1717c:	2200      	movs	r2, #0
   1717e:	4291      	cmp	r1, r2
   17180:	d82e      	bhi.n	171e0 <Sha3Update+0x84>
   17182:	f890 3190 	ldrb.w	r3, [r0, #400]	; 0x190
   17186:	440c      	add	r4, r1
   17188:	1a6d      	subs	r5, r5, r1
   1718a:	4419      	add	r1, r3
   1718c:	b2c9      	uxtb	r1, r1
   1718e:	ebb1 0fc6 	cmp.w	r1, r6, lsl #3
   17192:	f880 1190 	strb.w	r1, [r0, #400]	; 0x190
   17196:	d113      	bne.n	171c0 <Sha3Update+0x64>
   17198:	eb00 0ec6 	add.w	lr, r0, r6, lsl #3
   1719c:	4684      	mov	ip, r0
   1719e:	e9dc 2300 	ldrd	r2, r3, [ip]
   171a2:	e9dc 7132 	ldrd	r7, r1, [ip, #200]	; 0xc8
   171a6:	407a      	eors	r2, r7
   171a8:	404b      	eors	r3, r1
   171aa:	f84c 2b08 	str.w	r2, [ip], #8
   171ae:	45f4      	cmp	ip, lr
   171b0:	f84c 3c04 	str.w	r3, [ip, #-4]
   171b4:	d1f3      	bne.n	1719e <Sha3Update+0x42>
   171b6:	f7fe fffd 	bl	161b4 <BlockSha3>
   171ba:	2300      	movs	r3, #0
   171bc:	f880 3190 	strb.w	r3, [r0, #400]	; 0x190
   171c0:	00f7      	lsls	r7, r6, #3
   171c2:	42af      	cmp	r7, r5
   171c4:	d910      	bls.n	171e8 <Sha3Update+0x8c>
   171c6:	f100 03c8 	add.w	r3, r0, #200	; 0xc8
   171ca:	1962      	adds	r2, r4, r5
   171cc:	4294      	cmp	r4, r2
   171ce:	d125      	bne.n	1721c <Sha3Update+0xc0>
   171d0:	f890 2190 	ldrb.w	r2, [r0, #400]	; 0x190
   171d4:	4415      	add	r5, r2
   171d6:	f880 5190 	strb.w	r5, [r0, #400]	; 0x190
   171da:	2000      	movs	r0, #0
   171dc:	e8bd 81f0 	ldmia.w	sp!, {r4, r5, r6, r7, r8, pc}
   171e0:	5ca7      	ldrb	r7, [r4, r2]
   171e2:	549f      	strb	r7, [r3, r2]
   171e4:	3201      	adds	r2, #1
   171e6:	e7ca      	b.n	1717e <Sha3Update+0x22>
   171e8:	f1a0 0208 	sub.w	r2, r0, #8
   171ec:	2300      	movs	r3, #0
   171ee:	eb04 01c3 	add.w	r1, r4, r3, lsl #3
   171f2:	f854 8033 	ldr.w	r8, [r4, r3, lsl #3]
   171f6:	3301      	adds	r3, #1
   171f8:	429e      	cmp	r6, r3
   171fa:	f8d1 e004 	ldr.w	lr, [r1, #4]
   171fe:	f852 1f08 	ldr.w	r1, [r2, #8]!
   17202:	ea81 0c08 	eor.w	ip, r1, r8
   17206:	6851      	ldr	r1, [r2, #4]
   17208:	ea81 010e 	eor.w	r1, r1, lr
   1720c:	e9c2 c100 	strd	ip, r1, [r2]
   17210:	d8ed      	bhi.n	171ee <Sha3Update+0x92>
   17212:	1bed      	subs	r5, r5, r7
   17214:	443c      	add	r4, r7
   17216:	f7fe ffcd 	bl	161b4 <BlockSha3>
   1721a:	e7d2      	b.n	171c2 <Sha3Update+0x66>
   1721c:	f814 1b01 	ldrb.w	r1, [r4], #1
   17220:	f803 1b01 	strb.w	r1, [r3], #1
   17224:	e7d2      	b.n	171cc <Sha3Update+0x70>

00017226 <wc_Sha3Update>:
   17226:	b430      	push	{r4, r5}
   17228:	b150      	cbz	r0, 17240 <wc_Sha3Update+0x1a>
   1722a:	b931      	cbnz	r1, 1723a <wc_Sha3Update+0x14>
   1722c:	2a00      	cmp	r2, #0
   1722e:	bf14      	ite	ne
   17230:	f06f 00ac 	mvnne.w	r0, #172	; 0xac
   17234:	2000      	moveq	r0, #0
   17236:	bc30      	pop	{r4, r5}
   17238:	4770      	bx	lr
   1723a:	bc30      	pop	{r4, r5}
   1723c:	f7ff bf8e 	b.w	1715c <Sha3Update>
   17240:	f06f 00ac 	mvn.w	r0, #172	; 0xac
   17244:	e7f7      	b.n	17236 <wc_Sha3Update+0x10>

00017246 <Sha3Final>:
   17246:	e92d 43f8 	stmdb	sp!, {r3, r4, r5, r6, r7, r8, r9, lr}
   1724a:	4615      	mov	r5, r2
   1724c:	f04f 36ff 	mov.w	r6, #4294967295
   17250:	2208      	movs	r2, #8
   17252:	4604      	mov	r4, r0
   17254:	f04f 0c00 	mov.w	ip, #0
   17258:	fb12 6603 	smlabb	r6, r2, r3, r6
   1725c:	9f08      	ldr	r7, [sp, #32]
   1725e:	fb13 f802 	smulbb	r8, r3, r2
   17262:	4430      	add	r0, r6
   17264:	f880 c0c8 	strb.w	ip, [r0, #200]	; 0xc8
   17268:	f894 2190 	ldrb.w	r2, [r4, #400]	; 0x190
   1726c:	eb04 0e02 	add.w	lr, r4, r2
   17270:	3201      	adds	r2, #1
   17272:	f88e 10c8 	strb.w	r1, [lr, #200]	; 0xc8
   17276:	f890 10c8 	ldrb.w	r1, [r0, #200]	; 0xc8
   1727a:	f061 017f 	orn	r1, r1, #127	; 0x7f
   1727e:	f880 10c8 	strb.w	r1, [r0, #200]	; 0xc8
   17282:	f104 01c8 	add.w	r1, r4, #200	; 0xc8
   17286:	4296      	cmp	r6, r2
   17288:	d822      	bhi.n	172d0 <Sha3Final+0x8a>
   1728a:	eb04 03c3 	add.w	r3, r4, r3, lsl #3
   1728e:	4621      	mov	r1, r4
   17290:	e9d1 6000 	ldrd	r6, r0, [r1]
   17294:	f8d1 20c8 	ldr.w	r2, [r1, #200]	; 0xc8
   17298:	4056      	eors	r6, r2
   1729a:	f8d1 20cc 	ldr.w	r2, [r1, #204]	; 0xcc
   1729e:	f841 6b08 	str.w	r6, [r1], #8
   172a2:	4299      	cmp	r1, r3
   172a4:	ea80 0002 	eor.w	r0, r0, r2
   172a8:	f841 0c04 	str.w	r0, [r1, #-4]
   172ac:	d1f0      	bne.n	17290 <Sha3Final+0x4a>
   172ae:	46b9      	mov	r9, r7
   172b0:	2600      	movs	r6, #0
   172b2:	45c8      	cmp	r8, r9
   172b4:	d910      	bls.n	172d8 <Sha3Final+0x92>
   172b6:	42be      	cmp	r6, r7
   172b8:	d007      	beq.n	172ca <Sha3Final+0x84>
   172ba:	4620      	mov	r0, r4
   172bc:	f7fe ff7a 	bl	161b4 <BlockSha3>
   172c0:	464a      	mov	r2, r9
   172c2:	4621      	mov	r1, r4
   172c4:	19a8      	adds	r0, r5, r6
   172c6:	f7f9 e8b2 	blx	1042c <memcpy@plt>
   172ca:	2000      	movs	r0, #0
   172cc:	e8bd 83f8 	ldmia.w	sp!, {r3, r4, r5, r6, r7, r8, r9, pc}
   172d0:	f801 c002 	strb.w	ip, [r1, r2]
   172d4:	3201      	adds	r2, #1
   172d6:	e7d6      	b.n	17286 <Sha3Final+0x40>
   172d8:	4620      	mov	r0, r4
   172da:	eba9 0908 	sub.w	r9, r9, r8
   172de:	f7fe ff69 	bl	161b4 <BlockSha3>
   172e2:	19a8      	adds	r0, r5, r6
   172e4:	4642      	mov	r2, r8
   172e6:	4621      	mov	r1, r4
   172e8:	4446      	add	r6, r8
   172ea:	f7f9 e8a0 	blx	1042c <memcpy@plt>
   172ee:	e7e0      	b.n	172b2 <Sha3Final+0x6c>

000172f0 <wc_Sha3Final>:
   172f0:	b513      	push	{r0, r1, r4, lr}
   172f2:	4604      	mov	r4, r0
   172f4:	b168      	cbz	r0, 17312 <wc_Sha3Final+0x22>
   172f6:	b161      	cbz	r1, 17312 <wc_Sha3Final+0x22>
   172f8:	9300      	str	r3, [sp, #0]
   172fa:	4613      	mov	r3, r2
   172fc:	460a      	mov	r2, r1
   172fe:	2106      	movs	r1, #6
   17300:	f7ff ffa1 	bl	17246 <Sha3Final>
   17304:	b938      	cbnz	r0, 17316 <wc_Sha3Final+0x26>
   17306:	4620      	mov	r0, r4
   17308:	b002      	add	sp, #8
   1730a:	e8bd 4010 	ldmia.w	sp!, {r4, lr}
   1730e:	f7ff bf15 	b.w	1713c <InitSha3>
   17312:	f06f 00ac 	mvn.w	r0, #172	; 0xac
   17316:	b002      	add	sp, #8
   17318:	bd10      	pop	{r4, pc}

0001731a <wc_InitSha3_224>:
   1731a:	b118      	cbz	r0, 17324 <wc_InitSha3_224+0xa>
   1731c:	f8c0 1194 	str.w	r1, [r0, #404]	; 0x194
   17320:	f7ff bf0c 	b.w	1713c <InitSha3>
   17324:	f06f 00ac 	mvn.w	r0, #172	; 0xac
   17328:	4770      	bx	lr

0001732a <wc_Sha3_224_Update>:
   1732a:	2312      	movs	r3, #18
   1732c:	f7ff bf7b 	b.w	17226 <wc_Sha3Update>

00017330 <wc_Sha3_224_Final>:
   17330:	231c      	movs	r3, #28
   17332:	2212      	movs	r2, #18
   17334:	f7ff bfdc 	b.w	172f0 <wc_Sha3Final>

00017338 <wc_Sha3_224_Free>:
   17338:	4770      	bx	lr

0001733a <wc_InitSha3_256>:
   1733a:	b118      	cbz	r0, 17344 <wc_InitSha3_256+0xa>
   1733c:	f8c0 1194 	str.w	r1, [r0, #404]	; 0x194
   17340:	f7ff befc 	b.w	1713c <InitSha3>
   17344:	f06f 00ac 	mvn.w	r0, #172	; 0xac
   17348:	4770      	bx	lr

0001734a <wc_Sha3_256_Update>:
   1734a:	2311      	movs	r3, #17
   1734c:	f7ff bf6b 	b.w	17226 <wc_Sha3Update>

00017350 <wc_Sha3_256_Final>:
   17350:	2320      	movs	r3, #32
   17352:	2211      	movs	r2, #17
   17354:	f7ff bfcc 	b.w	172f0 <wc_Sha3Final>

00017358 <wc_Sha3_256_Free>:
   17358:	4770      	bx	lr

0001735a <wc_InitSha3_384>:
   1735a:	b118      	cbz	r0, 17364 <wc_InitSha3_384+0xa>
   1735c:	f8c0 1194 	str.w	r1, [r0, #404]	; 0x194
   17360:	f7ff beec 	b.w	1713c <InitSha3>
   17364:	f06f 00ac 	mvn.w	r0, #172	; 0xac
   17368:	4770      	bx	lr

0001736a <wc_Sha3_384_Update>:
   1736a:	230d      	movs	r3, #13
   1736c:	f7ff bf5b 	b.w	17226 <wc_Sha3Update>

00017370 <wc_Sha3_384_Final>:
   17370:	2330      	movs	r3, #48	; 0x30
   17372:	220d      	movs	r2, #13
   17374:	f7ff bfbc 	b.w	172f0 <wc_Sha3Final>

00017378 <wc_Sha3_384_Free>:
   17378:	4770      	bx	lr

0001737a <wc_InitSha3_512>:
   1737a:	b118      	cbz	r0, 17384 <wc_InitSha3_512+0xa>
   1737c:	f8c0 1194 	str.w	r1, [r0, #404]	; 0x194
   17380:	f7ff bedc 	b.w	1713c <InitSha3>
   17384:	f06f 00ac 	mvn.w	r0, #172	; 0xac
   17388:	4770      	bx	lr

0001738a <wc_Sha3_512_Update>:
   1738a:	2309      	movs	r3, #9
   1738c:	f7ff bf4b 	b.w	17226 <wc_Sha3Update>

00017390 <wc_Sha3_512_Final>:
   17390:	2340      	movs	r3, #64	; 0x40
   17392:	2209      	movs	r2, #9
   17394:	f7ff bfac 	b.w	172f0 <wc_Sha3Final>

00017398 <wc_Sha3_512_Free>:
   17398:	4770      	bx	lr
	...

0001739c <wc_HashGetDigestSize>:
   1739c:	3801      	subs	r0, #1
   1739e:	b2c0      	uxtb	r0, r0
   173a0:	2810      	cmp	r0, #16
   173a2:	bf9a      	itte	ls
   173a4:	4b02      	ldrls	r3, [pc, #8]	; (173b0 <wc_HashGetDigestSize+0x14>)
   173a6:	f933 0010 	ldrshls.w	r0, [r3, r0, lsl #1]
   173aa:	f06f 00ac 	mvnhi.w	r0, #172	; 0xac
   173ae:	4770      	bx	lr
   173b0:	0001d188 	.word	0x0001d188

000173b4 <wc_Md5Hash>:
   173b4:	e92d 41f0 	stmdb	sp!, {r4, r5, r6, r7, r8, lr}
   173b8:	4607      	mov	r7, r0
   173ba:	2060      	movs	r0, #96	; 0x60
   173bc:	4688      	mov	r8, r1
   173be:	4616      	mov	r6, r2
   173c0:	f7f9 e840 	blx	10444 <malloc@plt>
   173c4:	4605      	mov	r5, r0
   173c6:	b1c0      	cbz	r0, 173fa <wc_Md5Hash+0x46>
   173c8:	f000 fe8a 	bl	180e0 <wc_InitMd5>
   173cc:	4604      	mov	r4, r0
   173ce:	b970      	cbnz	r0, 173ee <wc_Md5Hash+0x3a>
   173d0:	4642      	mov	r2, r8
   173d2:	4639      	mov	r1, r7
   173d4:	4628      	mov	r0, r5
   173d6:	f000 fdc3 	bl	17f60 <wc_Md5Update>
   173da:	4604      	mov	r4, r0
   173dc:	b920      	cbnz	r0, 173e8 <wc_Md5Hash+0x34>
   173de:	4631      	mov	r1, r6
   173e0:	4628      	mov	r0, r5
   173e2:	f000 fe1d 	bl	18020 <wc_Md5Final>
   173e6:	4604      	mov	r4, r0
   173e8:	4628      	mov	r0, r5
   173ea:	f000 fe82 	bl	180f2 <wc_Md5Free>
   173ee:	4628      	mov	r0, r5
   173f0:	f7f9 e810 	blx	10414 <free@plt>
   173f4:	4620      	mov	r0, r4
   173f6:	e8bd 81f0 	ldmia.w	sp!, {r4, r5, r6, r7, r8, pc}
   173fa:	f06f 047c 	mvn.w	r4, #124	; 0x7c
   173fe:	e7f9      	b.n	173f4 <wc_Md5Hash+0x40>

00017400 <wc_ShaHash>:
   17400:	e92d 41f0 	stmdb	sp!, {r4, r5, r6, r7, r8, lr}
   17404:	4607      	mov	r7, r0
   17406:	2064      	movs	r0, #100	; 0x64
   17408:	4688      	mov	r8, r1
   1740a:	4616      	mov	r6, r2
   1740c:	f7f9 e81a 	blx	10444 <malloc@plt>
   17410:	4605      	mov	r5, r0
   17412:	b1d8      	cbz	r0, 1744c <wc_ShaHash+0x4c>
   17414:	f06f 0201 	mvn.w	r2, #1
   17418:	2100      	movs	r1, #0
   1741a:	f7fb ff83 	bl	13324 <wc_InitSha_ex>
   1741e:	4604      	mov	r4, r0
   17420:	b970      	cbnz	r0, 17440 <wc_ShaHash+0x40>
   17422:	4642      	mov	r2, r8
   17424:	4639      	mov	r1, r7
   17426:	4628      	mov	r0, r5
   17428:	f7fb ff9c 	bl	13364 <wc_ShaUpdate>
   1742c:	4604      	mov	r4, r0
   1742e:	b920      	cbnz	r0, 1743a <wc_ShaHash+0x3a>
   17430:	4631      	mov	r1, r6
   17432:	4628      	mov	r0, r5
   17434:	f7fb fffe 	bl	13434 <wc_ShaFinal>
   17438:	4604      	mov	r4, r0
   1743a:	4628      	mov	r0, r5
   1743c:	f7fc f86c 	bl	13518 <wc_ShaFree>
   17440:	4628      	mov	r0, r5
   17442:	f7f8 efe8 	blx	10414 <free@plt>
   17446:	4620      	mov	r0, r4
   17448:	e8bd 81f0 	ldmia.w	sp!, {r4, r5, r6, r7, r8, pc}
   1744c:	f06f 047c 	mvn.w	r4, #124	; 0x7c
   17450:	e7f9      	b.n	17446 <wc_ShaHash+0x46>

00017452 <wc_Sha224Hash>:
   17452:	e92d 41f0 	stmdb	sp!, {r4, r5, r6, r7, r8, lr}
   17456:	4607      	mov	r7, r0
   17458:	2070      	movs	r0, #112	; 0x70
   1745a:	4688      	mov	r8, r1
   1745c:	4616      	mov	r6, r2
   1745e:	f7f8 eff2 	blx	10444 <malloc@plt>
   17462:	4605      	mov	r5, r0
   17464:	b1c0      	cbz	r0, 17498 <wc_Sha224Hash+0x46>
   17466:	f7fc fba1 	bl	13bac <wc_InitSha224>
   1746a:	4604      	mov	r4, r0
   1746c:	b970      	cbnz	r0, 1748c <wc_Sha224Hash+0x3a>
   1746e:	4642      	mov	r2, r8
   17470:	4639      	mov	r1, r7
   17472:	4628      	mov	r0, r5
   17474:	f7fc fb52 	bl	13b1c <wc_Sha224Update>
   17478:	4604      	mov	r4, r0
   1747a:	b920      	cbnz	r0, 17486 <wc_Sha224Hash+0x34>
   1747c:	4631      	mov	r1, r6
   1747e:	4628      	mov	r0, r5
   17480:	f7fc fb54 	bl	13b2c <wc_Sha224Final>
   17484:	4604      	mov	r4, r0
   17486:	4628      	mov	r0, r5
   17488:	f7fc fb95 	bl	13bb6 <wc_Sha224Free>
   1748c:	4628      	mov	r0, r5
   1748e:	f7f8 efc2 	blx	10414 <free@plt>
   17492:	4620      	mov	r0, r4
   17494:	e8bd 81f0 	ldmia.w	sp!, {r4, r5, r6, r7, r8, pc}
   17498:	f06f 047c 	mvn.w	r4, #124	; 0x7c
   1749c:	e7f9      	b.n	17492 <wc_Sha224Hash+0x40>

0001749e <wc_Sha256Hash>:
   1749e:	e92d 41f0 	stmdb	sp!, {r4, r5, r6, r7, r8, lr}
   174a2:	4607      	mov	r7, r0
   174a4:	2070      	movs	r0, #112	; 0x70
   174a6:	4688      	mov	r8, r1
   174a8:	4616      	mov	r6, r2
   174aa:	f7f8 efcc 	blx	10444 <malloc@plt>
   174ae:	4605      	mov	r5, r0
   174b0:	b1d8      	cbz	r0, 174ea <wc_Sha256Hash+0x4c>
   174b2:	f06f 0201 	mvn.w	r2, #1
   174b6:	2100      	movs	r1, #0
   174b8:	f7fc fa76 	bl	139a8 <wc_InitSha256_ex>
   174bc:	4604      	mov	r4, r0
   174be:	b970      	cbnz	r0, 174de <wc_Sha256Hash+0x40>
   174c0:	4642      	mov	r2, r8
   174c2:	4639      	mov	r1, r7
   174c4:	4628      	mov	r0, r5
   174c6:	f7fc faa3 	bl	13a10 <wc_Sha256Update>
   174ca:	4604      	mov	r4, r0
   174cc:	b920      	cbnz	r0, 174d8 <wc_Sha256Hash+0x3a>
   174ce:	4631      	mov	r1, r6
   174d0:	4628      	mov	r0, r5
   174d2:	f7fc faaf 	bl	13a34 <wc_Sha256Final>
   174d6:	4604      	mov	r4, r0
   174d8:	4628      	mov	r0, r5
   174da:	f7fc fb72 	bl	13bc2 <wc_Sha256Free>
   174de:	4628      	mov	r0, r5
   174e0:	f7f8 ef98 	blx	10414 <free@plt>
   174e4:	4620      	mov	r0, r4
   174e6:	e8bd 81f0 	ldmia.w	sp!, {r4, r5, r6, r7, r8, pc}
   174ea:	f06f 047c 	mvn.w	r4, #124	; 0x7c
   174ee:	e7f9      	b.n	174e4 <wc_Sha256Hash+0x46>

000174f0 <wc_Sha512Hash>:
   174f0:	e92d 41f0 	stmdb	sp!, {r4, r5, r6, r7, r8, lr}
   174f4:	4607      	mov	r7, r0
   174f6:	20e0      	movs	r0, #224	; 0xe0
   174f8:	4688      	mov	r8, r1
   174fa:	4616      	mov	r6, r2
   174fc:	f7f8 efa2 	blx	10444 <malloc@plt>
   17500:	4605      	mov	r5, r0
   17502:	b1c0      	cbz	r0, 17536 <wc_Sha512Hash+0x46>
   17504:	f7fe fd73 	bl	15fee <wc_InitSha512>
   17508:	4604      	mov	r4, r0
   1750a:	b970      	cbnz	r0, 1752a <wc_Sha512Hash+0x3a>
   1750c:	4642      	mov	r2, r8
   1750e:	4639      	mov	r1, r7
   17510:	4628      	mov	r0, r5
   17512:	f7fe fd03 	bl	15f1c <wc_Sha512Update>
   17516:	4604      	mov	r4, r0
   17518:	b920      	cbnz	r0, 17524 <wc_Sha512Hash+0x34>
   1751a:	4631      	mov	r1, r6
   1751c:	4628      	mov	r0, r5
   1751e:	f7fe fcd3 	bl	15ec8 <wc_Sha512Final>
   17522:	4604      	mov	r4, r0
   17524:	4628      	mov	r0, r5
   17526:	f7fe fd67 	bl	15ff8 <wc_Sha512Free>
   1752a:	4628      	mov	r0, r5
   1752c:	f7f8 ef72 	blx	10414 <free@plt>
   17530:	4620      	mov	r0, r4
   17532:	e8bd 81f0 	ldmia.w	sp!, {r4, r5, r6, r7, r8, pc}
   17536:	f06f 047c 	mvn.w	r4, #124	; 0x7c
   1753a:	e7f9      	b.n	17530 <wc_Sha512Hash+0x40>

0001753c <wc_Sha512_224Hash>:
   1753c:	e92d 41f0 	stmdb	sp!, {r4, r5, r6, r7, r8, lr}
   17540:	4607      	mov	r7, r0
   17542:	20e0      	movs	r0, #224	; 0xe0
   17544:	4688      	mov	r8, r1
   17546:	4616      	mov	r6, r2
   17548:	f7f8 ef7c 	blx	10444 <malloc@plt>
   1754c:	4605      	mov	r5, r0
   1754e:	b1c0      	cbz	r0, 17582 <wc_Sha512_224Hash+0x46>
   17550:	f7fe fe20 	bl	16194 <wc_InitSha512_224>
   17554:	4604      	mov	r4, r0
   17556:	b970      	cbnz	r0, 17576 <wc_Sha512_224Hash+0x3a>
   17558:	4642      	mov	r2, r8
   1755a:	4639      	mov	r1, r7
   1755c:	4628      	mov	r0, r5
   1755e:	f7fe fe1e 	bl	1619e <wc_Sha512_224Update>
   17562:	4604      	mov	r4, r0
   17564:	b920      	cbnz	r0, 17570 <wc_Sha512_224Hash+0x34>
   17566:	4631      	mov	r1, r6
   17568:	4628      	mov	r0, r5
   1756a:	f7fe fcb3 	bl	15ed4 <wc_Sha512_224Final>
   1756e:	4604      	mov	r4, r0
   17570:	4628      	mov	r0, r5
   17572:	f7fe fe16 	bl	161a2 <wc_Sha512_224Free>
   17576:	4628      	mov	r0, r5
   17578:	f7f8 ef4c 	blx	10414 <free@plt>
   1757c:	4620      	mov	r0, r4
   1757e:	e8bd 81f0 	ldmia.w	sp!, {r4, r5, r6, r7, r8, pc}
   17582:	f06f 047c 	mvn.w	r4, #124	; 0x7c
   17586:	e7f9      	b.n	1757c <wc_Sha512_224Hash+0x40>

00017588 <wc_Sha512_256Hash>:
   17588:	e92d 41f0 	stmdb	sp!, {r4, r5, r6, r7, r8, lr}
   1758c:	4607      	mov	r7, r0
   1758e:	20e0      	movs	r0, #224	; 0xe0
   17590:	4688      	mov	r8, r1
   17592:	4616      	mov	r6, r2
   17594:	f7f8 ef56 	blx	10444 <malloc@plt>
   17598:	4605      	mov	r5, r0
   1759a:	b1c0      	cbz	r0, 175ce <wc_Sha512_256Hash+0x46>
   1759c:	f7fe fe02 	bl	161a4 <wc_InitSha512_256>
   175a0:	4604      	mov	r4, r0
   175a2:	b970      	cbnz	r0, 175c2 <wc_Sha512_256Hash+0x3a>
   175a4:	4642      	mov	r2, r8
   175a6:	4639      	mov	r1, r7
   175a8:	4628      	mov	r0, r5
   175aa:	f7fe fe00 	bl	161ae <wc_Sha512_256Update>
   175ae:	4604      	mov	r4, r0
   175b0:	b920      	cbnz	r0, 175bc <wc_Sha512_256Hash+0x34>
   175b2:	4631      	mov	r1, r6
   175b4:	4628      	mov	r0, r5
   175b6:	f7fe fc93 	bl	15ee0 <wc_Sha512_256Final>
   175ba:	4604      	mov	r4, r0
   175bc:	4628      	mov	r0, r5
   175be:	f7fe fdf8 	bl	161b2 <wc_Sha512_256Free>
   175c2:	4628      	mov	r0, r5
   175c4:	f7f8 ef26 	blx	10414 <free@plt>
   175c8:	4620      	mov	r0, r4
   175ca:	e8bd 81f0 	ldmia.w	sp!, {r4, r5, r6, r7, r8, pc}
   175ce:	f06f 047c 	mvn.w	r4, #124	; 0x7c
   175d2:	e7f9      	b.n	175c8 <wc_Sha512_256Hash+0x40>

000175d4 <wc_Sha384Hash>:
   175d4:	e92d 41f0 	stmdb	sp!, {r4, r5, r6, r7, r8, lr}
   175d8:	4607      	mov	r7, r0
   175da:	20e0      	movs	r0, #224	; 0xe0
   175dc:	4688      	mov	r8, r1
   175de:	4616      	mov	r6, r2
   175e0:	f7f8 ef30 	blx	10444 <malloc@plt>
   175e4:	4605      	mov	r5, r0
   175e6:	b1c0      	cbz	r0, 1761a <wc_Sha384Hash+0x46>
   175e8:	f7fe fdce 	bl	16188 <wc_InitSha384>
   175ec:	4604      	mov	r4, r0
   175ee:	b970      	cbnz	r0, 1760e <wc_Sha384Hash+0x3a>
   175f0:	4642      	mov	r2, r8
   175f2:	4639      	mov	r1, r7
   175f4:	4628      	mov	r0, r5
   175f6:	f7fe fd00 	bl	15ffa <wc_Sha384Update>
   175fa:	4604      	mov	r4, r0
   175fc:	b920      	cbnz	r0, 17608 <wc_Sha384Hash+0x34>
   175fe:	4631      	mov	r1, r6
   17600:	4628      	mov	r0, r5
   17602:	f7fe fcfd 	bl	16000 <wc_Sha384Final>
   17606:	4604      	mov	r4, r0
   17608:	4628      	mov	r0, r5
   1760a:	f7fe fdc2 	bl	16192 <wc_Sha384Free>
   1760e:	4628      	mov	r0, r5
   17610:	f7f8 ef00 	blx	10414 <free@plt>
   17614:	4620      	mov	r0, r4
   17616:	e8bd 81f0 	ldmia.w	sp!, {r4, r5, r6, r7, r8, pc}
   1761a:	f06f 047c 	mvn.w	r4, #124	; 0x7c
   1761e:	e7f9      	b.n	17614 <wc_Sha384Hash+0x40>

00017620 <wc_Sha3_224Hash>:
   17620:	e92d 41f0 	stmdb	sp!, {r4, r5, r6, r7, r8, lr}
   17624:	4607      	mov	r7, r0
   17626:	f44f 70cc 	mov.w	r0, #408	; 0x198
   1762a:	4688      	mov	r8, r1
   1762c:	4616      	mov	r6, r2
   1762e:	f7f8 ef0a 	blx	10444 <malloc@plt>
   17632:	4605      	mov	r5, r0
   17634:	b1d8      	cbz	r0, 1766e <wc_Sha3_224Hash+0x4e>
   17636:	f06f 0201 	mvn.w	r2, #1
   1763a:	2100      	movs	r1, #0
   1763c:	f7ff fe6d 	bl	1731a <wc_InitSha3_224>
   17640:	4604      	mov	r4, r0
   17642:	b970      	cbnz	r0, 17662 <wc_Sha3_224Hash+0x42>
   17644:	4642      	mov	r2, r8
   17646:	4639      	mov	r1, r7
   17648:	4628      	mov	r0, r5
   1764a:	f7ff fe6e 	bl	1732a <wc_Sha3_224_Update>
   1764e:	4604      	mov	r4, r0
   17650:	b920      	cbnz	r0, 1765c <wc_Sha3_224Hash+0x3c>
   17652:	4631      	mov	r1, r6
   17654:	4628      	mov	r0, r5
   17656:	f7ff fe6b 	bl	17330 <wc_Sha3_224_Final>
   1765a:	4604      	mov	r4, r0
   1765c:	4628      	mov	r0, r5
   1765e:	f7ff fe6b 	bl	17338 <wc_Sha3_224_Free>
   17662:	4628      	mov	r0, r5
   17664:	f7f8 eed6 	blx	10414 <free@plt>
   17668:	4620      	mov	r0, r4
   1766a:	e8bd 81f0 	ldmia.w	sp!, {r4, r5, r6, r7, r8, pc}
   1766e:	f06f 047c 	mvn.w	r4, #124	; 0x7c
   17672:	e7f9      	b.n	17668 <wc_Sha3_224Hash+0x48>

00017674 <wc_Sha3_256Hash>:
   17674:	e92d 41f0 	stmdb	sp!, {r4, r5, r6, r7, r8, lr}
   17678:	4607      	mov	r7, r0
   1767a:	f44f 70cc 	mov.w	r0, #408	; 0x198
   1767e:	4688      	mov	r8, r1
   17680:	4616      	mov	r6, r2
   17682:	f7f8 eee0 	blx	10444 <malloc@plt>
   17686:	4605      	mov	r5, r0
   17688:	b1d8      	cbz	r0, 176c2 <wc_Sha3_256Hash+0x4e>
   1768a:	f06f 0201 	mvn.w	r2, #1
   1768e:	2100      	movs	r1, #0
   17690:	f7ff fe53 	bl	1733a <wc_InitSha3_256>
   17694:	4604      	mov	r4, r0
   17696:	b970      	cbnz	r0, 176b6 <wc_Sha3_256Hash+0x42>
   17698:	4642      	mov	r2, r8
   1769a:	4639      	mov	r1, r7
   1769c:	4628      	mov	r0, r5
   1769e:	f7ff fe54 	bl	1734a <wc_Sha3_256_Update>
   176a2:	4604      	mov	r4, r0
   176a4:	b920      	cbnz	r0, 176b0 <wc_Sha3_256Hash+0x3c>
   176a6:	4631      	mov	r1, r6
   176a8:	4628      	mov	r0, r5
   176aa:	f7ff fe51 	bl	17350 <wc_Sha3_256_Final>
   176ae:	4604      	mov	r4, r0
   176b0:	4628      	mov	r0, r5
   176b2:	f7ff fe51 	bl	17358 <wc_Sha3_256_Free>
   176b6:	4628      	mov	r0, r5
   176b8:	f7f8 eeac 	blx	10414 <free@plt>
   176bc:	4620      	mov	r0, r4
   176be:	e8bd 81f0 	ldmia.w	sp!, {r4, r5, r6, r7, r8, pc}
   176c2:	f06f 047c 	mvn.w	r4, #124	; 0x7c
   176c6:	e7f9      	b.n	176bc <wc_Sha3_256Hash+0x48>

000176c8 <wc_Sha3_384Hash>:
   176c8:	e92d 41f0 	stmdb	sp!, {r4, r5, r6, r7, r8, lr}
   176cc:	4607      	mov	r7, r0
   176ce:	f44f 70cc 	mov.w	r0, #408	; 0x198
   176d2:	4688      	mov	r8, r1
   176d4:	4616      	mov	r6, r2
   176d6:	f7f8 eeb6 	blx	10444 <malloc@plt>
   176da:	4605      	mov	r5, r0
   176dc:	b1d8      	cbz	r0, 17716 <wc_Sha3_384Hash+0x4e>
   176de:	f06f 0201 	mvn.w	r2, #1
   176e2:	2100      	movs	r1, #0
   176e4:	f7ff fe39 	bl	1735a <wc_InitSha3_384>
   176e8:	4604      	mov	r4, r0
   176ea:	b970      	cbnz	r0, 1770a <wc_Sha3_384Hash+0x42>
   176ec:	4642      	mov	r2, r8
   176ee:	4639      	mov	r1, r7
   176f0:	4628      	mov	r0, r5
   176f2:	f7ff fe3a 	bl	1736a <wc_Sha3_384_Update>
   176f6:	4604      	mov	r4, r0
   176f8:	b920      	cbnz	r0, 17704 <wc_Sha3_384Hash+0x3c>
   176fa:	4631      	mov	r1, r6
   176fc:	4628      	mov	r0, r5
   176fe:	f7ff fe37 	bl	17370 <wc_Sha3_384_Final>
   17702:	4604      	mov	r4, r0
   17704:	4628      	mov	r0, r5
   17706:	f7ff fe37 	bl	17378 <wc_Sha3_384_Free>
   1770a:	4628      	mov	r0, r5
   1770c:	f7f8 ee82 	blx	10414 <free@plt>
   17710:	4620      	mov	r0, r4
   17712:	e8bd 81f0 	ldmia.w	sp!, {r4, r5, r6, r7, r8, pc}
   17716:	f06f 047c 	mvn.w	r4, #124	; 0x7c
   1771a:	e7f9      	b.n	17710 <wc_Sha3_384Hash+0x48>

0001771c <wc_Sha3_512Hash>:
   1771c:	e92d 41f0 	stmdb	sp!, {r4, r5, r6, r7, r8, lr}
   17720:	4607      	mov	r7, r0
   17722:	f44f 70cc 	mov.w	r0, #408	; 0x198
   17726:	4688      	mov	r8, r1
   17728:	4616      	mov	r6, r2
   1772a:	f7f8 ee8c 	blx	10444 <malloc@plt>
   1772e:	4605      	mov	r5, r0
   17730:	b1d8      	cbz	r0, 1776a <wc_Sha3_512Hash+0x4e>
   17732:	f06f 0201 	mvn.w	r2, #1
   17736:	2100      	movs	r1, #0
   17738:	f7ff fe1f 	bl	1737a <wc_InitSha3_512>
   1773c:	4604      	mov	r4, r0
   1773e:	b970      	cbnz	r0, 1775e <wc_Sha3_512Hash+0x42>
   17740:	4642      	mov	r2, r8
   17742:	4639      	mov	r1, r7
   17744:	4628      	mov	r0, r5
   17746:	f7ff fe20 	bl	1738a <wc_Sha3_512_Update>
   1774a:	4604      	mov	r4, r0
   1774c:	b920      	cbnz	r0, 17758 <wc_Sha3_512Hash+0x3c>
   1774e:	4631      	mov	r1, r6
   17750:	4628      	mov	r0, r5
   17752:	f7ff fe1d 	bl	17390 <wc_Sha3_512_Final>
   17756:	4604      	mov	r4, r0
   17758:	4628      	mov	r0, r5
   1775a:	f7ff fe1d 	bl	17398 <wc_Sha3_512_Free>
   1775e:	4628      	mov	r0, r5
   17760:	f7f8 ee58 	blx	10414 <free@plt>
   17764:	4620      	mov	r0, r4
   17766:	e8bd 81f0 	ldmia.w	sp!, {r4, r5, r6, r7, r8, pc}
   1776a:	f06f 047c 	mvn.w	r4, #124	; 0x7c
   1776e:	e7f9      	b.n	17764 <wc_Sha3_512Hash+0x48>

00017770 <wc_Hash>:
   17770:	b537      	push	{r0, r1, r2, r4, r5, lr}
   17772:	4605      	mov	r5, r0
   17774:	460c      	mov	r4, r1
   17776:	4611      	mov	r1, r2
   17778:	461a      	mov	r2, r3
   1777a:	f7ff fe0f 	bl	1739c <wc_HashGetDigestSize>
   1777e:	9b06      	ldr	r3, [sp, #24]
   17780:	4298      	cmp	r0, r3
   17782:	d85d      	bhi.n	17840 <wc_Hash+0xd0>
   17784:	1ee8      	subs	r0, r5, #3
   17786:	280e      	cmp	r0, #14
   17788:	d85e      	bhi.n	17848 <wc_Hash+0xd8>
   1778a:	e8df f000 	tbb	[pc, r0]
   1778e:	3b08      	.short	0x3b08
   17790:	201a140e 	.word	0x201a140e
   17794:	4d474132 	.word	0x4d474132
   17798:	265d5d53 	.word	0x265d5d53
   1779c:	2c          	.byte	0x2c
   1779d:	00          	.byte	0x00
   1779e:	4620      	mov	r0, r4
   177a0:	b003      	add	sp, #12
   177a2:	e8bd 4030 	ldmia.w	sp!, {r4, r5, lr}
   177a6:	f7ff be05 	b.w	173b4 <wc_Md5Hash>
   177aa:	4620      	mov	r0, r4
   177ac:	b003      	add	sp, #12
   177ae:	e8bd 4030 	ldmia.w	sp!, {r4, r5, lr}
   177b2:	f7ff be4e 	b.w	17452 <wc_Sha224Hash>
   177b6:	4620      	mov	r0, r4
   177b8:	b003      	add	sp, #12
   177ba:	e8bd 4030 	ldmia.w	sp!, {r4, r5, lr}
   177be:	f7ff be6e 	b.w	1749e <wc_Sha256Hash>
   177c2:	4620      	mov	r0, r4
   177c4:	b003      	add	sp, #12
   177c6:	e8bd 4030 	ldmia.w	sp!, {r4, r5, lr}
   177ca:	f7ff bf03 	b.w	175d4 <wc_Sha384Hash>
   177ce:	4620      	mov	r0, r4
   177d0:	b003      	add	sp, #12
   177d2:	e8bd 4030 	ldmia.w	sp!, {r4, r5, lr}
   177d6:	f7ff be8b 	b.w	174f0 <wc_Sha512Hash>
   177da:	4620      	mov	r0, r4
   177dc:	b003      	add	sp, #12
   177de:	e8bd 4030 	ldmia.w	sp!, {r4, r5, lr}
   177e2:	f7ff beab 	b.w	1753c <wc_Sha512_224Hash>
   177e6:	4620      	mov	r0, r4
   177e8:	b003      	add	sp, #12
   177ea:	e8bd 4030 	ldmia.w	sp!, {r4, r5, lr}
   177ee:	f7ff becb 	b.w	17588 <wc_Sha512_256Hash>
   177f2:	4620      	mov	r0, r4
   177f4:	e9cd 1200 	strd	r1, r2, [sp]
   177f8:	f7ff fddc 	bl	173b4 <wc_Md5Hash>
   177fc:	e9dd 1200 	ldrd	r1, r2, [sp]
   17800:	bb00      	cbnz	r0, 17844 <wc_Hash+0xd4>
   17802:	3210      	adds	r2, #16
   17804:	4620      	mov	r0, r4
   17806:	b003      	add	sp, #12
   17808:	e8bd 4030 	ldmia.w	sp!, {r4, r5, lr}
   1780c:	f7ff bdf8 	b.w	17400 <wc_ShaHash>
   17810:	4620      	mov	r0, r4
   17812:	b003      	add	sp, #12
   17814:	e8bd 4030 	ldmia.w	sp!, {r4, r5, lr}
   17818:	f7ff bf02 	b.w	17620 <wc_Sha3_224Hash>
   1781c:	4620      	mov	r0, r4
   1781e:	b003      	add	sp, #12
   17820:	e8bd 4030 	ldmia.w	sp!, {r4, r5, lr}
   17824:	f7ff bf26 	b.w	17674 <wc_Sha3_256Hash>
   17828:	4620      	mov	r0, r4
   1782a:	b003      	add	sp, #12
   1782c:	e8bd 4030 	ldmia.w	sp!, {r4, r5, lr}
   17830:	f7ff bf4a 	b.w	176c8 <wc_Sha3_384Hash>
   17834:	4620      	mov	r0, r4
   17836:	b003      	add	sp, #12
   17838:	e8bd 4030 	ldmia.w	sp!, {r4, r5, lr}
   1783c:	f7ff bf6e 	b.w	1771c <wc_Sha3_512Hash>
   17840:	f06f 0083 	mvn.w	r0, #131	; 0x83
   17844:	b003      	add	sp, #12
   17846:	bd30      	pop	{r4, r5, pc}
   17848:	f06f 00ac 	mvn.w	r0, #172	; 0xac
   1784c:	e7fa      	b.n	17844 <wc_Hash+0xd4>
	...

00017850 <Transform>:
   17850:	680b      	ldr	r3, [r1, #0]
   17852:	e92d 4ff0 	stmdb	sp!, {r4, r5, r6, r7, r8, r9, sl, fp, lr}
   17856:	b08d      	sub	sp, #52	; 0x34
   17858:	f8d0 a050 	ldr.w	sl, [r0, #80]	; 0x50
   1785c:	e9cd 0300 	strd	r0, r3, [sp]
   17860:	6d43      	ldr	r3, [r0, #84]	; 0x54
   17862:	6d82      	ldr	r2, [r0, #88]	; 0x58
   17864:	ea83 0e02 	eor.w	lr, r3, r2
   17868:	4bd5      	ldr	r3, [pc, #852]	; (17bc0 <Transform+0x370>)
   1786a:	ea0e 0e0a 	and.w	lr, lr, sl
   1786e:	ea8e 0e02 	eor.w	lr, lr, r2
   17872:	6cc2      	ldr	r2, [r0, #76]	; 0x4c
   17874:	4413      	add	r3, r2
   17876:	9a01      	ldr	r2, [sp, #4]
   17878:	4413      	add	r3, r2
   1787a:	6d82      	ldr	r2, [r0, #88]	; 0x58
   1787c:	449e      	add	lr, r3
   1787e:	684b      	ldr	r3, [r1, #4]
   17880:	eb0a 6e7e 	add.w	lr, sl, lr, ror #25
   17884:	ea8a 050e 	eor.w	r5, sl, lr
   17888:	9302      	str	r3, [sp, #8]
   1788a:	6d43      	ldr	r3, [r0, #84]	; 0x54
   1788c:	ea8a 0703 	eor.w	r7, sl, r3
   17890:	6d43      	ldr	r3, [r0, #84]	; 0x54
   17892:	ea07 070e 	and.w	r7, r7, lr
   17896:	405f      	eors	r7, r3
   17898:	4bca      	ldr	r3, [pc, #808]	; (17bc4 <Transform+0x374>)
   1789a:	4413      	add	r3, r2
   1789c:	9a02      	ldr	r2, [sp, #8]
   1789e:	4413      	add	r3, r2
   178a0:	6d42      	ldr	r2, [r0, #84]	; 0x54
   178a2:	441f      	add	r7, r3
   178a4:	688b      	ldr	r3, [r1, #8]
   178a6:	eb0e 5737 	add.w	r7, lr, r7, ror #20
   178aa:	403d      	ands	r5, r7
   178ac:	ea8e 0607 	eor.w	r6, lr, r7
   178b0:	ea85 050a 	eor.w	r5, r5, sl
   178b4:	9303      	str	r3, [sp, #12]
   178b6:	4bc4      	ldr	r3, [pc, #784]	; (17bc8 <Transform+0x378>)
   178b8:	4413      	add	r3, r2
   178ba:	9a03      	ldr	r2, [sp, #12]
   178bc:	4413      	add	r3, r2
   178be:	441d      	add	r5, r3
   178c0:	68cb      	ldr	r3, [r1, #12]
   178c2:	eb07 35f5 	add.w	r5, r7, r5, ror #15
   178c6:	402e      	ands	r6, r5
   178c8:	ea86 060e 	eor.w	r6, r6, lr
   178cc:	9304      	str	r3, [sp, #16]
   178ce:	4bbf      	ldr	r3, [pc, #764]	; (17bcc <Transform+0x37c>)
   178d0:	9a04      	ldr	r2, [sp, #16]
   178d2:	4453      	add	r3, sl
   178d4:	4413      	add	r3, r2
   178d6:	4abe      	ldr	r2, [pc, #760]	; (17bd0 <Transform+0x380>)
   178d8:	441e      	add	r6, r3
   178da:	690b      	ldr	r3, [r1, #16]
   178dc:	eb05 26b6 	add.w	r6, r5, r6, ror #10
   178e0:	9305      	str	r3, [sp, #20]
   178e2:	ea87 0305 	eor.w	r3, r7, r5
   178e6:	9c05      	ldr	r4, [sp, #20]
   178e8:	4033      	ands	r3, r6
   178ea:	407b      	eors	r3, r7
   178ec:	4422      	add	r2, r4
   178ee:	ea85 0406 	eor.w	r4, r5, r6
   178f2:	4472      	add	r2, lr
   178f4:	4413      	add	r3, r2
   178f6:	694a      	ldr	r2, [r1, #20]
   178f8:	eb06 6373 	add.w	r3, r6, r3, ror #25
   178fc:	401c      	ands	r4, r3
   178fe:	406c      	eors	r4, r5
   17900:	9206      	str	r2, [sp, #24]
   17902:	4ab4      	ldr	r2, [pc, #720]	; (17bd4 <Transform+0x384>)
   17904:	9806      	ldr	r0, [sp, #24]
   17906:	4402      	add	r2, r0
   17908:	443a      	add	r2, r7
   1790a:	4fb3      	ldr	r7, [pc, #716]	; (17bd8 <Transform+0x388>)
   1790c:	4414      	add	r4, r2
   1790e:	698a      	ldr	r2, [r1, #24]
   17910:	eb03 5434 	add.w	r4, r3, r4, ror #20
   17914:	ea83 0804 	eor.w	r8, r3, r4
   17918:	9207      	str	r2, [sp, #28]
   1791a:	ea86 0203 	eor.w	r2, r6, r3
   1791e:	9807      	ldr	r0, [sp, #28]
   17920:	4022      	ands	r2, r4
   17922:	4072      	eors	r2, r6
   17924:	4407      	add	r7, r0
   17926:	69c8      	ldr	r0, [r1, #28]
   17928:	443d      	add	r5, r7
   1792a:	442a      	add	r2, r5
   1792c:	4dab      	ldr	r5, [pc, #684]	; (17bdc <Transform+0x38c>)
   1792e:	eb04 32f2 	add.w	r2, r4, r2, ror #15
   17932:	ea08 0802 	and.w	r8, r8, r2
   17936:	9008      	str	r0, [sp, #32]
   17938:	ea84 0c02 	eor.w	ip, r4, r2
   1793c:	ea88 0803 	eor.w	r8, r8, r3
   17940:	4405      	add	r5, r0
   17942:	6a08      	ldr	r0, [r1, #32]
   17944:	4435      	add	r5, r6
   17946:	44a8      	add	r8, r5
   17948:	4da5      	ldr	r5, [pc, #660]	; (17be0 <Transform+0x390>)
   1794a:	eb02 28b8 	add.w	r8, r2, r8, ror #10
   1794e:	6a8e      	ldr	r6, [r1, #40]	; 0x28
   17950:	ea0c 0c08 	and.w	ip, ip, r8
   17954:	ea82 0908 	eor.w	r9, r2, r8
   17958:	ea8c 0c04 	eor.w	ip, ip, r4
   1795c:	4405      	add	r5, r0
   1795e:	442b      	add	r3, r5
   17960:	449c      	add	ip, r3
   17962:	6a4b      	ldr	r3, [r1, #36]	; 0x24
   17964:	eb08 6c7c 	add.w	ip, r8, ip, ror #25
   17968:	ea09 090c 	and.w	r9, r9, ip
   1796c:	ea88 0e0c 	eor.w	lr, r8, ip
   17970:	ea89 0902 	eor.w	r9, r9, r2
   17974:	e9cd 0309 	strd	r0, r3, [sp, #36]	; 0x24
   17978:	4b9a      	ldr	r3, [pc, #616]	; (17be4 <Transform+0x394>)
   1797a:	980a      	ldr	r0, [sp, #40]	; 0x28
   1797c:	4403      	add	r3, r0
   1797e:	9802      	ldr	r0, [sp, #8]
   17980:	4423      	add	r3, r4
   17982:	4499      	add	r9, r3
   17984:	f5a6 4324 	sub.w	r3, r6, #41984	; 0xa400
   17988:	eb0c 5939 	add.w	r9, ip, r9, ror #20
   1798c:	3b4f      	subs	r3, #79	; 0x4f
   1798e:	4413      	add	r3, r2
   17990:	ea0e 0e09 	and.w	lr, lr, r9
   17994:	ea8c 0509 	eor.w	r5, ip, r9
   17998:	ea8e 0e08 	eor.w	lr, lr, r8
   1799c:	449e      	add	lr, r3
   1799e:	6acb      	ldr	r3, [r1, #44]	; 0x2c
   179a0:	eb09 3efe 	add.w	lr, r9, lr, ror #15
   179a4:	ea05 050e 	and.w	r5, r5, lr
   179a8:	ea89 070e 	eor.w	r7, r9, lr
   179ac:	ea85 050c 	eor.w	r5, r5, ip
   179b0:	930b      	str	r3, [sp, #44]	; 0x2c
   179b2:	4b8d      	ldr	r3, [pc, #564]	; (17be8 <Transform+0x398>)
   179b4:	9a0b      	ldr	r2, [sp, #44]	; 0x2c
   179b6:	4413      	add	r3, r2
   179b8:	4a8c      	ldr	r2, [pc, #560]	; (17bec <Transform+0x39c>)
   179ba:	4443      	add	r3, r8
   179bc:	441d      	add	r5, r3
   179be:	4b8c      	ldr	r3, [pc, #560]	; (17bf0 <Transform+0x3a0>)
   179c0:	eb0e 25b5 	add.w	r5, lr, r5, ror #10
   179c4:	f8d1 8030 	ldr.w	r8, [r1, #48]	; 0x30
   179c8:	402f      	ands	r7, r5
   179ca:	ea87 0709 	eor.w	r7, r7, r9
   179ce:	4443      	add	r3, r8
   179d0:	4463      	add	r3, ip
   179d2:	f8d1 c034 	ldr.w	ip, [r1, #52]	; 0x34
   179d6:	441f      	add	r7, r3
   179d8:	ea8e 0305 	eor.w	r3, lr, r5
   179dc:	eb05 6777 	add.w	r7, r5, r7, ror #25
   179e0:	403b      	ands	r3, r7
   179e2:	ea85 0407 	eor.w	r4, r5, r7
   179e6:	4462      	add	r2, ip
   179e8:	ea83 030e 	eor.w	r3, r3, lr
   179ec:	444a      	add	r2, r9
   179ee:	f8d1 9038 	ldr.w	r9, [r1, #56]	; 0x38
   179f2:	4413      	add	r3, r2
   179f4:	4a7f      	ldr	r2, [pc, #508]	; (17bf4 <Transform+0x3a4>)
   179f6:	eb07 5333 	add.w	r3, r7, r3, ror #20
   179fa:	401c      	ands	r4, r3
   179fc:	406c      	eors	r4, r5
   179fe:	444a      	add	r2, r9
   17a00:	4472      	add	r2, lr
   17a02:	f8d1 e03c 	ldr.w	lr, [r1, #60]	; 0x3c
   17a06:	4414      	add	r4, r2
   17a08:	ea87 0203 	eor.w	r2, r7, r3
   17a0c:	497a      	ldr	r1, [pc, #488]	; (17bf8 <Transform+0x3a8>)
   17a0e:	eb03 34f4 	add.w	r4, r3, r4, ror #15
   17a12:	4022      	ands	r2, r4
   17a14:	407a      	eors	r2, r7
   17a16:	4471      	add	r1, lr
   17a18:	440d      	add	r5, r1
   17a1a:	4978      	ldr	r1, [pc, #480]	; (17bfc <Transform+0x3ac>)
   17a1c:	442a      	add	r2, r5
   17a1e:	eb04 22b2 	add.w	r2, r4, r2, ror #10
   17a22:	ea84 0b02 	eor.w	fp, r4, r2
   17a26:	ea0b 0b03 	and.w	fp, fp, r3
   17a2a:	4401      	add	r1, r0
   17a2c:	9807      	ldr	r0, [sp, #28]
   17a2e:	4439      	add	r1, r7
   17a30:	ea8b 0b04 	eor.w	fp, fp, r4
   17a34:	448b      	add	fp, r1
   17a36:	4972      	ldr	r1, [pc, #456]	; (17c00 <Transform+0x3b0>)
   17a38:	eb02 6bfb 	add.w	fp, r2, fp, ror #27
   17a3c:	ea82 070b 	eor.w	r7, r2, fp
   17a40:	4027      	ands	r7, r4
   17a42:	4401      	add	r1, r0
   17a44:	4057      	eors	r7, r2
   17a46:	980b      	ldr	r0, [sp, #44]	; 0x2c
   17a48:	4419      	add	r1, r3
   17a4a:	440f      	add	r7, r1
   17a4c:	496d      	ldr	r1, [pc, #436]	; (17c04 <Transform+0x3b4>)
   17a4e:	eb0b 57f7 	add.w	r7, fp, r7, ror #23
   17a52:	ea8b 0307 	eor.w	r3, fp, r7
   17a56:	4013      	ands	r3, r2
   17a58:	4401      	add	r1, r0
   17a5a:	ea83 030b 	eor.w	r3, r3, fp
   17a5e:	9801      	ldr	r0, [sp, #4]
   17a60:	440c      	add	r4, r1
   17a62:	4969      	ldr	r1, [pc, #420]	; (17c08 <Transform+0x3b8>)
   17a64:	4423      	add	r3, r4
   17a66:	eb07 43b3 	add.w	r3, r7, r3, ror #18
   17a6a:	4c68      	ldr	r4, [pc, #416]	; (17c0c <Transform+0x3bc>)
   17a6c:	ea87 0503 	eor.w	r5, r7, r3
   17a70:	ea05 050b 	and.w	r5, r5, fp
   17a74:	4401      	add	r1, r0
   17a76:	407d      	eors	r5, r7
   17a78:	9806      	ldr	r0, [sp, #24]
   17a7a:	440a      	add	r2, r1
   17a7c:	4964      	ldr	r1, [pc, #400]	; (17c10 <Transform+0x3c0>)
   17a7e:	4415      	add	r5, r2
   17a80:	4434      	add	r4, r6
   17a82:	eb03 3535 	add.w	r5, r3, r5, ror #12
   17a86:	ea83 0205 	eor.w	r2, r3, r5
   17a8a:	403a      	ands	r2, r7
   17a8c:	4427      	add	r7, r4
   17a8e:	4401      	add	r1, r0
   17a90:	405a      	eors	r2, r3
   17a92:	9805      	ldr	r0, [sp, #20]
   17a94:	448b      	add	fp, r1
   17a96:	445a      	add	r2, fp
   17a98:	eb05 62f2 	add.w	r2, r5, r2, ror #27
   17a9c:	ea85 0102 	eor.w	r1, r5, r2
   17aa0:	4019      	ands	r1, r3
   17aa2:	4069      	eors	r1, r5
   17aa4:	4439      	add	r1, r7
   17aa6:	4f5b      	ldr	r7, [pc, #364]	; (17c14 <Transform+0x3c4>)
   17aa8:	eb02 51f1 	add.w	r1, r2, r1, ror #23
   17aac:	ea82 0401 	eor.w	r4, r2, r1
   17ab0:	402c      	ands	r4, r5
   17ab2:	4477      	add	r7, lr
   17ab4:	4054      	eors	r4, r2
   17ab6:	443b      	add	r3, r7
   17ab8:	4f57      	ldr	r7, [pc, #348]	; (17c18 <Transform+0x3c8>)
   17aba:	441c      	add	r4, r3
   17abc:	eb01 44b4 	add.w	r4, r1, r4, ror #18
   17ac0:	ea81 0304 	eor.w	r3, r1, r4
   17ac4:	4407      	add	r7, r0
   17ac6:	4013      	ands	r3, r2
   17ac8:	980a      	ldr	r0, [sp, #40]	; 0x28
   17aca:	443d      	add	r5, r7
   17acc:	404b      	eors	r3, r1
   17ace:	442b      	add	r3, r5
   17ad0:	4d52      	ldr	r5, [pc, #328]	; (17c1c <Transform+0x3cc>)
   17ad2:	eb04 3333 	add.w	r3, r4, r3, ror #12
   17ad6:	ea84 0b03 	eor.w	fp, r4, r3
   17ada:	ea0b 0b01 	and.w	fp, fp, r1
   17ade:	4405      	add	r5, r0
   17ae0:	ea8b 0b04 	eor.w	fp, fp, r4
   17ae4:	9809      	ldr	r0, [sp, #36]	; 0x24
   17ae6:	442a      	add	r2, r5
   17ae8:	4493      	add	fp, r2
   17aea:	4a4d      	ldr	r2, [pc, #308]	; (17c20 <Transform+0x3d0>)
   17aec:	eb03 6bfb 	add.w	fp, r3, fp, ror #27
   17af0:	ea83 070b 	eor.w	r7, r3, fp
   17af4:	4027      	ands	r7, r4
   17af6:	444a      	add	r2, r9
   17af8:	405f      	eors	r7, r3
   17afa:	4411      	add	r1, r2
   17afc:	4a49      	ldr	r2, [pc, #292]	; (17c24 <Transform+0x3d4>)
   17afe:	440f      	add	r7, r1
   17b00:	9904      	ldr	r1, [sp, #16]
   17b02:	eb0b 57f7 	add.w	r7, fp, r7, ror #23
   17b06:	ea8b 0507 	eor.w	r5, fp, r7
   17b0a:	401d      	ands	r5, r3
   17b0c:	ea85 050b 	eor.w	r5, r5, fp
   17b10:	440a      	add	r2, r1
   17b12:	4945      	ldr	r1, [pc, #276]	; (17c28 <Transform+0x3d8>)
   17b14:	4414      	add	r4, r2
   17b16:	4425      	add	r5, r4
   17b18:	4c44      	ldr	r4, [pc, #272]	; (17c2c <Transform+0x3dc>)
   17b1a:	eb07 45b5 	add.w	r5, r7, r5, ror #18
   17b1e:	ea87 0205 	eor.w	r2, r7, r5
   17b22:	4401      	add	r1, r0
   17b24:	9803      	ldr	r0, [sp, #12]
   17b26:	ea02 020b 	and.w	r2, r2, fp
   17b2a:	440b      	add	r3, r1
   17b2c:	407a      	eors	r2, r7
   17b2e:	4940      	ldr	r1, [pc, #256]	; (17c30 <Transform+0x3e0>)
   17b30:	441a      	add	r2, r3
   17b32:	eb05 3232 	add.w	r2, r5, r2, ror #12
   17b36:	4404      	add	r4, r0
   17b38:	9808      	ldr	r0, [sp, #32]
   17b3a:	ea85 0302 	eor.w	r3, r5, r2
   17b3e:	443c      	add	r4, r7
   17b40:	403b      	ands	r3, r7
   17b42:	4461      	add	r1, ip
   17b44:	4f3b      	ldr	r7, [pc, #236]	; (17c34 <Transform+0x3e4>)
   17b46:	4459      	add	r1, fp
   17b48:	406b      	eors	r3, r5
   17b4a:	440b      	add	r3, r1
   17b4c:	eb02 63f3 	add.w	r3, r2, r3, ror #27
   17b50:	ea82 0103 	eor.w	r1, r2, r3
   17b54:	4407      	add	r7, r0
   17b56:	9806      	ldr	r0, [sp, #24]
   17b58:	4029      	ands	r1, r5
   17b5a:	443d      	add	r5, r7
   17b5c:	4051      	eors	r1, r2
   17b5e:	4f36      	ldr	r7, [pc, #216]	; (17c38 <Transform+0x3e8>)
   17b60:	4421      	add	r1, r4
   17b62:	eb03 51f1 	add.w	r1, r3, r1, ror #23
   17b66:	ea83 0401 	eor.w	r4, r3, r1
   17b6a:	4014      	ands	r4, r2
   17b6c:	4447      	add	r7, r8
   17b6e:	405c      	eors	r4, r3
   17b70:	443a      	add	r2, r7
   17b72:	4f32      	ldr	r7, [pc, #200]	; (17c3c <Transform+0x3ec>)
   17b74:	442c      	add	r4, r5
   17b76:	eb01 44b4 	add.w	r4, r1, r4, ror #18
   17b7a:	ea81 0b04 	eor.w	fp, r1, r4
   17b7e:	ea0b 0503 	and.w	r5, fp, r3
   17b82:	404d      	eors	r5, r1
   17b84:	442a      	add	r2, r5
   17b86:	f5a0 25b8 	sub.w	r5, r0, #376832	; 0x5c000
   17b8a:	9809      	ldr	r0, [sp, #36]	; 0x24
   17b8c:	eb04 3232 	add.w	r2, r4, r2, ror #12
   17b90:	f2a5 65be 	subw	r5, r5, #1726	; 0x6be
   17b94:	442b      	add	r3, r5
   17b96:	ea8b 0b02 	eor.w	fp, fp, r2
   17b9a:	ea84 0502 	eor.w	r5, r4, r2
   17b9e:	445b      	add	r3, fp
   17ba0:	eb02 7333 	add.w	r3, r2, r3, ror #28
   17ba4:	4407      	add	r7, r0
   17ba6:	980b      	ldr	r0, [sp, #44]	; 0x2c
   17ba8:	4439      	add	r1, r7
   17baa:	405d      	eors	r5, r3
   17bac:	ea82 0703 	eor.w	r7, r2, r3
   17bb0:	4429      	add	r1, r5
   17bb2:	4d23      	ldr	r5, [pc, #140]	; (17c40 <Transform+0x3f0>)
   17bb4:	eb03 5171 	add.w	r1, r3, r1, ror #21
   17bb8:	404f      	eors	r7, r1
   17bba:	4405      	add	r5, r0
   17bbc:	9802      	ldr	r0, [sp, #8]
   17bbe:	e041      	b.n	17c44 <Transform+0x3f4>
   17bc0:	d76aa478 	.word	0xd76aa478
   17bc4:	e8c7b756 	.word	0xe8c7b756
   17bc8:	242070db 	.word	0x242070db
   17bcc:	c1bdceee 	.word	0xc1bdceee
   17bd0:	f57c0faf 	.word	0xf57c0faf
   17bd4:	4787c62a 	.word	0x4787c62a
   17bd8:	a8304613 	.word	0xa8304613
   17bdc:	fd469501 	.word	0xfd469501
   17be0:	698098d8 	.word	0x698098d8
   17be4:	8b44f7af 	.word	0x8b44f7af
   17be8:	895cd7be 	.word	0x895cd7be
   17bec:	fd987193 	.word	0xfd987193
   17bf0:	6b901122 	.word	0x6b901122
   17bf4:	a679438e 	.word	0xa679438e
   17bf8:	49b40821 	.word	0x49b40821
   17bfc:	f61e2562 	.word	0xf61e2562
   17c00:	c040b340 	.word	0xc040b340
   17c04:	265e5a51 	.word	0x265e5a51
   17c08:	e9b6c7aa 	.word	0xe9b6c7aa
   17c0c:	02441453 	.word	0x02441453
   17c10:	d62f105d 	.word	0xd62f105d
   17c14:	d8a1e681 	.word	0xd8a1e681
   17c18:	e7d3fbc8 	.word	0xe7d3fbc8
   17c1c:	21e1cde6 	.word	0x21e1cde6
   17c20:	c33707d6 	.word	0xc33707d6
   17c24:	f4d50d87 	.word	0xf4d50d87
   17c28:	455a14ed 	.word	0x455a14ed
   17c2c:	fcefa3f8 	.word	0xfcefa3f8
   17c30:	a9e3e905 	.word	0xa9e3e905
   17c34:	676f02d9 	.word	0x676f02d9
   17c38:	8d2a4c8a 	.word	0x8d2a4c8a
   17c3c:	8771f681 	.word	0x8771f681
   17c40:	6d9d6122 	.word	0x6d9d6122
   17c44:	442c      	add	r4, r5
   17c46:	ea83 0501 	eor.w	r5, r3, r1
   17c4a:	443c      	add	r4, r7
   17c4c:	4f9a      	ldr	r7, [pc, #616]	; (17eb8 <Transform+0x668>)
   17c4e:	eb01 4434 	add.w	r4, r1, r4, ror #16
   17c52:	4065      	eors	r5, r4
   17c54:	ea81 0b04 	eor.w	fp, r1, r4
   17c58:	444f      	add	r7, r9
   17c5a:	443a      	add	r2, r7
   17c5c:	4415      	add	r5, r2
   17c5e:	4a97      	ldr	r2, [pc, #604]	; (17ebc <Transform+0x66c>)
   17c60:	eb04 2575 	add.w	r5, r4, r5, ror #9
   17c64:	ea8b 0b05 	eor.w	fp, fp, r5
   17c68:	4402      	add	r2, r0
   17c6a:	9805      	ldr	r0, [sp, #20]
   17c6c:	4413      	add	r3, r2
   17c6e:	4a94      	ldr	r2, [pc, #592]	; (17ec0 <Transform+0x670>)
   17c70:	449b      	add	fp, r3
   17c72:	ea84 0305 	eor.w	r3, r4, r5
   17c76:	eb05 7b3b 	add.w	fp, r5, fp, ror #28
   17c7a:	ea83 030b 	eor.w	r3, r3, fp
   17c7e:	ea85 070b 	eor.w	r7, r5, fp
   17c82:	4402      	add	r2, r0
   17c84:	9801      	ldr	r0, [sp, #4]
   17c86:	4411      	add	r1, r2
   17c88:	4419      	add	r1, r3
   17c8a:	4b8e      	ldr	r3, [pc, #568]	; (17ec4 <Transform+0x674>)
   17c8c:	eb0b 5171 	add.w	r1, fp, r1, ror #21
   17c90:	9a08      	ldr	r2, [sp, #32]
   17c92:	404f      	eors	r7, r1
   17c94:	4413      	add	r3, r2
   17c96:	ea8b 0201 	eor.w	r2, fp, r1
   17c9a:	441c      	add	r4, r3
   17c9c:	4b8a      	ldr	r3, [pc, #552]	; (17ec8 <Transform+0x678>)
   17c9e:	4427      	add	r7, r4
   17ca0:	eb01 4737 	add.w	r7, r1, r7, ror #16
   17ca4:	407a      	eors	r2, r7
   17ca6:	ea81 0407 	eor.w	r4, r1, r7
   17caa:	4433      	add	r3, r6
   17cac:	f5a6 1680 	sub.w	r6, r6, #1048576	; 0x100000
   17cb0:	442b      	add	r3, r5
   17cb2:	f6a6 3683 	subw	r6, r6, #2947	; 0xb83
   17cb6:	441a      	add	r2, r3
   17cb8:	4b84      	ldr	r3, [pc, #528]	; (17ecc <Transform+0x67c>)
   17cba:	eb07 2272 	add.w	r2, r7, r2, ror #9
   17cbe:	4054      	eors	r4, r2
   17cc0:	ea87 0502 	eor.w	r5, r7, r2
   17cc4:	4463      	add	r3, ip
   17cc6:	449b      	add	fp, r3
   17cc8:	4b81      	ldr	r3, [pc, #516]	; (17ed0 <Transform+0x680>)
   17cca:	44a3      	add	fp, r4
   17ccc:	eb02 7b3b 	add.w	fp, r2, fp, ror #28
   17cd0:	ea85 050b 	eor.w	r5, r5, fp
   17cd4:	4403      	add	r3, r0
   17cd6:	9804      	ldr	r0, [sp, #16]
   17cd8:	4419      	add	r1, r3
   17cda:	ea82 030b 	eor.w	r3, r2, fp
   17cde:	440d      	add	r5, r1
   17ce0:	497c      	ldr	r1, [pc, #496]	; (17ed4 <Transform+0x684>)
   17ce2:	eb0b 5575 	add.w	r5, fp, r5, ror #21
   17ce6:	406b      	eors	r3, r5
   17ce8:	4401      	add	r1, r0
   17cea:	9807      	ldr	r0, [sp, #28]
   17cec:	4439      	add	r1, r7
   17cee:	ea8b 0705 	eor.w	r7, fp, r5
   17cf2:	440b      	add	r3, r1
   17cf4:	4978      	ldr	r1, [pc, #480]	; (17ed8 <Transform+0x688>)
   17cf6:	eb05 4333 	add.w	r3, r5, r3, ror #16
   17cfa:	405f      	eors	r7, r3
   17cfc:	ea85 0403 	eor.w	r4, r5, r3
   17d00:	4401      	add	r1, r0
   17d02:	9803      	ldr	r0, [sp, #12]
   17d04:	440a      	add	r2, r1
   17d06:	4417      	add	r7, r2
   17d08:	4a74      	ldr	r2, [pc, #464]	; (17edc <Transform+0x68c>)
   17d0a:	eb03 2777 	add.w	r7, r3, r7, ror #9
   17d0e:	990a      	ldr	r1, [sp, #40]	; 0x28
   17d10:	407c      	eors	r4, r7
   17d12:	440a      	add	r2, r1
   17d14:	ea83 0107 	eor.w	r1, r3, r7
   17d18:	4493      	add	fp, r2
   17d1a:	4a71      	ldr	r2, [pc, #452]	; (17ee0 <Transform+0x690>)
   17d1c:	445c      	add	r4, fp
   17d1e:	eb07 7434 	add.w	r4, r7, r4, ror #28
   17d22:	4061      	eors	r1, r4
   17d24:	4442      	add	r2, r8
   17d26:	442a      	add	r2, r5
   17d28:	ea87 0504 	eor.w	r5, r7, r4
   17d2c:	4411      	add	r1, r2
   17d2e:	4a6d      	ldr	r2, [pc, #436]	; (17ee4 <Transform+0x694>)
   17d30:	eb04 5171 	add.w	r1, r4, r1, ror #21
   17d34:	404d      	eors	r5, r1
   17d36:	4472      	add	r2, lr
   17d38:	4413      	add	r3, r2
   17d3a:	ea84 0201 	eor.w	r2, r4, r1
   17d3e:	441d      	add	r5, r3
   17d40:	4b69      	ldr	r3, [pc, #420]	; (17ee8 <Transform+0x698>)
   17d42:	eb01 4535 	add.w	r5, r1, r5, ror #16
   17d46:	406a      	eors	r2, r5
   17d48:	4403      	add	r3, r0
   17d4a:	9801      	ldr	r0, [sp, #4]
   17d4c:	443b      	add	r3, r7
   17d4e:	4f67      	ldr	r7, [pc, #412]	; (17eec <Transform+0x69c>)
   17d50:	441a      	add	r2, r3
   17d52:	eb05 2272 	add.w	r2, r5, r2, ror #9
   17d56:	ea62 0301 	orn	r3, r2, r1
   17d5a:	406b      	eors	r3, r5
   17d5c:	4407      	add	r7, r0
   17d5e:	9808      	ldr	r0, [sp, #32]
   17d60:	4427      	add	r7, r4
   17d62:	4c63      	ldr	r4, [pc, #396]	; (17ef0 <Transform+0x6a0>)
   17d64:	443b      	add	r3, r7
   17d66:	eb02 63b3 	add.w	r3, r2, r3, ror #26
   17d6a:	ea63 0b05 	orn	fp, r3, r5
   17d6e:	ea8b 0b02 	eor.w	fp, fp, r2
   17d72:	4404      	add	r4, r0
   17d74:	9806      	ldr	r0, [sp, #24]
   17d76:	440c      	add	r4, r1
   17d78:	495e      	ldr	r1, [pc, #376]	; (17ef4 <Transform+0x6a4>)
   17d7a:	44a3      	add	fp, r4
   17d7c:	eb03 5bbb 	add.w	fp, r3, fp, ror #22
   17d80:	ea6b 0702 	orn	r7, fp, r2
   17d84:	405f      	eors	r7, r3
   17d86:	4449      	add	r1, r9
   17d88:	4429      	add	r1, r5
   17d8a:	440f      	add	r7, r1
   17d8c:	495a      	ldr	r1, [pc, #360]	; (17ef8 <Transform+0x6a8>)
   17d8e:	eb0b 4777 	add.w	r7, fp, r7, ror #17
   17d92:	ea67 0403 	orn	r4, r7, r3
   17d96:	443e      	add	r6, r7
   17d98:	ea84 040b 	eor.w	r4, r4, fp
   17d9c:	4401      	add	r1, r0
   17d9e:	9809      	ldr	r0, [sp, #36]	; 0x24
   17da0:	4411      	add	r1, r2
   17da2:	4a56      	ldr	r2, [pc, #344]	; (17efc <Transform+0x6ac>)
   17da4:	440c      	add	r4, r1
   17da6:	eb07 24f4 	add.w	r4, r7, r4, ror #11
   17daa:	9902      	ldr	r1, [sp, #8]
   17dac:	ea64 050b 	orn	r5, r4, fp
   17db0:	407d      	eors	r5, r7
   17db2:	4442      	add	r2, r8
   17db4:	4413      	add	r3, r2
   17db6:	9a04      	ldr	r2, [sp, #16]
   17db8:	441d      	add	r5, r3
   17dba:	4b51      	ldr	r3, [pc, #324]	; (17f00 <Transform+0x6b0>)
   17dbc:	eb04 65b5 	add.w	r5, r4, r5, ror #26
   17dc0:	ea65 0807 	orn	r8, r5, r7
   17dc4:	ea88 0804 	eor.w	r8, r8, r4
   17dc8:	4413      	add	r3, r2
   17dca:	4a4e      	ldr	r2, [pc, #312]	; (17f04 <Transform+0x6b4>)
   17dcc:	449b      	add	fp, r3
   17dce:	44d8      	add	r8, fp
   17dd0:	eb05 58b8 	add.w	r8, r5, r8, ror #22
   17dd4:	ea68 0304 	orn	r3, r8, r4
   17dd8:	440a      	add	r2, r1
   17dda:	406b      	eors	r3, r5
   17ddc:	4414      	add	r4, r2
   17dde:	4a4a      	ldr	r2, [pc, #296]	; (17f08 <Transform+0x6b8>)
   17de0:	441e      	add	r6, r3
   17de2:	eb08 4376 	add.w	r3, r8, r6, ror #17
   17de6:	ea63 0905 	orn	r9, r3, r5
   17dea:	ea89 0908 	eor.w	r9, r9, r8
   17dee:	4402      	add	r2, r0
   17df0:	9807      	ldr	r0, [sp, #28]
   17df2:	44a1      	add	r9, r4
   17df4:	4415      	add	r5, r2
   17df6:	eb03 29f9 	add.w	r9, r3, r9, ror #11
   17dfa:	4a44      	ldr	r2, [pc, #272]	; (17f0c <Transform+0x6bc>)
   17dfc:	ea69 0108 	orn	r1, r9, r8
   17e00:	4059      	eors	r1, r3
   17e02:	4429      	add	r1, r5
   17e04:	eb09 61b1 	add.w	r1, r9, r1, ror #26
   17e08:	4472      	add	r2, lr
   17e0a:	4490      	add	r8, r2
   17e0c:	4a40      	ldr	r2, [pc, #256]	; (17f10 <Transform+0x6c0>)
   17e0e:	ea61 0403 	orn	r4, r1, r3
   17e12:	ea84 0409 	eor.w	r4, r4, r9
   17e16:	4444      	add	r4, r8
   17e18:	eb01 54b4 	add.w	r4, r1, r4, ror #22
   17e1c:	4402      	add	r2, r0
   17e1e:	2000      	movs	r0, #0
   17e20:	ea64 0509 	orn	r5, r4, r9
   17e24:	4413      	add	r3, r2
   17e26:	9a05      	ldr	r2, [sp, #20]
   17e28:	404d      	eors	r5, r1
   17e2a:	441d      	add	r5, r3
   17e2c:	4b39      	ldr	r3, [pc, #228]	; (17f14 <Transform+0x6c4>)
   17e2e:	eb04 4575 	add.w	r5, r4, r5, ror #17
   17e32:	ea65 0601 	orn	r6, r5, r1
   17e36:	4066      	eors	r6, r4
   17e38:	4463      	add	r3, ip
   17e3a:	4499      	add	r9, r3
   17e3c:	4b36      	ldr	r3, [pc, #216]	; (17f18 <Transform+0x6c8>)
   17e3e:	444e      	add	r6, r9
   17e40:	eb05 26f6 	add.w	r6, r5, r6, ror #11
   17e44:	ea66 0704 	orn	r7, r6, r4
   17e48:	4413      	add	r3, r2
   17e4a:	406f      	eors	r7, r5
   17e4c:	4a33      	ldr	r2, [pc, #204]	; (17f1c <Transform+0x6cc>)
   17e4e:	4419      	add	r1, r3
   17e50:	440f      	add	r7, r1
   17e52:	990b      	ldr	r1, [sp, #44]	; 0x2c
   17e54:	eb06 67b7 	add.w	r7, r6, r7, ror #26
   17e58:	ea67 0305 	orn	r3, r7, r5
   17e5c:	4073      	eors	r3, r6
   17e5e:	440a      	add	r2, r1
   17e60:	4414      	add	r4, r2
   17e62:	9a03      	ldr	r2, [sp, #12]
   17e64:	441c      	add	r4, r3
   17e66:	4b2e      	ldr	r3, [pc, #184]	; (17f20 <Transform+0x6d0>)
   17e68:	eb07 54b4 	add.w	r4, r7, r4, ror #22
   17e6c:	ea64 0106 	orn	r1, r4, r6
   17e70:	4079      	eors	r1, r7
   17e72:	4413      	add	r3, r2
   17e74:	9a00      	ldr	r2, [sp, #0]
   17e76:	441d      	add	r5, r3
   17e78:	9b00      	ldr	r3, [sp, #0]
   17e7a:	440d      	add	r5, r1
   17e7c:	eb04 4575 	add.w	r5, r4, r5, ror #17
   17e80:	6cdb      	ldr	r3, [r3, #76]	; 0x4c
   17e82:	443b      	add	r3, r7
   17e84:	ea65 0707 	orn	r7, r5, r7
   17e88:	4067      	eors	r7, r4
   17e8a:	64d3      	str	r3, [r2, #76]	; 0x4c
   17e8c:	4b25      	ldr	r3, [pc, #148]	; (17f24 <Transform+0x6d4>)
   17e8e:	9a0a      	ldr	r2, [sp, #40]	; 0x28
   17e90:	4413      	add	r3, r2
   17e92:	441e      	add	r6, r3
   17e94:	9b00      	ldr	r3, [sp, #0]
   17e96:	4437      	add	r7, r6
   17e98:	eb0a 0605 	add.w	r6, sl, r5
   17e9c:	eb06 26f7 	add.w	r6, r6, r7, ror #11
   17ea0:	651e      	str	r6, [r3, #80]	; 0x50
   17ea2:	6d5b      	ldr	r3, [r3, #84]	; 0x54
   17ea4:	441d      	add	r5, r3
   17ea6:	9b00      	ldr	r3, [sp, #0]
   17ea8:	655d      	str	r5, [r3, #84]	; 0x54
   17eaa:	6d9b      	ldr	r3, [r3, #88]	; 0x58
   17eac:	441c      	add	r4, r3
   17eae:	9b00      	ldr	r3, [sp, #0]
   17eb0:	659c      	str	r4, [r3, #88]	; 0x58
   17eb2:	b00d      	add	sp, #52	; 0x34
   17eb4:	e8bd 8ff0 	ldmia.w	sp!, {r4, r5, r6, r7, r8, r9, sl, fp, pc}
   17eb8:	fde5380c 	.word	0xfde5380c
   17ebc:	a4beea44 	.word	0xa4beea44
   17ec0:	4bdecfa9 	.word	0x4bdecfa9
   17ec4:	f6bb4b60 	.word	0xf6bb4b60
   17ec8:	bebfbc70 	.word	0xbebfbc70
   17ecc:	289b7ec6 	.word	0x289b7ec6
   17ed0:	eaa127fa 	.word	0xeaa127fa
   17ed4:	d4ef3085 	.word	0xd4ef3085
   17ed8:	04881d05 	.word	0x04881d05
   17edc:	d9d4d039 	.word	0xd9d4d039
   17ee0:	e6db99e5 	.word	0xe6db99e5
   17ee4:	1fa27cf8 	.word	0x1fa27cf8
   17ee8:	c4ac5665 	.word	0xc4ac5665
   17eec:	f4292244 	.word	0xf4292244
   17ef0:	432aff97 	.word	0x432aff97
   17ef4:	ab9423a7 	.word	0xab9423a7
   17ef8:	fc93a039 	.word	0xfc93a039
   17efc:	655b59c3 	.word	0x655b59c3
   17f00:	8f0ccc92 	.word	0x8f0ccc92
   17f04:	85845dd1 	.word	0x85845dd1
   17f08:	6fa87e4f 	.word	0x6fa87e4f
   17f0c:	fe2ce6e0 	.word	0xfe2ce6e0
   17f10:	a3014314 	.word	0xa3014314
   17f14:	4e0811a1 	.word	0x4e0811a1
   17f18:	f7537e82 	.word	0xf7537e82
   17f1c:	bd3af235 	.word	0xbd3af235
   17f20:	2ad7d2bb 	.word	0x2ad7d2bb
   17f24:	eb86d391 	.word	0xeb86d391

00017f28 <wc_InitMd5_ex>:
   17f28:	b1a8      	cbz	r0, 17f56 <wc_InitMd5_ex+0x2e>
   17f2a:	4b0c      	ldr	r3, [pc, #48]	; (17f5c <wc_InitMd5_ex+0x34>)
   17f2c:	64c3      	str	r3, [r0, #76]	; 0x4c
   17f2e:	f103 3388 	add.w	r3, r3, #2290649224	; 0x88888888
   17f32:	65c1      	str	r1, [r0, #92]	; 0x5c
   17f34:	6503      	str	r3, [r0, #80]	; 0x50
   17f36:	f103 4329 	add.w	r3, r3, #2835349504	; 0xa9000000
   17f3a:	f5a3 1396 	sub.w	r3, r3, #1228800	; 0x12c000
   17f3e:	f6a3 638b 	subw	r3, r3, #3723	; 0xe8b
   17f42:	6543      	str	r3, [r0, #84]	; 0x54
   17f44:	f1a3 3388 	sub.w	r3, r3, #2290649224	; 0x88888888
   17f48:	6583      	str	r3, [r0, #88]	; 0x58
   17f4a:	2300      	movs	r3, #0
   17f4c:	e9c0 3300 	strd	r3, r3, [r0]
   17f50:	6083      	str	r3, [r0, #8]
   17f52:	4618      	mov	r0, r3
   17f54:	4770      	bx	lr
   17f56:	f06f 00ac 	mvn.w	r0, #172	; 0xac
   17f5a:	4770      	bx	lr
   17f5c:	67452301 	.word	0x67452301

00017f60 <wc_Md5Update>:
   17f60:	e92d 47f0 	stmdb	sp!, {r4, r5, r6, r7, r8, r9, sl, lr}
   17f64:	460f      	mov	r7, r1
   17f66:	4614      	mov	r4, r2
   17f68:	4605      	mov	r5, r0
   17f6a:	2800      	cmp	r0, #0
   17f6c:	d050      	beq.n	18010 <wc_Md5Update+0xb0>
   17f6e:	b909      	cbnz	r1, 17f74 <wc_Md5Update+0x14>
   17f70:	2a00      	cmp	r2, #0
   17f72:	d14d      	bne.n	18010 <wc_Md5Update+0xb0>
   17f74:	6828      	ldr	r0, [r5, #0]
   17f76:	283f      	cmp	r0, #63	; 0x3f
   17f78:	d84d      	bhi.n	18016 <wc_Md5Update+0xb6>
   17f7a:	b90f      	cbnz	r7, 17f80 <wc_Md5Update+0x20>
   17f7c:	2c00      	cmp	r4, #0
   17f7e:	d04d      	beq.n	1801c <wc_Md5Update+0xbc>
   17f80:	686b      	ldr	r3, [r5, #4]
   17f82:	f105 080c 	add.w	r8, r5, #12
   17f86:	18e3      	adds	r3, r4, r3
   17f88:	606b      	str	r3, [r5, #4]
   17f8a:	bf22      	ittt	cs
   17f8c:	68ab      	ldrcs	r3, [r5, #8]
   17f8e:	3301      	addcs	r3, #1
   17f90:	60ab      	strcs	r3, [r5, #8]
   17f92:	b1b8      	cbz	r0, 17fc4 <wc_Md5Update+0x64>
   17f94:	f1c0 0640 	rsb	r6, r0, #64	; 0x40
   17f98:	4639      	mov	r1, r7
   17f9a:	42a6      	cmp	r6, r4
   17f9c:	4440      	add	r0, r8
   17f9e:	bf28      	it	cs
   17fa0:	4626      	movcs	r6, r4
   17fa2:	4632      	mov	r2, r6
   17fa4:	4437      	add	r7, r6
   17fa6:	f7f8 ea42 	blx	1042c <memcpy@plt>
   17faa:	682b      	ldr	r3, [r5, #0]
   17fac:	1ba4      	subs	r4, r4, r6
   17fae:	4433      	add	r3, r6
   17fb0:	2b40      	cmp	r3, #64	; 0x40
   17fb2:	602b      	str	r3, [r5, #0]
   17fb4:	d106      	bne.n	17fc4 <wc_Md5Update+0x64>
   17fb6:	4641      	mov	r1, r8
   17fb8:	4628      	mov	r0, r5
   17fba:	f7ff fc49 	bl	17850 <Transform>
   17fbe:	4606      	mov	r6, r0
   17fc0:	b9b8      	cbnz	r0, 17ff2 <wc_Md5Update+0x92>
   17fc2:	6028      	str	r0, [r5, #0]
   17fc4:	46a1      	mov	r9, r4
   17fc6:	2600      	movs	r6, #0
   17fc8:	eb07 0a04 	add.w	sl, r7, r4
   17fcc:	f1b9 0f3f 	cmp.w	r9, #63	; 0x3f
   17fd0:	ebaa 0109 	sub.w	r1, sl, r9
   17fd4:	d810      	bhi.n	17ff8 <wc_Md5Update+0x98>
   17fd6:	09a2      	lsrs	r2, r4, #6
   17fd8:	f06f 033f 	mvn.w	r3, #63	; 0x3f
   17fdc:	f024 013f 	bic.w	r1, r4, #63	; 0x3f
   17fe0:	4439      	add	r1, r7
   17fe2:	fb03 4402 	mla	r4, r3, r2, r4
   17fe6:	b124      	cbz	r4, 17ff2 <wc_Md5Update+0x92>
   17fe8:	4622      	mov	r2, r4
   17fea:	4640      	mov	r0, r8
   17fec:	f7f8 ea1e 	blx	1042c <memcpy@plt>
   17ff0:	602c      	str	r4, [r5, #0]
   17ff2:	4630      	mov	r0, r6
   17ff4:	e8bd 87f0 	ldmia.w	sp!, {r4, r5, r6, r7, r8, r9, sl, pc}
   17ff8:	2240      	movs	r2, #64	; 0x40
   17ffa:	4640      	mov	r0, r8
   17ffc:	f7f8 ea16 	blx	1042c <memcpy@plt>
   18000:	4641      	mov	r1, r8
   18002:	4628      	mov	r0, r5
   18004:	f7ff fc24 	bl	17850 <Transform>
   18008:	f1a9 0940 	sub.w	r9, r9, #64	; 0x40
   1800c:	4606      	mov	r6, r0
   1800e:	e7dd      	b.n	17fcc <wc_Md5Update+0x6c>
   18010:	f06f 06ac 	mvn.w	r6, #172	; 0xac
   18014:	e7ed      	b.n	17ff2 <wc_Md5Update+0x92>
   18016:	f06f 0683 	mvn.w	r6, #131	; 0x83
   1801a:	e7ea      	b.n	17ff2 <wc_Md5Update+0x92>
   1801c:	4626      	mov	r6, r4
   1801e:	e7e8      	b.n	17ff2 <wc_Md5Update+0x92>

00018020 <wc_Md5Final>:
   18020:	b570      	push	{r4, r5, r6, lr}
   18022:	460e      	mov	r6, r1
   18024:	4604      	mov	r4, r0
   18026:	2800      	cmp	r0, #0
   18028:	d054      	beq.n	180d4 <wc_Md5Final+0xb4>
   1802a:	2900      	cmp	r1, #0
   1802c:	d052      	beq.n	180d4 <wc_Md5Final+0xb4>
   1802e:	4605      	mov	r5, r0
   18030:	f855 3b0c 	ldr.w	r3, [r5], #12
   18034:	1c5a      	adds	r2, r3, #1
   18036:	6002      	str	r2, [r0, #0]
   18038:	2280      	movs	r2, #128	; 0x80
   1803a:	54ea      	strb	r2, [r5, r3]
   1803c:	6800      	ldr	r0, [r0, #0]
   1803e:	2838      	cmp	r0, #56	; 0x38
   18040:	d90d      	bls.n	1805e <wc_Md5Final+0x3e>
   18042:	f1c0 0240 	rsb	r2, r0, #64	; 0x40
   18046:	2100      	movs	r1, #0
   18048:	4428      	add	r0, r5
   1804a:	f7f8 ea0e 	blx	10468 <memset@plt>
   1804e:	2340      	movs	r3, #64	; 0x40
   18050:	4629      	mov	r1, r5
   18052:	4620      	mov	r0, r4
   18054:	6023      	str	r3, [r4, #0]
   18056:	f7ff fbfb 	bl	17850 <Transform>
   1805a:	2300      	movs	r3, #0
   1805c:	6023      	str	r3, [r4, #0]
   1805e:	6820      	ldr	r0, [r4, #0]
   18060:	2100      	movs	r1, #0
   18062:	f1c0 0238 	rsb	r2, r0, #56	; 0x38
   18066:	4428      	add	r0, r5
   18068:	f7f8 e9fe 	blx	10468 <memset@plt>
   1806c:	e9d4 3101 	ldrd	r3, r1, [r4, #4]
   18070:	f104 0044 	add.w	r0, r4, #68	; 0x44
   18074:	0f5a      	lsrs	r2, r3, #29
   18076:	00db      	lsls	r3, r3, #3
   18078:	eb02 02c1 	add.w	r2, r2, r1, lsl #3
   1807c:	4621      	mov	r1, r4
   1807e:	60a2      	str	r2, [r4, #8]
   18080:	2204      	movs	r2, #4
   18082:	f841 3f04 	str.w	r3, [r1, #4]!
   18086:	f7f8 e9d2 	blx	1042c <memcpy@plt>
   1808a:	2204      	movs	r2, #4
   1808c:	f104 0108 	add.w	r1, r4, #8
   18090:	f104 0048 	add.w	r0, r4, #72	; 0x48
   18094:	f7f8 e9ca 	blx	1042c <memcpy@plt>
   18098:	4629      	mov	r1, r5
   1809a:	4620      	mov	r0, r4
   1809c:	f7ff fbd8 	bl	17850 <Transform>
   180a0:	2210      	movs	r2, #16
   180a2:	f104 014c 	add.w	r1, r4, #76	; 0x4c
   180a6:	4630      	mov	r0, r6
   180a8:	f7f8 e9c0 	blx	1042c <memcpy@plt>
   180ac:	4b0b      	ldr	r3, [pc, #44]	; (180dc <wc_Md5Final+0xbc>)
   180ae:	2000      	movs	r0, #0
   180b0:	e9c4 0000 	strd	r0, r0, [r4]
   180b4:	60a0      	str	r0, [r4, #8]
   180b6:	64e3      	str	r3, [r4, #76]	; 0x4c
   180b8:	f103 3388 	add.w	r3, r3, #2290649224	; 0x88888888
   180bc:	6523      	str	r3, [r4, #80]	; 0x50
   180be:	f103 4329 	add.w	r3, r3, #2835349504	; 0xa9000000
   180c2:	f5a3 1396 	sub.w	r3, r3, #1228800	; 0x12c000
   180c6:	f6a3 638b 	subw	r3, r3, #3723	; 0xe8b
   180ca:	6563      	str	r3, [r4, #84]	; 0x54
   180cc:	f1a3 3388 	sub.w	r3, r3, #2290649224	; 0x88888888
   180d0:	65a3      	str	r3, [r4, #88]	; 0x58
   180d2:	bd70      	pop	{r4, r5, r6, pc}
   180d4:	f06f 00ac 	mvn.w	r0, #172	; 0xac
   180d8:	e7fb      	b.n	180d2 <wc_Md5Final+0xb2>
   180da:	bf00      	nop
   180dc:	67452301 	.word	0x67452301

000180e0 <wc_InitMd5>:
   180e0:	b120      	cbz	r0, 180ec <wc_InitMd5+0xc>
   180e2:	f06f 0201 	mvn.w	r2, #1
   180e6:	2100      	movs	r1, #0
   180e8:	f7ff bf1e 	b.w	17f28 <wc_InitMd5_ex>
   180ec:	f06f 00ac 	mvn.w	r0, #172	; 0xac
   180f0:	4770      	bx	lr

000180f2 <wc_Md5Free>:
   180f2:	4770      	bx	lr

000180f4 <ForceZero>:
   180f4:	4401      	add	r1, r0
   180f6:	2300      	movs	r3, #0
   180f8:	4288      	cmp	r0, r1
   180fa:	d100      	bne.n	180fe <ForceZero+0xa>
   180fc:	4770      	bx	lr
   180fe:	f800 3b01 	strb.w	r3, [r0], #1
   18102:	e7f9      	b.n	180f8 <ForceZero+0x4>

00018104 <sp_2048_from_bin>:
   18104:	f103 3cff 	add.w	ip, r3, #4294967295
   18108:	b5f0      	push	{r4, r5, r6, r7, lr}
   1810a:	18d7      	adds	r7, r2, r3
   1810c:	4666      	mov	r6, ip
   1810e:	2400      	movs	r4, #0
   18110:	2e02      	cmp	r6, #2
   18112:	dc18      	bgt.n	18146 <sp_2048_from_bin+0x42>
   18114:	2e00      	cmp	r6, #0
   18116:	db12      	blt.n	1813e <sp_2048_from_bin+0x3a>
   18118:	2500      	movs	r5, #0
   1811a:	2e01      	cmp	r6, #1
   1811c:	f840 5024 	str.w	r5, [r0, r4, lsl #2]
   18120:	d005      	beq.n	1812e <sp_2048_from_bin+0x2a>
   18122:	2e02      	cmp	r6, #2
   18124:	d107      	bne.n	18136 <sp_2048_from_bin+0x32>
   18126:	7896      	ldrb	r6, [r2, #2]
   18128:	18c5      	adds	r5, r0, r3
   1812a:	f805 6c03 	strb.w	r6, [r5, #-3]
   1812e:	7855      	ldrb	r5, [r2, #1]
   18130:	4403      	add	r3, r0
   18132:	f803 5c02 	strb.w	r5, [r3, #-2]
   18136:	7813      	ldrb	r3, [r2, #0]
   18138:	3401      	adds	r4, #1
   1813a:	f800 300c 	strb.w	r3, [r0, ip]
   1813e:	2300      	movs	r3, #0
   18140:	428c      	cmp	r4, r1
   18142:	db14      	blt.n	1816e <sp_2048_from_bin+0x6a>
   18144:	bdf0      	pop	{r4, r5, r6, r7, pc}
   18146:	f817 5c03 	ldrb.w	r5, [r7, #-3]
   1814a:	3e04      	subs	r6, #4
   1814c:	f817 ec02 	ldrb.w	lr, [r7, #-2]
   18150:	042d      	lsls	r5, r5, #16
   18152:	ea45 250e 	orr.w	r5, r5, lr, lsl #8
   18156:	f817 ec01 	ldrb.w	lr, [r7, #-1]
   1815a:	ea45 050e 	orr.w	r5, r5, lr
   1815e:	f817 ed04 	ldrb.w	lr, [r7, #-4]!
   18162:	ea45 650e 	orr.w	r5, r5, lr, lsl #24
   18166:	f840 5024 	str.w	r5, [r0, r4, lsl #2]
   1816a:	3401      	adds	r4, #1
   1816c:	e7d0      	b.n	18110 <sp_2048_from_bin+0xc>
   1816e:	f840 3024 	str.w	r3, [r0, r4, lsl #2]
   18172:	3401      	adds	r4, #1
   18174:	e7e4      	b.n	18140 <sp_2048_from_bin+0x3c>

00018176 <sp_2048_to_bin_64>:
   18176:	f500 7380 	add.w	r3, r0, #256	; 0x100
   1817a:	f853 2d04 	ldr.w	r2, [r3, #-4]!
   1817e:	3104      	adds	r1, #4
   18180:	0e12      	lsrs	r2, r2, #24
   18182:	4283      	cmp	r3, r0
   18184:	f801 2c04 	strb.w	r2, [r1, #-4]
   18188:	885a      	ldrh	r2, [r3, #2]
   1818a:	f801 2c03 	strb.w	r2, [r1, #-3]
   1818e:	681a      	ldr	r2, [r3, #0]
   18190:	ea4f 2212 	mov.w	r2, r2, lsr #8
   18194:	f801 2c02 	strb.w	r2, [r1, #-2]
   18198:	681a      	ldr	r2, [r3, #0]
   1819a:	f801 2c01 	strb.w	r2, [r1, #-1]
   1819e:	d1ec      	bne.n	1817a <sp_2048_to_bin_64+0x4>
   181a0:	4770      	bx	lr

000181a2 <sp_2048_add_64>:
   181a2:	e92d 4170 	stmdb	sp!, {r4, r5, r6, r8, lr}
   181a6:	2300      	movs	r3, #0
   181a8:	460e      	mov	r6, r1
   181aa:	f04f 0800 	mov.w	r8, #0
   181ae:	f506 7680 	add.w	r6, r6, #256	; 0x100
   181b2:	f1a8 0801 	sub.w	r8, r8, #1
   181b6:	eb13 0308 	adds.w	r3, r3, r8
   181ba:	680c      	ldr	r4, [r1, #0]
   181bc:	6815      	ldr	r5, [r2, #0]
   181be:	416c      	adcs	r4, r5
   181c0:	6004      	str	r4, [r0, #0]
   181c2:	f04f 0300 	mov.w	r3, #0
   181c6:	eb43 0303 	adc.w	r3, r3, r3
   181ca:	f101 0104 	add.w	r1, r1, #4
   181ce:	f102 0204 	add.w	r2, r2, #4
   181d2:	f100 0004 	add.w	r0, r0, #4
   181d6:	42b1      	cmp	r1, r6
   181d8:	d1ed      	bne.n	181b6 <sp_2048_add_64+0x14>
   181da:	4618      	mov	r0, r3
   181dc:	e8bd 8170 	ldmia.w	sp!, {r4, r5, r6, r8, pc}

000181e0 <sp_2048_sub_in_place_64>:
   181e0:	e92d 4170 	stmdb	sp!, {r4, r5, r6, r8, lr}
   181e4:	2200      	movs	r2, #0
   181e6:	4680      	mov	r8, r0
   181e8:	f508 7880 	add.w	r8, r8, #256	; 0x100
   181ec:	f04f 0500 	mov.w	r5, #0
   181f0:	1aad      	subs	r5, r5, r2
   181f2:	6803      	ldr	r3, [r0, #0]
   181f4:	6844      	ldr	r4, [r0, #4]
   181f6:	680d      	ldr	r5, [r1, #0]
   181f8:	684e      	ldr	r6, [r1, #4]
   181fa:	41ab      	sbcs	r3, r5
   181fc:	41b4      	sbcs	r4, r6
   181fe:	6003      	str	r3, [r0, #0]
   18200:	6044      	str	r4, [r0, #4]
   18202:	eb62 0202 	sbc.w	r2, r2, r2
   18206:	f100 0008 	add.w	r0, r0, #8
   1820a:	f101 0108 	add.w	r1, r1, #8
   1820e:	4540      	cmp	r0, r8
   18210:	d1ec      	bne.n	181ec <sp_2048_sub_in_place_64+0xc>
   18212:	4610      	mov	r0, r2
   18214:	e8bd 8170 	ldmia.w	sp!, {r4, r5, r6, r8, pc}

00018218 <sp_2048_sqr_64>:
   18218:	e92d 4f70 	stmdb	sp!, {r4, r5, r6, r8, r9, sl, fp, lr}
   1821c:	f04f 0300 	mov.w	r3, #0
   18220:	f04f 0400 	mov.w	r4, #0
   18224:	f04f 0500 	mov.w	r5, #0
   18228:	4699      	mov	r9, r3
   1822a:	4684      	mov	ip, r0
   1822c:	f04f 0602 	mov.w	r6, #2
   18230:	ea4f 2606 	mov.w	r6, r6, lsl #8
   18234:	f1c6 0600 	rsb	r6, r6, #0
   18238:	44b5      	add	sp, r6
   1823a:	46eb      	mov	fp, sp
   1823c:	468a      	mov	sl, r1
   1823e:	f04f 0000 	mov.w	r0, #0
   18242:	f04f 06fc 	mov.w	r6, #252	; 0xfc
   18246:	4649      	mov	r1, r9
   18248:	1b89      	subs	r1, r1, r6
   1824a:	eb66 0606 	sbc.w	r6, r6, r6
   1824e:	ea6f 0606 	mvn.w	r6, r6
   18252:	ea01 0106 	and.w	r1, r1, r6
   18256:	464a      	mov	r2, r9
   18258:	eba2 0201 	sub.w	r2, r2, r1
   1825c:	4451      	add	r1, sl
   1825e:	4452      	add	r2, sl
   18260:	428a      	cmp	r2, r1
   18262:	d00f      	beq.n	18284 <sp_2048_sqr_64+0x6c>
   18264:	680e      	ldr	r6, [r1, #0]
   18266:	f8d2 8000 	ldr.w	r8, [r2]
   1826a:	fba6 6808 	umull	r6, r8, r6, r8
   1826e:	199b      	adds	r3, r3, r6
   18270:	eb54 0408 	adcs.w	r4, r4, r8
   18274:	eb45 0500 	adc.w	r5, r5, r0
   18278:	199b      	adds	r3, r3, r6
   1827a:	eb54 0408 	adcs.w	r4, r4, r8
   1827e:	eb45 0500 	adc.w	r5, r5, r0
   18282:	e007      	b.n	18294 <sp_2048_sqr_64+0x7c>
   18284:	680e      	ldr	r6, [r1, #0]
   18286:	fba6 6806 	umull	r6, r8, r6, r6
   1828a:	199b      	adds	r3, r3, r6
   1828c:	eb54 0408 	adcs.w	r4, r4, r8
   18290:	eb45 0500 	adc.w	r5, r5, r0
   18294:	f101 0104 	add.w	r1, r1, #4
   18298:	f1a2 0204 	sub.w	r2, r2, #4
   1829c:	f04f 0601 	mov.w	r6, #1
   182a0:	ea4f 2606 	mov.w	r6, r6, lsl #8
   182a4:	4456      	add	r6, sl
   182a6:	42b1      	cmp	r1, r6
   182a8:	d005      	beq.n	182b6 <sp_2048_sqr_64+0x9e>
   182aa:	4291      	cmp	r1, r2
   182ac:	dc03      	bgt.n	182b6 <sp_2048_sqr_64+0x9e>
   182ae:	46c8      	mov	r8, r9
   182b0:	44d0      	add	r8, sl
   182b2:	4541      	cmp	r1, r8
   182b4:	ddd4      	ble.n	18260 <sp_2048_sqr_64+0x48>
   182b6:	4658      	mov	r0, fp
   182b8:	46c8      	mov	r8, r9
   182ba:	f840 3008 	str.w	r3, [r0, r8]
   182be:	4623      	mov	r3, r4
   182c0:	462c      	mov	r4, r5
   182c2:	f04f 0500 	mov.w	r5, #0
   182c6:	f108 0804 	add.w	r8, r8, #4
   182ca:	46c1      	mov	r9, r8
   182cc:	f04f 0601 	mov.w	r6, #1
   182d0:	ea4f 2606 	mov.w	r6, r6, lsl #8
   182d4:	f106 06f8 	add.w	r6, r6, #248	; 0xf8
   182d8:	45b0      	cmp	r8, r6
   182da:	ddb0      	ble.n	1823e <sp_2048_sqr_64+0x26>
   182dc:	4651      	mov	r1, sl
   182de:	f840 3008 	str.w	r3, [r0, r8]
   182e2:	4660      	mov	r0, ip
   182e4:	4659      	mov	r1, fp
   182e6:	f04f 0301 	mov.w	r3, #1
   182ea:	ea4f 2303 	mov.w	r3, r3, lsl #8
   182ee:	f103 03fc 	add.w	r3, r3, #252	; 0xfc
   182f2:	58ce      	ldr	r6, [r1, r3]
   182f4:	50c6      	str	r6, [r0, r3]
   182f6:	3b04      	subs	r3, #4
   182f8:	dafb      	bge.n	182f2 <sp_2048_sqr_64+0xda>
   182fa:	f04f 0602 	mov.w	r6, #2
   182fe:	ea4f 2606 	mov.w	r6, r6, lsl #8
   18302:	44b5      	add	sp, r6
   18304:	e8bd 8f70 	ldmia.w	sp!, {r4, r5, r6, r8, r9, sl, fp, pc}

00018308 <sp_2048_add_32>:
   18308:	e92d 4170 	stmdb	sp!, {r4, r5, r6, r8, lr}
   1830c:	2300      	movs	r3, #0
   1830e:	460e      	mov	r6, r1
   18310:	f04f 0800 	mov.w	r8, #0
   18314:	f106 0680 	add.w	r6, r6, #128	; 0x80
   18318:	f1a8 0801 	sub.w	r8, r8, #1
   1831c:	eb13 0308 	adds.w	r3, r3, r8
   18320:	680c      	ldr	r4, [r1, #0]
   18322:	6815      	ldr	r5, [r2, #0]
   18324:	416c      	adcs	r4, r5
   18326:	6004      	str	r4, [r0, #0]
   18328:	f04f 0300 	mov.w	r3, #0
   1832c:	eb43 0303 	adc.w	r3, r3, r3
   18330:	f101 0104 	add.w	r1, r1, #4
   18334:	f102 0204 	add.w	r2, r2, #4
   18338:	f100 0004 	add.w	r0, r0, #4
   1833c:	42b1      	cmp	r1, r6
   1833e:	d1ed      	bne.n	1831c <sp_2048_add_32+0x14>
   18340:	4618      	mov	r0, r3
   18342:	e8bd 8170 	ldmia.w	sp!, {r4, r5, r6, r8, pc}

00018346 <sp_2048_sub_in_place_32>:
   18346:	e92d 4170 	stmdb	sp!, {r4, r5, r6, r8, lr}
   1834a:	2200      	movs	r2, #0
   1834c:	4680      	mov	r8, r0
   1834e:	f108 0880 	add.w	r8, r8, #128	; 0x80
   18352:	f04f 0500 	mov.w	r5, #0
   18356:	1aad      	subs	r5, r5, r2
   18358:	6803      	ldr	r3, [r0, #0]
   1835a:	6844      	ldr	r4, [r0, #4]
   1835c:	680d      	ldr	r5, [r1, #0]
   1835e:	684e      	ldr	r6, [r1, #4]
   18360:	41ab      	sbcs	r3, r5
   18362:	41b4      	sbcs	r4, r6
   18364:	6003      	str	r3, [r0, #0]
   18366:	6044      	str	r4, [r0, #4]
   18368:	eb62 0202 	sbc.w	r2, r2, r2
   1836c:	f100 0008 	add.w	r0, r0, #8
   18370:	f101 0108 	add.w	r1, r1, #8
   18374:	4540      	cmp	r0, r8
   18376:	d1ec      	bne.n	18352 <sp_2048_sub_in_place_32+0xc>
   18378:	4610      	mov	r0, r2
   1837a:	e8bd 8170 	ldmia.w	sp!, {r4, r5, r6, r8, pc}

0001837e <sp_2048_sqr_32>:
   1837e:	e92d 4f70 	stmdb	sp!, {r4, r5, r6, r8, r9, sl, fp, lr}
   18382:	f04f 0300 	mov.w	r3, #0
   18386:	f04f 0400 	mov.w	r4, #0
   1838a:	f04f 0500 	mov.w	r5, #0
   1838e:	4699      	mov	r9, r3
   18390:	4684      	mov	ip, r0
   18392:	f04f 0601 	mov.w	r6, #1
   18396:	ea4f 2606 	mov.w	r6, r6, lsl #8
   1839a:	f1c6 0600 	rsb	r6, r6, #0
   1839e:	44b5      	add	sp, r6
   183a0:	46eb      	mov	fp, sp
   183a2:	468a      	mov	sl, r1
   183a4:	f04f 0000 	mov.w	r0, #0
   183a8:	f04f 067c 	mov.w	r6, #124	; 0x7c
   183ac:	4649      	mov	r1, r9
   183ae:	1b89      	subs	r1, r1, r6
   183b0:	eb66 0606 	sbc.w	r6, r6, r6
   183b4:	ea6f 0606 	mvn.w	r6, r6
   183b8:	ea01 0106 	and.w	r1, r1, r6
   183bc:	464a      	mov	r2, r9
   183be:	eba2 0201 	sub.w	r2, r2, r1
   183c2:	4451      	add	r1, sl
   183c4:	4452      	add	r2, sl
   183c6:	428a      	cmp	r2, r1
   183c8:	d00f      	beq.n	183ea <sp_2048_sqr_32+0x6c>
   183ca:	680e      	ldr	r6, [r1, #0]
   183cc:	f8d2 8000 	ldr.w	r8, [r2]
   183d0:	fba6 6808 	umull	r6, r8, r6, r8
   183d4:	199b      	adds	r3, r3, r6
   183d6:	eb54 0408 	adcs.w	r4, r4, r8
   183da:	eb45 0500 	adc.w	r5, r5, r0
   183de:	199b      	adds	r3, r3, r6
   183e0:	eb54 0408 	adcs.w	r4, r4, r8
   183e4:	eb45 0500 	adc.w	r5, r5, r0
   183e8:	e007      	b.n	183fa <sp_2048_sqr_32+0x7c>
   183ea:	680e      	ldr	r6, [r1, #0]
   183ec:	fba6 6806 	umull	r6, r8, r6, r6
   183f0:	199b      	adds	r3, r3, r6
   183f2:	eb54 0408 	adcs.w	r4, r4, r8
   183f6:	eb45 0500 	adc.w	r5, r5, r0
   183fa:	f101 0104 	add.w	r1, r1, #4
   183fe:	f1a2 0204 	sub.w	r2, r2, #4
   18402:	f04f 0680 	mov.w	r6, #128	; 0x80
   18406:	4456      	add	r6, sl
   18408:	42b1      	cmp	r1, r6
   1840a:	d005      	beq.n	18418 <sp_2048_sqr_32+0x9a>
   1840c:	4291      	cmp	r1, r2
   1840e:	dc03      	bgt.n	18418 <sp_2048_sqr_32+0x9a>
   18410:	46c8      	mov	r8, r9
   18412:	44d0      	add	r8, sl
   18414:	4541      	cmp	r1, r8
   18416:	ddd6      	ble.n	183c6 <sp_2048_sqr_32+0x48>
   18418:	4658      	mov	r0, fp
   1841a:	46c8      	mov	r8, r9
   1841c:	f840 3008 	str.w	r3, [r0, r8]
   18420:	4623      	mov	r3, r4
   18422:	462c      	mov	r4, r5
   18424:	f04f 0500 	mov.w	r5, #0
   18428:	f108 0804 	add.w	r8, r8, #4
   1842c:	46c1      	mov	r9, r8
   1842e:	f04f 06f8 	mov.w	r6, #248	; 0xf8
   18432:	45b0      	cmp	r8, r6
   18434:	ddb6      	ble.n	183a4 <sp_2048_sqr_32+0x26>
   18436:	4651      	mov	r1, sl
   18438:	f840 3008 	str.w	r3, [r0, r8]
   1843c:	4660      	mov	r0, ip
   1843e:	4659      	mov	r1, fp
   18440:	f04f 03fc 	mov.w	r3, #252	; 0xfc
   18444:	58ce      	ldr	r6, [r1, r3]
   18446:	50c6      	str	r6, [r0, r3]
   18448:	3b04      	subs	r3, #4
   1844a:	dafb      	bge.n	18444 <sp_2048_sqr_32+0xc6>
   1844c:	f04f 0601 	mov.w	r6, #1
   18450:	ea4f 2606 	mov.w	r6, r6, lsl #8
   18454:	44b5      	add	sp, r6
   18456:	e8bd 8f70 	ldmia.w	sp!, {r4, r5, r6, r8, r9, sl, fp, pc}

0001845a <sp_2048_mul_d_64>:
   1845a:	e92d 4370 	stmdb	sp!, {r4, r5, r6, r8, r9, lr}
   1845e:	f501 7980 	add.w	r9, r1, #256	; 0x100
   18462:	f851 6b04 	ldr.w	r6, [r1], #4
   18466:	fba6 5302 	umull	r5, r3, r6, r2
   1846a:	f04f 0400 	mov.w	r4, #0
   1846e:	f840 5b04 	str.w	r5, [r0], #4
   18472:	f04f 0500 	mov.w	r5, #0
   18476:	f851 6b04 	ldr.w	r6, [r1], #4
   1847a:	fba6 6802 	umull	r6, r8, r6, r2
   1847e:	199b      	adds	r3, r3, r6
   18480:	eb54 0408 	adcs.w	r4, r4, r8
   18484:	f145 0500 	adc.w	r5, r5, #0
   18488:	f840 3b04 	str.w	r3, [r0], #4
   1848c:	4623      	mov	r3, r4
   1848e:	462c      	mov	r4, r5
   18490:	4549      	cmp	r1, r9
   18492:	dbee      	blt.n	18472 <sp_2048_mul_d_64+0x18>
   18494:	6003      	str	r3, [r0, #0]
   18496:	e8bd 8370 	ldmia.w	sp!, {r4, r5, r6, r8, r9, pc}

0001849a <sp_2048_mul_d_32>:
   1849a:	e92d 4370 	stmdb	sp!, {r4, r5, r6, r8, r9, lr}
   1849e:	f101 0980 	add.w	r9, r1, #128	; 0x80
   184a2:	f851 6b04 	ldr.w	r6, [r1], #4
   184a6:	fba6 5302 	umull	r5, r3, r6, r2
   184aa:	f04f 0400 	mov.w	r4, #0
   184ae:	f840 5b04 	str.w	r5, [r0], #4
   184b2:	f04f 0500 	mov.w	r5, #0
   184b6:	f851 6b04 	ldr.w	r6, [r1], #4
   184ba:	fba6 6802 	umull	r6, r8, r6, r2
   184be:	199b      	adds	r3, r3, r6
   184c0:	eb54 0408 	adcs.w	r4, r4, r8
   184c4:	f145 0500 	adc.w	r5, r5, #0
   184c8:	f840 3b04 	str.w	r3, [r0], #4
   184cc:	4623      	mov	r3, r4
   184ce:	462c      	mov	r4, r5
   184d0:	4549      	cmp	r1, r9
   184d2:	dbee      	blt.n	184b2 <sp_2048_mul_d_32+0x18>
   184d4:	6003      	str	r3, [r0, #0]
   184d6:	e8bd 8370 	ldmia.w	sp!, {r4, r5, r6, r8, r9, pc}

000184da <div_2048_word_32>:
   184da:	e92d 4170 	stmdb	sp!, {r4, r5, r6, r8, lr}
   184de:	2300      	movs	r3, #0
   184e0:	ea4f 4612 	mov.w	r6, r2, lsr #16
   184e4:	f106 0601 	add.w	r6, r6, #1
   184e8:	fbb0 f4f6 	udiv	r4, r0, r6
   184ec:	ea4f 4804 	mov.w	r8, r4, lsl #16
   184f0:	fba2 4508 	umull	r4, r5, r2, r8
   184f4:	1b09      	subs	r1, r1, r4
   184f6:	eb60 0005 	sbc.w	r0, r0, r5
   184fa:	fbb0 f5f6 	udiv	r5, r0, r6
   184fe:	ea4f 4405 	mov.w	r4, r5, lsl #16
   18502:	44a0      	add	r8, r4
   18504:	fba2 4504 	umull	r4, r5, r2, r4
   18508:	1b09      	subs	r1, r1, r4
   1850a:	eb60 0005 	sbc.w	r0, r0, r5
   1850e:	ea4f 4400 	mov.w	r4, r0, lsl #16
   18512:	ea44 4411 	orr.w	r4, r4, r1, lsr #16
   18516:	fbb4 f4f6 	udiv	r4, r4, r6
   1851a:	44a0      	add	r8, r4
   1851c:	fba2 4504 	umull	r4, r5, r2, r4
   18520:	1b09      	subs	r1, r1, r4
   18522:	eb60 0005 	sbc.w	r0, r0, r5
   18526:	ea4f 4400 	mov.w	r4, r0, lsl #16
   1852a:	ea44 4411 	orr.w	r4, r4, r1, lsr #16
   1852e:	fbb4 f4f6 	udiv	r4, r4, r6
   18532:	44a0      	add	r8, r4
   18534:	fba2 4504 	umull	r4, r5, r2, r4
   18538:	1b09      	subs	r1, r1, r4
   1853a:	eb60 0005 	sbc.w	r0, r0, r5
   1853e:	fbb1 f4f2 	udiv	r4, r1, r2
   18542:	44a0      	add	r8, r4
   18544:	4643      	mov	r3, r8
   18546:	4618      	mov	r0, r3
   18548:	e8bd 8170 	ldmia.w	sp!, {r4, r5, r6, r8, pc}

0001854c <sp_2048_cmp_32>:
   1854c:	e92d 4170 	stmdb	sp!, {r4, r5, r6, r8, lr}
   18550:	2200      	movs	r2, #0
   18552:	f04f 0300 	mov.w	r3, #0
   18556:	ea6f 0303 	mvn.w	r3, r3
   1855a:	f04f 067c 	mov.w	r6, #124	; 0x7c
   1855e:	f850 8006 	ldr.w	r8, [r0, r6]
   18562:	598d      	ldr	r5, [r1, r6]
   18564:	ea08 0803 	and.w	r8, r8, r3
   18568:	ea05 0503 	and.w	r5, r5, r3
   1856c:	4644      	mov	r4, r8
   1856e:	ebb8 0805 	subs.w	r8, r8, r5
   18572:	eb68 0808 	sbc.w	r8, r8, r8
   18576:	4442      	add	r2, r8
   18578:	ea6f 0808 	mvn.w	r8, r8
   1857c:	ea03 0308 	and.w	r3, r3, r8
   18580:	1b2d      	subs	r5, r5, r4
   18582:	eb68 0808 	sbc.w	r8, r8, r8
   18586:	eba2 0208 	sub.w	r2, r2, r8
   1858a:	ea6f 0808 	mvn.w	r8, r8
   1858e:	ea03 0308 	and.w	r3, r3, r8
   18592:	f1a6 0604 	sub.w	r6, r6, #4
   18596:	2e00      	cmp	r6, #0
   18598:	dae1      	bge.n	1855e <sp_2048_cmp_32+0x12>
   1859a:	4610      	mov	r0, r2
   1859c:	e8bd 8170 	ldmia.w	sp!, {r4, r5, r6, r8, pc}

000185a0 <sp_2048_cmp_64>:
   185a0:	e92d 4170 	stmdb	sp!, {r4, r5, r6, r8, lr}
   185a4:	2200      	movs	r2, #0
   185a6:	f04f 0300 	mov.w	r3, #0
   185aa:	ea6f 0303 	mvn.w	r3, r3
   185ae:	f04f 06fc 	mov.w	r6, #252	; 0xfc
   185b2:	f850 8006 	ldr.w	r8, [r0, r6]
   185b6:	598d      	ldr	r5, [r1, r6]
   185b8:	ea08 0803 	and.w	r8, r8, r3
   185bc:	ea05 0503 	and.w	r5, r5, r3
   185c0:	4644      	mov	r4, r8
   185c2:	ebb8 0805 	subs.w	r8, r8, r5
   185c6:	eb68 0808 	sbc.w	r8, r8, r8
   185ca:	4442      	add	r2, r8
   185cc:	ea6f 0808 	mvn.w	r8, r8
   185d0:	ea03 0308 	and.w	r3, r3, r8
   185d4:	1b2d      	subs	r5, r5, r4
   185d6:	eb68 0808 	sbc.w	r8, r8, r8
   185da:	eba2 0208 	sub.w	r2, r2, r8
   185de:	ea6f 0808 	mvn.w	r8, r8
   185e2:	ea03 0308 	and.w	r3, r3, r8
   185e6:	f1a6 0604 	sub.w	r6, r6, #4
   185ea:	2e00      	cmp	r6, #0
   185ec:	dae1      	bge.n	185b2 <sp_2048_cmp_64+0x12>
   185ee:	4610      	mov	r0, r2
   185f0:	e8bd 8170 	ldmia.w	sp!, {r4, r5, r6, r8, pc}

000185f4 <sp_2048_cond_add_32>:
   185f4:	e92d 4370 	stmdb	sp!, {r4, r5, r6, r8, r9, lr}
   185f8:	2400      	movs	r4, #0
   185fa:	f04f 0580 	mov.w	r5, #128	; 0x80
   185fe:	46a9      	mov	r9, r5
   18600:	f04f 0800 	mov.w	r8, #0
   18604:	f852 6008 	ldr.w	r6, [r2, r8]
   18608:	ea06 0603 	and.w	r6, r6, r3
   1860c:	f114 35ff 	adds.w	r5, r4, #4294967295
   18610:	f851 5008 	ldr.w	r5, [r1, r8]
   18614:	4175      	adcs	r5, r6
   18616:	f04f 0400 	mov.w	r4, #0
   1861a:	4164      	adcs	r4, r4
   1861c:	f840 5008 	str.w	r5, [r0, r8]
   18620:	f108 0804 	add.w	r8, r8, #4
   18624:	45c8      	cmp	r8, r9
   18626:	dbed      	blt.n	18604 <sp_2048_cond_add_32+0x10>
   18628:	4620      	mov	r0, r4
   1862a:	e8bd 8370 	ldmia.w	sp!, {r4, r5, r6, r8, r9, pc}

0001862e <sp_3072_to_bin_96>:
   1862e:	f500 73c0 	add.w	r3, r0, #384	; 0x180
   18632:	f853 2d04 	ldr.w	r2, [r3, #-4]!
   18636:	3104      	adds	r1, #4
   18638:	0e12      	lsrs	r2, r2, #24
   1863a:	4283      	cmp	r3, r0
   1863c:	f801 2c04 	strb.w	r2, [r1, #-4]
   18640:	885a      	ldrh	r2, [r3, #2]
   18642:	f801 2c03 	strb.w	r2, [r1, #-3]
   18646:	681a      	ldr	r2, [r3, #0]
   18648:	ea4f 2212 	mov.w	r2, r2, lsr #8
   1864c:	f801 2c02 	strb.w	r2, [r1, #-2]
   18650:	681a      	ldr	r2, [r3, #0]
   18652:	f801 2c01 	strb.w	r2, [r1, #-1]
   18656:	d1ec      	bne.n	18632 <sp_3072_to_bin_96+0x4>
   18658:	4770      	bx	lr

0001865a <sp_3072_add_96>:
   1865a:	e92d 4170 	stmdb	sp!, {r4, r5, r6, r8, lr}
   1865e:	2300      	movs	r3, #0
   18660:	460e      	mov	r6, r1
   18662:	f04f 0800 	mov.w	r8, #0
   18666:	f506 76c0 	add.w	r6, r6, #384	; 0x180
   1866a:	f1a8 0801 	sub.w	r8, r8, #1
   1866e:	eb13 0308 	adds.w	r3, r3, r8
   18672:	680c      	ldr	r4, [r1, #0]
   18674:	6815      	ldr	r5, [r2, #0]
   18676:	416c      	adcs	r4, r5
   18678:	6004      	str	r4, [r0, #0]
   1867a:	f04f 0300 	mov.w	r3, #0
   1867e:	eb43 0303 	adc.w	r3, r3, r3
   18682:	f101 0104 	add.w	r1, r1, #4
   18686:	f102 0204 	add.w	r2, r2, #4
   1868a:	f100 0004 	add.w	r0, r0, #4
   1868e:	42b1      	cmp	r1, r6
   18690:	d1ed      	bne.n	1866e <sp_3072_add_96+0x14>
   18692:	4618      	mov	r0, r3
   18694:	e8bd 8170 	ldmia.w	sp!, {r4, r5, r6, r8, pc}

00018698 <sp_3072_sub_in_place_96>:
   18698:	e92d 4170 	stmdb	sp!, {r4, r5, r6, r8, lr}
   1869c:	2200      	movs	r2, #0
   1869e:	4680      	mov	r8, r0
   186a0:	f508 78c0 	add.w	r8, r8, #384	; 0x180
   186a4:	f04f 0500 	mov.w	r5, #0
   186a8:	1aad      	subs	r5, r5, r2
   186aa:	6803      	ldr	r3, [r0, #0]
   186ac:	6844      	ldr	r4, [r0, #4]
   186ae:	680d      	ldr	r5, [r1, #0]
   186b0:	684e      	ldr	r6, [r1, #4]
   186b2:	41ab      	sbcs	r3, r5
   186b4:	41b4      	sbcs	r4, r6
   186b6:	6003      	str	r3, [r0, #0]
   186b8:	6044      	str	r4, [r0, #4]
   186ba:	eb62 0202 	sbc.w	r2, r2, r2
   186be:	f100 0008 	add.w	r0, r0, #8
   186c2:	f101 0108 	add.w	r1, r1, #8
   186c6:	4540      	cmp	r0, r8
   186c8:	d1ec      	bne.n	186a4 <sp_3072_sub_in_place_96+0xc>
   186ca:	4610      	mov	r0, r2
   186cc:	e8bd 8170 	ldmia.w	sp!, {r4, r5, r6, r8, pc}

000186d0 <sp_3072_sqr_96>:
   186d0:	e92d 4f70 	stmdb	sp!, {r4, r5, r6, r8, r9, sl, fp, lr}
   186d4:	f04f 0300 	mov.w	r3, #0
   186d8:	f04f 0400 	mov.w	r4, #0
   186dc:	f04f 0500 	mov.w	r5, #0
   186e0:	4699      	mov	r9, r3
   186e2:	4684      	mov	ip, r0
   186e4:	f04f 0603 	mov.w	r6, #3
   186e8:	ea4f 2606 	mov.w	r6, r6, lsl #8
   186ec:	f1c6 0600 	rsb	r6, r6, #0
   186f0:	44b5      	add	sp, r6
   186f2:	46eb      	mov	fp, sp
   186f4:	468a      	mov	sl, r1
   186f6:	f04f 0000 	mov.w	r0, #0
   186fa:	f04f 0601 	mov.w	r6, #1
   186fe:	ea4f 2606 	mov.w	r6, r6, lsl #8
   18702:	f106 067c 	add.w	r6, r6, #124	; 0x7c
   18706:	4649      	mov	r1, r9
   18708:	1b89      	subs	r1, r1, r6
   1870a:	eb66 0606 	sbc.w	r6, r6, r6
   1870e:	ea6f 0606 	mvn.w	r6, r6
   18712:	ea01 0106 	and.w	r1, r1, r6
   18716:	464a      	mov	r2, r9
   18718:	eba2 0201 	sub.w	r2, r2, r1
   1871c:	4451      	add	r1, sl
   1871e:	4452      	add	r2, sl
   18720:	428a      	cmp	r2, r1
   18722:	d00f      	beq.n	18744 <sp_3072_sqr_96+0x74>
   18724:	680e      	ldr	r6, [r1, #0]
   18726:	f8d2 8000 	ldr.w	r8, [r2]
   1872a:	fba6 6808 	umull	r6, r8, r6, r8
   1872e:	199b      	adds	r3, r3, r6
   18730:	eb54 0408 	adcs.w	r4, r4, r8
   18734:	eb45 0500 	adc.w	r5, r5, r0
   18738:	199b      	adds	r3, r3, r6
   1873a:	eb54 0408 	adcs.w	r4, r4, r8
   1873e:	eb45 0500 	adc.w	r5, r5, r0
   18742:	e007      	b.n	18754 <sp_3072_sqr_96+0x84>
   18744:	680e      	ldr	r6, [r1, #0]
   18746:	fba6 6806 	umull	r6, r8, r6, r6
   1874a:	199b      	adds	r3, r3, r6
   1874c:	eb54 0408 	adcs.w	r4, r4, r8
   18750:	eb45 0500 	adc.w	r5, r5, r0
   18754:	f101 0104 	add.w	r1, r1, #4
   18758:	f1a2 0204 	sub.w	r2, r2, #4
   1875c:	f04f 0601 	mov.w	r6, #1
   18760:	ea4f 2606 	mov.w	r6, r6, lsl #8
   18764:	f106 0680 	add.w	r6, r6, #128	; 0x80
   18768:	4456      	add	r6, sl
   1876a:	42b1      	cmp	r1, r6
   1876c:	d005      	beq.n	1877a <sp_3072_sqr_96+0xaa>
   1876e:	4291      	cmp	r1, r2
   18770:	dc03      	bgt.n	1877a <sp_3072_sqr_96+0xaa>
   18772:	46c8      	mov	r8, r9
   18774:	44d0      	add	r8, sl
   18776:	4541      	cmp	r1, r8
   18778:	ddd2      	ble.n	18720 <sp_3072_sqr_96+0x50>
   1877a:	4658      	mov	r0, fp
   1877c:	46c8      	mov	r8, r9
   1877e:	f840 3008 	str.w	r3, [r0, r8]
   18782:	4623      	mov	r3, r4
   18784:	462c      	mov	r4, r5
   18786:	f04f 0500 	mov.w	r5, #0
   1878a:	f108 0804 	add.w	r8, r8, #4
   1878e:	46c1      	mov	r9, r8
   18790:	f04f 0602 	mov.w	r6, #2
   18794:	ea4f 2606 	mov.w	r6, r6, lsl #8
   18798:	f106 06f8 	add.w	r6, r6, #248	; 0xf8
   1879c:	45b0      	cmp	r8, r6
   1879e:	ddaa      	ble.n	186f6 <sp_3072_sqr_96+0x26>
   187a0:	4651      	mov	r1, sl
   187a2:	f840 3008 	str.w	r3, [r0, r8]
   187a6:	4660      	mov	r0, ip
   187a8:	4659      	mov	r1, fp
   187aa:	f04f 0302 	mov.w	r3, #2
   187ae:	ea4f 2303 	mov.w	r3, r3, lsl #8
   187b2:	f103 03fc 	add.w	r3, r3, #252	; 0xfc
   187b6:	58ce      	ldr	r6, [r1, r3]
   187b8:	50c6      	str	r6, [r0, r3]
   187ba:	3b04      	subs	r3, #4
   187bc:	dafb      	bge.n	187b6 <sp_3072_sqr_96+0xe6>
   187be:	f04f 0603 	mov.w	r6, #3
   187c2:	ea4f 2606 	mov.w	r6, r6, lsl #8
   187c6:	44b5      	add	sp, r6
   187c8:	e8bd 8f70 	ldmia.w	sp!, {r4, r5, r6, r8, r9, sl, fp, pc}

000187cc <sp_3072_add_48>:
   187cc:	e92d 4170 	stmdb	sp!, {r4, r5, r6, r8, lr}
   187d0:	2300      	movs	r3, #0
   187d2:	460e      	mov	r6, r1
   187d4:	f04f 0800 	mov.w	r8, #0
   187d8:	f106 06c0 	add.w	r6, r6, #192	; 0xc0
   187dc:	f1a8 0801 	sub.w	r8, r8, #1
   187e0:	eb13 0308 	adds.w	r3, r3, r8
   187e4:	680c      	ldr	r4, [r1, #0]
   187e6:	6815      	ldr	r5, [r2, #0]
   187e8:	416c      	adcs	r4, r5
   187ea:	6004      	str	r4, [r0, #0]
   187ec:	f04f 0300 	mov.w	r3, #0
   187f0:	eb43 0303 	adc.w	r3, r3, r3
   187f4:	f101 0104 	add.w	r1, r1, #4
   187f8:	f102 0204 	add.w	r2, r2, #4
   187fc:	f100 0004 	add.w	r0, r0, #4
   18800:	42b1      	cmp	r1, r6
   18802:	d1ed      	bne.n	187e0 <sp_3072_add_48+0x14>
   18804:	4618      	mov	r0, r3
   18806:	e8bd 8170 	ldmia.w	sp!, {r4, r5, r6, r8, pc}

0001880a <sp_3072_sub_in_place_48>:
   1880a:	e92d 4170 	stmdb	sp!, {r4, r5, r6, r8, lr}
   1880e:	2200      	movs	r2, #0
   18810:	4680      	mov	r8, r0
   18812:	f108 08c0 	add.w	r8, r8, #192	; 0xc0
   18816:	f04f 0500 	mov.w	r5, #0
   1881a:	1aad      	subs	r5, r5, r2
   1881c:	6803      	ldr	r3, [r0, #0]
   1881e:	6844      	ldr	r4, [r0, #4]
   18820:	680d      	ldr	r5, [r1, #0]
   18822:	684e      	ldr	r6, [r1, #4]
   18824:	41ab      	sbcs	r3, r5
   18826:	41b4      	sbcs	r4, r6
   18828:	6003      	str	r3, [r0, #0]
   1882a:	6044      	str	r4, [r0, #4]
   1882c:	eb62 0202 	sbc.w	r2, r2, r2
   18830:	f100 0008 	add.w	r0, r0, #8
   18834:	f101 0108 	add.w	r1, r1, #8
   18838:	4540      	cmp	r0, r8
   1883a:	d1ec      	bne.n	18816 <sp_3072_sub_in_place_48+0xc>
   1883c:	4610      	mov	r0, r2
   1883e:	e8bd 8170 	ldmia.w	sp!, {r4, r5, r6, r8, pc}

00018842 <sp_3072_sqr_48>:
   18842:	e92d 4f70 	stmdb	sp!, {r4, r5, r6, r8, r9, sl, fp, lr}
   18846:	f04f 0300 	mov.w	r3, #0
   1884a:	f04f 0400 	mov.w	r4, #0
   1884e:	f04f 0500 	mov.w	r5, #0
   18852:	4699      	mov	r9, r3
   18854:	4684      	mov	ip, r0
   18856:	f04f 0601 	mov.w	r6, #1
   1885a:	ea4f 2606 	mov.w	r6, r6, lsl #8
   1885e:	f106 0680 	add.w	r6, r6, #128	; 0x80
   18862:	f1c6 0600 	rsb	r6, r6, #0
   18866:	44b5      	add	sp, r6
   18868:	46eb      	mov	fp, sp
   1886a:	468a      	mov	sl, r1
   1886c:	f04f 0000 	mov.w	r0, #0
   18870:	f04f 06bc 	mov.w	r6, #188	; 0xbc
   18874:	4649      	mov	r1, r9
   18876:	1b89      	subs	r1, r1, r6
   18878:	eb66 0606 	sbc.w	r6, r6, r6
   1887c:	ea6f 0606 	mvn.w	r6, r6
   18880:	ea01 0106 	and.w	r1, r1, r6
   18884:	464a      	mov	r2, r9
   18886:	eba2 0201 	sub.w	r2, r2, r1
   1888a:	4451      	add	r1, sl
   1888c:	4452      	add	r2, sl
   1888e:	428a      	cmp	r2, r1
   18890:	d00f      	beq.n	188b2 <sp_3072_sqr_48+0x70>
   18892:	680e      	ldr	r6, [r1, #0]
   18894:	f8d2 8000 	ldr.w	r8, [r2]
   18898:	fba6 6808 	umull	r6, r8, r6, r8
   1889c:	199b      	adds	r3, r3, r6
   1889e:	eb54 0408 	adcs.w	r4, r4, r8
   188a2:	eb45 0500 	adc.w	r5, r5, r0
   188a6:	199b      	adds	r3, r3, r6
   188a8:	eb54 0408 	adcs.w	r4, r4, r8
   188ac:	eb45 0500 	adc.w	r5, r5, r0
   188b0:	e007      	b.n	188c2 <sp_3072_sqr_48+0x80>
   188b2:	680e      	ldr	r6, [r1, #0]
   188b4:	fba6 6806 	umull	r6, r8, r6, r6
   188b8:	199b      	adds	r3, r3, r6
   188ba:	eb54 0408 	adcs.w	r4, r4, r8
   188be:	eb45 0500 	adc.w	r5, r5, r0
   188c2:	f101 0104 	add.w	r1, r1, #4
   188c6:	f1a2 0204 	sub.w	r2, r2, #4
   188ca:	f04f 06c0 	mov.w	r6, #192	; 0xc0
   188ce:	4456      	add	r6, sl
   188d0:	42b1      	cmp	r1, r6
   188d2:	d005      	beq.n	188e0 <sp_3072_sqr_48+0x9e>
   188d4:	4291      	cmp	r1, r2
   188d6:	dc03      	bgt.n	188e0 <sp_3072_sqr_48+0x9e>
   188d8:	46c8      	mov	r8, r9
   188da:	44d0      	add	r8, sl
   188dc:	4541      	cmp	r1, r8
   188de:	ddd6      	ble.n	1888e <sp_3072_sqr_48+0x4c>
   188e0:	4658      	mov	r0, fp
   188e2:	46c8      	mov	r8, r9
   188e4:	f840 3008 	str.w	r3, [r0, r8]
   188e8:	4623      	mov	r3, r4
   188ea:	462c      	mov	r4, r5
   188ec:	f04f 0500 	mov.w	r5, #0
   188f0:	f108 0804 	add.w	r8, r8, #4
   188f4:	46c1      	mov	r9, r8
   188f6:	f04f 0601 	mov.w	r6, #1
   188fa:	ea4f 2606 	mov.w	r6, r6, lsl #8
   188fe:	f106 0678 	add.w	r6, r6, #120	; 0x78
   18902:	45b0      	cmp	r8, r6
   18904:	ddb2      	ble.n	1886c <sp_3072_sqr_48+0x2a>
   18906:	4651      	mov	r1, sl
   18908:	f840 3008 	str.w	r3, [r0, r8]
   1890c:	4660      	mov	r0, ip
   1890e:	4659      	mov	r1, fp
   18910:	f04f 0301 	mov.w	r3, #1
   18914:	ea4f 2303 	mov.w	r3, r3, lsl #8
   18918:	f103 037c 	add.w	r3, r3, #124	; 0x7c
   1891c:	58ce      	ldr	r6, [r1, r3]
   1891e:	50c6      	str	r6, [r0, r3]
   18920:	3b04      	subs	r3, #4
   18922:	dafb      	bge.n	1891c <sp_3072_sqr_48+0xda>
   18924:	f04f 0601 	mov.w	r6, #1
   18928:	ea4f 2606 	mov.w	r6, r6, lsl #8
   1892c:	f106 0680 	add.w	r6, r6, #128	; 0x80
   18930:	44b5      	add	sp, r6
   18932:	e8bd 8f70 	ldmia.w	sp!, {r4, r5, r6, r8, r9, sl, fp, pc}

00018936 <sp_3072_mul_d_96>:
   18936:	e92d 4370 	stmdb	sp!, {r4, r5, r6, r8, r9, lr}
   1893a:	f501 79c0 	add.w	r9, r1, #384	; 0x180
   1893e:	f851 6b04 	ldr.w	r6, [r1], #4
   18942:	fba6 5302 	umull	r5, r3, r6, r2
   18946:	f04f 0400 	mov.w	r4, #0
   1894a:	f840 5b04 	str.w	r5, [r0], #4
   1894e:	f04f 0500 	mov.w	r5, #0
   18952:	f851 6b04 	ldr.w	r6, [r1], #4
   18956:	fba6 6802 	umull	r6, r8, r6, r2
   1895a:	199b      	adds	r3, r3, r6
   1895c:	eb54 0408 	adcs.w	r4, r4, r8
   18960:	f145 0500 	adc.w	r5, r5, #0
   18964:	f840 3b04 	str.w	r3, [r0], #4
   18968:	4623      	mov	r3, r4
   1896a:	462c      	mov	r4, r5
   1896c:	4549      	cmp	r1, r9
   1896e:	dbee      	blt.n	1894e <sp_3072_mul_d_96+0x18>
   18970:	6003      	str	r3, [r0, #0]
   18972:	e8bd 8370 	ldmia.w	sp!, {r4, r5, r6, r8, r9, pc}

00018976 <sp_3072_mul_d_48>:
   18976:	e92d 4370 	stmdb	sp!, {r4, r5, r6, r8, r9, lr}
   1897a:	f101 09c0 	add.w	r9, r1, #192	; 0xc0
   1897e:	f851 6b04 	ldr.w	r6, [r1], #4
   18982:	fba6 5302 	umull	r5, r3, r6, r2
   18986:	f04f 0400 	mov.w	r4, #0
   1898a:	f840 5b04 	str.w	r5, [r0], #4
   1898e:	f04f 0500 	mov.w	r5, #0
   18992:	f851 6b04 	ldr.w	r6, [r1], #4
   18996:	fba6 6802 	umull	r6, r8, r6, r2
   1899a:	199b      	adds	r3, r3, r6
   1899c:	eb54 0408 	adcs.w	r4, r4, r8
   189a0:	f145 0500 	adc.w	r5, r5, #0
   189a4:	f840 3b04 	str.w	r3, [r0], #4
   189a8:	4623      	mov	r3, r4
   189aa:	462c      	mov	r4, r5
   189ac:	4549      	cmp	r1, r9
   189ae:	dbee      	blt.n	1898e <sp_3072_mul_d_48+0x18>
   189b0:	6003      	str	r3, [r0, #0]
   189b2:	e8bd 8370 	ldmia.w	sp!, {r4, r5, r6, r8, r9, pc}

000189b6 <sp_3072_cmp_48>:
   189b6:	e92d 4170 	stmdb	sp!, {r4, r5, r6, r8, lr}
   189ba:	2200      	movs	r2, #0
   189bc:	f04f 0300 	mov.w	r3, #0
   189c0:	ea6f 0303 	mvn.w	r3, r3
   189c4:	f04f 06bc 	mov.w	r6, #188	; 0xbc
   189c8:	f850 8006 	ldr.w	r8, [r0, r6]
   189cc:	598d      	ldr	r5, [r1, r6]
   189ce:	ea08 0803 	and.w	r8, r8, r3
   189d2:	ea05 0503 	and.w	r5, r5, r3
   189d6:	4644      	mov	r4, r8
   189d8:	ebb8 0805 	subs.w	r8, r8, r5
   189dc:	eb68 0808 	sbc.w	r8, r8, r8
   189e0:	4442      	add	r2, r8
   189e2:	ea6f 0808 	mvn.w	r8, r8
   189e6:	ea03 0308 	and.w	r3, r3, r8
   189ea:	1b2d      	subs	r5, r5, r4
   189ec:	eb68 0808 	sbc.w	r8, r8, r8
   189f0:	eba2 0208 	sub.w	r2, r2, r8
   189f4:	ea6f 0808 	mvn.w	r8, r8
   189f8:	ea03 0308 	and.w	r3, r3, r8
   189fc:	f1a6 0604 	sub.w	r6, r6, #4
   18a00:	2e00      	cmp	r6, #0
   18a02:	dae1      	bge.n	189c8 <sp_3072_cmp_48+0x12>
   18a04:	4610      	mov	r0, r2
   18a06:	e8bd 8170 	ldmia.w	sp!, {r4, r5, r6, r8, pc}

00018a0a <sp_3072_cmp_96>:
   18a0a:	e92d 4170 	stmdb	sp!, {r4, r5, r6, r8, lr}
   18a0e:	2200      	movs	r2, #0
   18a10:	f04f 0300 	mov.w	r3, #0
   18a14:	ea6f 0303 	mvn.w	r3, r3
   18a18:	f04f 0601 	mov.w	r6, #1
   18a1c:	ea4f 2606 	mov.w	r6, r6, lsl #8
   18a20:	f106 067c 	add.w	r6, r6, #124	; 0x7c
   18a24:	f850 8006 	ldr.w	r8, [r0, r6]
   18a28:	598d      	ldr	r5, [r1, r6]
   18a2a:	ea08 0803 	and.w	r8, r8, r3
   18a2e:	ea05 0503 	and.w	r5, r5, r3
   18a32:	4644      	mov	r4, r8
   18a34:	ebb8 0805 	subs.w	r8, r8, r5
   18a38:	eb68 0808 	sbc.w	r8, r8, r8
   18a3c:	4442      	add	r2, r8
   18a3e:	ea6f 0808 	mvn.w	r8, r8
   18a42:	ea03 0308 	and.w	r3, r3, r8
   18a46:	1b2d      	subs	r5, r5, r4
   18a48:	eb68 0808 	sbc.w	r8, r8, r8
   18a4c:	eba2 0208 	sub.w	r2, r2, r8
   18a50:	ea6f 0808 	mvn.w	r8, r8
   18a54:	ea03 0308 	and.w	r3, r3, r8
   18a58:	f1a6 0604 	sub.w	r6, r6, #4
   18a5c:	2e00      	cmp	r6, #0
   18a5e:	dae1      	bge.n	18a24 <sp_3072_cmp_96+0x1a>
   18a60:	4610      	mov	r0, r2
   18a62:	e8bd 8170 	ldmia.w	sp!, {r4, r5, r6, r8, pc}

00018a66 <sp_3072_cond_add_48>:
   18a66:	e92d 4370 	stmdb	sp!, {r4, r5, r6, r8, r9, lr}
   18a6a:	2400      	movs	r4, #0
   18a6c:	f04f 05c0 	mov.w	r5, #192	; 0xc0
   18a70:	46a9      	mov	r9, r5
   18a72:	f04f 0800 	mov.w	r8, #0
   18a76:	f852 6008 	ldr.w	r6, [r2, r8]
   18a7a:	ea06 0603 	and.w	r6, r6, r3
   18a7e:	f114 35ff 	adds.w	r5, r4, #4294967295
   18a82:	f851 5008 	ldr.w	r5, [r1, r8]
   18a86:	4175      	adcs	r5, r6
   18a88:	f04f 0400 	mov.w	r4, #0
   18a8c:	4164      	adcs	r4, r4
   18a8e:	f840 5008 	str.w	r5, [r0, r8]
   18a92:	f108 0804 	add.w	r8, r8, #4
   18a96:	45c8      	cmp	r8, r9
   18a98:	dbed      	blt.n	18a76 <sp_3072_cond_add_48+0x10>
   18a9a:	4620      	mov	r0, r4
   18a9c:	e8bd 8370 	ldmia.w	sp!, {r4, r5, r6, r8, r9, pc}

00018aa0 <sp_2048_from_mp>:
   18aa0:	b570      	push	{r4, r5, r6, lr}
   18aa2:	460d      	mov	r5, r1
   18aa4:	4611      	mov	r1, r2
   18aa6:	4614      	mov	r4, r2
   18aa8:	4606      	mov	r6, r0
   18aaa:	f851 2b08 	ldr.w	r2, [r1], #8
   18aae:	0092      	lsls	r2, r2, #2
   18ab0:	f7f7 ecbc 	blx	1042c <memcpy@plt>
   18ab4:	6823      	ldr	r3, [r4, #0]
   18ab6:	2200      	movs	r2, #0
   18ab8:	42ab      	cmp	r3, r5
   18aba:	db00      	blt.n	18abe <sp_2048_from_mp+0x1e>
   18abc:	bd70      	pop	{r4, r5, r6, pc}
   18abe:	f846 2023 	str.w	r2, [r6, r3, lsl #2]
   18ac2:	3301      	adds	r3, #1
   18ac4:	e7f8      	b.n	18ab8 <sp_2048_from_mp+0x18>

00018ac6 <sp_2048_mul_64>:
   18ac6:	e92d 4ff0 	stmdb	sp!, {r4, r5, r6, r7, r8, r9, sl, fp, lr}
   18aca:	f5ad 7d01 	sub.w	sp, sp, #516	; 0x204
   18ace:	466f      	mov	r7, sp
   18ad0:	f04f 0300 	mov.w	r3, #0
   18ad4:	f04f 0400 	mov.w	r4, #0
   18ad8:	4699      	mov	r9, r3
   18ada:	46bc      	mov	ip, r7
   18adc:	468a      	mov	sl, r1
   18ade:	4693      	mov	fp, r2
   18ae0:	f04f 0601 	mov.w	r6, #1
   18ae4:	ea4f 2606 	mov.w	r6, r6, lsl #8
   18ae8:	4456      	add	r6, sl
   18aea:	46b6      	mov	lr, r6
   18aec:	f04f 0700 	mov.w	r7, #0
   18af0:	f04f 0500 	mov.w	r5, #0
   18af4:	f04f 06fc 	mov.w	r6, #252	; 0xfc
   18af8:	4649      	mov	r1, r9
   18afa:	1b89      	subs	r1, r1, r6
   18afc:	eb66 0606 	sbc.w	r6, r6, r6
   18b00:	ea6f 0606 	mvn.w	r6, r6
   18b04:	ea01 0106 	and.w	r1, r1, r6
   18b08:	464a      	mov	r2, r9
   18b0a:	eba2 0201 	sub.w	r2, r2, r1
   18b0e:	4451      	add	r1, sl
   18b10:	445a      	add	r2, fp
   18b12:	680e      	ldr	r6, [r1, #0]
   18b14:	f8d2 8000 	ldr.w	r8, [r2]
   18b18:	fba6 6808 	umull	r6, r8, r6, r8
   18b1c:	199b      	adds	r3, r3, r6
   18b1e:	eb54 0408 	adcs.w	r4, r4, r8
   18b22:	eb45 0507 	adc.w	r5, r5, r7
   18b26:	f101 0104 	add.w	r1, r1, #4
   18b2a:	f1a2 0204 	sub.w	r2, r2, #4
   18b2e:	4571      	cmp	r1, lr
   18b30:	d003      	beq.n	18b3a <sp_2048_mul_64+0x74>
   18b32:	464e      	mov	r6, r9
   18b34:	4456      	add	r6, sl
   18b36:	42b1      	cmp	r1, r6
   18b38:	ddeb      	ble.n	18b12 <sp_2048_mul_64+0x4c>
   18b3a:	4667      	mov	r7, ip
   18b3c:	46c8      	mov	r8, r9
   18b3e:	f847 3008 	str.w	r3, [r7, r8]
   18b42:	4623      	mov	r3, r4
   18b44:	462c      	mov	r4, r5
   18b46:	f108 0804 	add.w	r8, r8, #4
   18b4a:	46c1      	mov	r9, r8
   18b4c:	f04f 0601 	mov.w	r6, #1
   18b50:	ea4f 2606 	mov.w	r6, r6, lsl #8
   18b54:	f106 06f8 	add.w	r6, r6, #248	; 0xf8
   18b58:	45b0      	cmp	r8, r6
   18b5a:	ddc7      	ble.n	18aec <sp_2048_mul_64+0x26>
   18b5c:	f847 3008 	str.w	r3, [r7, r8]
   18b60:	4651      	mov	r1, sl
   18b62:	465a      	mov	r2, fp
   18b64:	f44f 7200 	mov.w	r2, #512	; 0x200
   18b68:	4639      	mov	r1, r7
   18b6a:	f7f7 ec60 	blx	1042c <memcpy@plt>
   18b6e:	f50d 7d01 	add.w	sp, sp, #516	; 0x204
   18b72:	e8bd 8ff0 	ldmia.w	sp!, {r4, r5, r6, r7, r8, r9, sl, fp, pc}

00018b76 <sp_2048_mul_32>:
   18b76:	e92d 4ff0 	stmdb	sp!, {r4, r5, r6, r7, r8, r9, sl, fp, lr}
   18b7a:	b0c1      	sub	sp, #260	; 0x104
   18b7c:	466f      	mov	r7, sp
   18b7e:	f04f 0300 	mov.w	r3, #0
   18b82:	f04f 0400 	mov.w	r4, #0
   18b86:	4699      	mov	r9, r3
   18b88:	46bc      	mov	ip, r7
   18b8a:	468a      	mov	sl, r1
   18b8c:	4693      	mov	fp, r2
   18b8e:	f04f 0680 	mov.w	r6, #128	; 0x80
   18b92:	4456      	add	r6, sl
   18b94:	46b6      	mov	lr, r6
   18b96:	f04f 0700 	mov.w	r7, #0
   18b9a:	f04f 0500 	mov.w	r5, #0
   18b9e:	f04f 067c 	mov.w	r6, #124	; 0x7c
   18ba2:	4649      	mov	r1, r9
   18ba4:	1b89      	subs	r1, r1, r6
   18ba6:	eb66 0606 	sbc.w	r6, r6, r6
   18baa:	ea6f 0606 	mvn.w	r6, r6
   18bae:	ea01 0106 	and.w	r1, r1, r6
   18bb2:	464a      	mov	r2, r9
   18bb4:	eba2 0201 	sub.w	r2, r2, r1
   18bb8:	4451      	add	r1, sl
   18bba:	445a      	add	r2, fp
   18bbc:	680e      	ldr	r6, [r1, #0]
   18bbe:	f8d2 8000 	ldr.w	r8, [r2]
   18bc2:	fba6 6808 	umull	r6, r8, r6, r8
   18bc6:	199b      	adds	r3, r3, r6
   18bc8:	eb54 0408 	adcs.w	r4, r4, r8
   18bcc:	eb45 0507 	adc.w	r5, r5, r7
   18bd0:	f101 0104 	add.w	r1, r1, #4
   18bd4:	f1a2 0204 	sub.w	r2, r2, #4
   18bd8:	4571      	cmp	r1, lr
   18bda:	d003      	beq.n	18be4 <sp_2048_mul_32+0x6e>
   18bdc:	464e      	mov	r6, r9
   18bde:	4456      	add	r6, sl
   18be0:	42b1      	cmp	r1, r6
   18be2:	ddeb      	ble.n	18bbc <sp_2048_mul_32+0x46>
   18be4:	4667      	mov	r7, ip
   18be6:	46c8      	mov	r8, r9
   18be8:	f847 3008 	str.w	r3, [r7, r8]
   18bec:	4623      	mov	r3, r4
   18bee:	462c      	mov	r4, r5
   18bf0:	f108 0804 	add.w	r8, r8, #4
   18bf4:	46c1      	mov	r9, r8
   18bf6:	f04f 06f8 	mov.w	r6, #248	; 0xf8
   18bfa:	45b0      	cmp	r8, r6
   18bfc:	ddcb      	ble.n	18b96 <sp_2048_mul_32+0x20>
   18bfe:	f847 3008 	str.w	r3, [r7, r8]
   18c02:	4651      	mov	r1, sl
   18c04:	465a      	mov	r2, fp
   18c06:	f44f 7280 	mov.w	r2, #256	; 0x100
   18c0a:	4639      	mov	r1, r7
   18c0c:	f7f7 ec0e 	blx	1042c <memcpy@plt>
   18c10:	b041      	add	sp, #260	; 0x104
   18c12:	e8bd 8ff0 	ldmia.w	sp!, {r4, r5, r6, r7, r8, r9, sl, fp, pc}

00018c16 <sp_3072_mul_96>:
   18c16:	e92d 4ff0 	stmdb	sp!, {r4, r5, r6, r7, r8, r9, sl, fp, lr}
   18c1a:	f5ad 7d41 	sub.w	sp, sp, #772	; 0x304
   18c1e:	466f      	mov	r7, sp
   18c20:	f04f 0300 	mov.w	r3, #0
   18c24:	f04f 0400 	mov.w	r4, #0
   18c28:	4699      	mov	r9, r3
   18c2a:	46bc      	mov	ip, r7
   18c2c:	468a      	mov	sl, r1
   18c2e:	4693      	mov	fp, r2
   18c30:	f04f 0601 	mov.w	r6, #1
   18c34:	ea4f 2606 	mov.w	r6, r6, lsl #8
   18c38:	f106 0680 	add.w	r6, r6, #128	; 0x80
   18c3c:	4456      	add	r6, sl
   18c3e:	46b6      	mov	lr, r6
   18c40:	f04f 0700 	mov.w	r7, #0
   18c44:	f04f 0500 	mov.w	r5, #0
   18c48:	f04f 0601 	mov.w	r6, #1
   18c4c:	ea4f 2606 	mov.w	r6, r6, lsl #8
   18c50:	f106 067c 	add.w	r6, r6, #124	; 0x7c
   18c54:	4649      	mov	r1, r9
   18c56:	1b89      	subs	r1, r1, r6
   18c58:	eb66 0606 	sbc.w	r6, r6, r6
   18c5c:	ea6f 0606 	mvn.w	r6, r6
   18c60:	ea01 0106 	and.w	r1, r1, r6
   18c64:	464a      	mov	r2, r9
   18c66:	eba2 0201 	sub.w	r2, r2, r1
   18c6a:	4451      	add	r1, sl
   18c6c:	445a      	add	r2, fp
   18c6e:	680e      	ldr	r6, [r1, #0]
   18c70:	f8d2 8000 	ldr.w	r8, [r2]
   18c74:	fba6 6808 	umull	r6, r8, r6, r8
   18c78:	199b      	adds	r3, r3, r6
   18c7a:	eb54 0408 	adcs.w	r4, r4, r8
   18c7e:	eb45 0507 	adc.w	r5, r5, r7
   18c82:	f101 0104 	add.w	r1, r1, #4
   18c86:	f1a2 0204 	sub.w	r2, r2, #4
   18c8a:	4571      	cmp	r1, lr
   18c8c:	d003      	beq.n	18c96 <sp_3072_mul_96+0x80>
   18c8e:	464e      	mov	r6, r9
   18c90:	4456      	add	r6, sl
   18c92:	42b1      	cmp	r1, r6
   18c94:	ddeb      	ble.n	18c6e <sp_3072_mul_96+0x58>
   18c96:	4667      	mov	r7, ip
   18c98:	46c8      	mov	r8, r9
   18c9a:	f847 3008 	str.w	r3, [r7, r8]
   18c9e:	4623      	mov	r3, r4
   18ca0:	462c      	mov	r4, r5
   18ca2:	f108 0804 	add.w	r8, r8, #4
   18ca6:	46c1      	mov	r9, r8
   18ca8:	f04f 0602 	mov.w	r6, #2
   18cac:	ea4f 2606 	mov.w	r6, r6, lsl #8
   18cb0:	f106 06f8 	add.w	r6, r6, #248	; 0xf8
   18cb4:	45b0      	cmp	r8, r6
   18cb6:	ddc3      	ble.n	18c40 <sp_3072_mul_96+0x2a>
   18cb8:	f847 3008 	str.w	r3, [r7, r8]
   18cbc:	4651      	mov	r1, sl
   18cbe:	465a      	mov	r2, fp
   18cc0:	f44f 7240 	mov.w	r2, #768	; 0x300
   18cc4:	4639      	mov	r1, r7
   18cc6:	f7f7 ebb2 	blx	1042c <memcpy@plt>
   18cca:	f50d 7d41 	add.w	sp, sp, #772	; 0x304
   18cce:	e8bd 8ff0 	ldmia.w	sp!, {r4, r5, r6, r7, r8, r9, sl, fp, pc}

00018cd2 <sp_3072_mul_48>:
   18cd2:	e92d 4ff0 	stmdb	sp!, {r4, r5, r6, r7, r8, r9, sl, fp, lr}
   18cd6:	b0e1      	sub	sp, #388	; 0x184
   18cd8:	466f      	mov	r7, sp
   18cda:	f04f 0300 	mov.w	r3, #0
   18cde:	f04f 0400 	mov.w	r4, #0
   18ce2:	4699      	mov	r9, r3
   18ce4:	46bc      	mov	ip, r7
   18ce6:	468a      	mov	sl, r1
   18ce8:	4693      	mov	fp, r2
   18cea:	f04f 06c0 	mov.w	r6, #192	; 0xc0
   18cee:	4456      	add	r6, sl
   18cf0:	46b6      	mov	lr, r6
   18cf2:	f04f 0700 	mov.w	r7, #0
   18cf6:	f04f 0500 	mov.w	r5, #0
   18cfa:	f04f 06bc 	mov.w	r6, #188	; 0xbc
   18cfe:	4649      	mov	r1, r9
   18d00:	1b89      	subs	r1, r1, r6
   18d02:	eb66 0606 	sbc.w	r6, r6, r6
   18d06:	ea6f 0606 	mvn.w	r6, r6
   18d0a:	ea01 0106 	and.w	r1, r1, r6
   18d0e:	464a      	mov	r2, r9
   18d10:	eba2 0201 	sub.w	r2, r2, r1
   18d14:	4451      	add	r1, sl
   18d16:	445a      	add	r2, fp
   18d18:	680e      	ldr	r6, [r1, #0]
   18d1a:	f8d2 8000 	ldr.w	r8, [r2]
   18d1e:	fba6 6808 	umull	r6, r8, r6, r8
   18d22:	199b      	adds	r3, r3, r6
   18d24:	eb54 0408 	adcs.w	r4, r4, r8
   18d28:	eb45 0507 	adc.w	r5, r5, r7
   18d2c:	f101 0104 	add.w	r1, r1, #4
   18d30:	f1a2 0204 	sub.w	r2, r2, #4
   18d34:	4571      	cmp	r1, lr
   18d36:	d003      	beq.n	18d40 <sp_3072_mul_48+0x6e>
   18d38:	464e      	mov	r6, r9
   18d3a:	4456      	add	r6, sl
   18d3c:	42b1      	cmp	r1, r6
   18d3e:	ddeb      	ble.n	18d18 <sp_3072_mul_48+0x46>
   18d40:	4667      	mov	r7, ip
   18d42:	46c8      	mov	r8, r9
   18d44:	f847 3008 	str.w	r3, [r7, r8]
   18d48:	4623      	mov	r3, r4
   18d4a:	462c      	mov	r4, r5
   18d4c:	f108 0804 	add.w	r8, r8, #4
   18d50:	46c1      	mov	r9, r8
   18d52:	f04f 0601 	mov.w	r6, #1
   18d56:	ea4f 2606 	mov.w	r6, r6, lsl #8
   18d5a:	f106 0678 	add.w	r6, r6, #120	; 0x78
   18d5e:	45b0      	cmp	r8, r6
   18d60:	ddc7      	ble.n	18cf2 <sp_3072_mul_48+0x20>
   18d62:	f847 3008 	str.w	r3, [r7, r8]
   18d66:	4651      	mov	r1, sl
   18d68:	465a      	mov	r2, fp
   18d6a:	f44f 72c0 	mov.w	r2, #384	; 0x180
   18d6e:	4639      	mov	r1, r7
   18d70:	f7f7 eb5c 	blx	1042c <memcpy@plt>
   18d74:	b061      	add	sp, #388	; 0x184
   18d76:	e8bd 8ff0 	ldmia.w	sp!, {r4, r5, r6, r7, r8, r9, sl, fp, pc}

00018d7a <sp_2048_to_mp>:
   18d7a:	b570      	push	{r4, r5, r6, lr}
   18d7c:	460c      	mov	r4, r1
   18d7e:	4606      	mov	r6, r0
   18d80:	2140      	movs	r1, #64	; 0x40
   18d82:	4620      	mov	r0, r4
   18d84:	f002 f9ce 	bl	1b124 <sp_grow>
   18d88:	4605      	mov	r5, r0
   18d8a:	b980      	cbnz	r0, 18dae <sp_2048_to_mp+0x34>
   18d8c:	f44f 7280 	mov.w	r2, #256	; 0x100
   18d90:	4631      	mov	r1, r6
   18d92:	f104 0008 	add.w	r0, r4, #8
   18d96:	f7f7 eb4a 	blx	1042c <memcpy@plt>
   18d9a:	f504 7282 	add.w	r2, r4, #260	; 0x104
   18d9e:	233f      	movs	r3, #63	; 0x3f
   18da0:	f852 1904 	ldr.w	r1, [r2], #-4
   18da4:	b909      	cbnz	r1, 18daa <sp_2048_to_mp+0x30>
   18da6:	3b01      	subs	r3, #1
   18da8:	d2fa      	bcs.n	18da0 <sp_2048_to_mp+0x26>
   18daa:	3301      	adds	r3, #1
   18dac:	6023      	str	r3, [r4, #0]
   18dae:	4628      	mov	r0, r5
   18db0:	bd70      	pop	{r4, r5, r6, pc}

00018db2 <sp_3072_to_mp>:
   18db2:	b570      	push	{r4, r5, r6, lr}
   18db4:	460c      	mov	r4, r1
   18db6:	4606      	mov	r6, r0
   18db8:	2160      	movs	r1, #96	; 0x60
   18dba:	4620      	mov	r0, r4
   18dbc:	f002 f9b2 	bl	1b124 <sp_grow>
   18dc0:	4605      	mov	r5, r0
   18dc2:	b980      	cbnz	r0, 18de6 <sp_3072_to_mp+0x34>
   18dc4:	f44f 72c0 	mov.w	r2, #384	; 0x180
   18dc8:	4631      	mov	r1, r6
   18dca:	f104 0008 	add.w	r0, r4, #8
   18dce:	f7f7 eb2e 	blx	1042c <memcpy@plt>
   18dd2:	f504 72c2 	add.w	r2, r4, #388	; 0x184
   18dd6:	235f      	movs	r3, #95	; 0x5f
   18dd8:	f852 1904 	ldr.w	r1, [r2], #-4
   18ddc:	b909      	cbnz	r1, 18de2 <sp_3072_to_mp+0x30>
   18dde:	3b01      	subs	r3, #1
   18de0:	d2fa      	bcs.n	18dd8 <sp_3072_to_mp+0x26>
   18de2:	3301      	adds	r3, #1
   18de4:	6023      	str	r3, [r4, #0]
   18de6:	4628      	mov	r0, r5
   18de8:	bd70      	pop	{r4, r5, r6, pc}

00018dea <sp_3072_sub_96.isra.0>:
   18dea:	2300      	movs	r3, #0
   18dec:	b570      	push	{r4, r5, r6, lr}
   18dee:	460e      	mov	r6, r1
   18df0:	f04f 0501 	mov.w	r5, #1
   18df4:	ea4f 2505 	mov.w	r5, r5, lsl #8
   18df8:	f105 0580 	add.w	r5, r5, #128	; 0x80
   18dfc:	442e      	add	r6, r5
   18dfe:	f04f 0500 	mov.w	r5, #0
   18e02:	1aed      	subs	r5, r5, r3
   18e04:	680c      	ldr	r4, [r1, #0]
   18e06:	6815      	ldr	r5, [r2, #0]
   18e08:	41ac      	sbcs	r4, r5
   18e0a:	6004      	str	r4, [r0, #0]
   18e0c:	eb63 0303 	sbc.w	r3, r3, r3
   18e10:	f101 0104 	add.w	r1, r1, #4
   18e14:	f102 0204 	add.w	r2, r2, #4
   18e18:	f100 0004 	add.w	r0, r0, #4
   18e1c:	42b1      	cmp	r1, r6
   18e1e:	d1ee      	bne.n	18dfe <sp_3072_sub_96.isra.0+0x14>
   18e20:	bd70      	pop	{r4, r5, r6, pc}

00018e22 <sp_3072_div_96_cond.constprop.0>:
   18e22:	e92d 43f0 	stmdb	sp!, {r4, r5, r6, r7, r8, r9, lr}
   18e26:	f2ad 4d8c 	subw	sp, sp, #1164	; 0x48c
   18e2a:	460d      	mov	r5, r1
   18e2c:	4617      	mov	r7, r2
   18e2e:	4601      	mov	r1, r0
   18e30:	f44f 7240 	mov.w	r2, #768	; 0x300
   18e34:	a862      	add	r0, sp, #392	; 0x188
   18e36:	f20d 4484 	addw	r4, sp, #1156	; 0x484
   18e3a:	f04f 085f 	mov.w	r8, #95	; 0x5f
   18e3e:	f8d5 917c 	ldr.w	r9, [r5, #380]	; 0x17c
   18e42:	f7f7 eaf4 	blx	1042c <memcpy@plt>
   18e46:	6820      	ldr	r0, [r4, #0]
   18e48:	4626      	mov	r6, r4
   18e4a:	3c04      	subs	r4, #4
   18e4c:	4581      	cmp	r9, r0
   18e4e:	d043      	beq.n	18ed8 <sp_3072_div_96_cond.constprop.0+0xb6>
   18e50:	464a      	mov	r2, r9
   18e52:	6821      	ldr	r1, [r4, #0]
   18e54:	f7ff fb41 	bl	184da <div_2048_word_32>
   18e58:	4602      	mov	r2, r0
   18e5a:	4629      	mov	r1, r5
   18e5c:	a801      	add	r0, sp, #4
   18e5e:	f5a6 76c0 	sub.w	r6, r6, #384	; 0x180
   18e62:	f7ff fd68 	bl	18936 <sp_3072_mul_d_96>
   18e66:	a901      	add	r1, sp, #4
   18e68:	4630      	mov	r0, r6
   18e6a:	f7ff fc15 	bl	18698 <sp_3072_sub_in_place_96>
   18e6e:	6861      	ldr	r1, [r4, #4]
   18e70:	9b61      	ldr	r3, [sp, #388]	; 0x184
   18e72:	1ac9      	subs	r1, r1, r3
   18e74:	4401      	add	r1, r0
   18e76:	6061      	str	r1, [r4, #4]
   18e78:	b181      	cbz	r1, 18e9c <sp_3072_div_96_cond.constprop.0+0x7a>
   18e7a:	462a      	mov	r2, r5
   18e7c:	4631      	mov	r1, r6
   18e7e:	4630      	mov	r0, r6
   18e80:	f7ff fbeb 	bl	1865a <sp_3072_add_96>
   18e84:	6863      	ldr	r3, [r4, #4]
   18e86:	4418      	add	r0, r3
   18e88:	6060      	str	r0, [r4, #4]
   18e8a:	b138      	cbz	r0, 18e9c <sp_3072_div_96_cond.constprop.0+0x7a>
   18e8c:	462a      	mov	r2, r5
   18e8e:	4631      	mov	r1, r6
   18e90:	4630      	mov	r0, r6
   18e92:	f7ff fbe2 	bl	1865a <sp_3072_add_96>
   18e96:	6863      	ldr	r3, [r4, #4]
   18e98:	4418      	add	r0, r3
   18e9a:	6060      	str	r0, [r4, #4]
   18e9c:	f1b8 0801 	subs.w	r8, r8, #1
   18ea0:	d2d1      	bcs.n	18e46 <sp_3072_div_96_cond.constprop.0+0x24>
   18ea2:	235f      	movs	r3, #95	; 0x5f
   18ea4:	aa62      	add	r2, sp, #392	; 0x188
   18ea6:	f852 1023 	ldr.w	r1, [r2, r3, lsl #2]
   18eaa:	f855 2023 	ldr.w	r2, [r5, r3, lsl #2]
   18eae:	4291      	cmp	r1, r2
   18eb0:	d101      	bne.n	18eb6 <sp_3072_div_96_cond.constprop.0+0x94>
   18eb2:	3b01      	subs	r3, #1
   18eb4:	d1f6      	bne.n	18ea4 <sp_3072_div_96_cond.constprop.0+0x82>
   18eb6:	aa62      	add	r2, sp, #392	; 0x188
   18eb8:	f852 2023 	ldr.w	r2, [r2, r3, lsl #2]
   18ebc:	f855 3023 	ldr.w	r3, [r5, r3, lsl #2]
   18ec0:	429a      	cmp	r2, r3
   18ec2:	d30c      	bcc.n	18ede <sp_3072_div_96_cond.constprop.0+0xbc>
   18ec4:	462a      	mov	r2, r5
   18ec6:	a962      	add	r1, sp, #392	; 0x188
   18ec8:	4638      	mov	r0, r7
   18eca:	f7ff ff8e 	bl	18dea <sp_3072_sub_96.isra.0>
   18ece:	2000      	movs	r0, #0
   18ed0:	f20d 4d8c 	addw	sp, sp, #1164	; 0x48c
   18ed4:	e8bd 83f0 	ldmia.w	sp!, {r4, r5, r6, r7, r8, r9, pc}
   18ed8:	f04f 32ff 	mov.w	r2, #4294967295
   18edc:	e7bd      	b.n	18e5a <sp_3072_div_96_cond.constprop.0+0x38>
   18ede:	f44f 72c0 	mov.w	r2, #384	; 0x180
   18ee2:	a962      	add	r1, sp, #392	; 0x188
   18ee4:	4638      	mov	r0, r7
   18ee6:	f7f7 eaa2 	blx	1042c <memcpy@plt>
   18eea:	e7f0      	b.n	18ece <sp_3072_div_96_cond.constprop.0+0xac>

00018eec <sp_3072_cond_sub_96.isra.0>:
   18eec:	e92d 4370 	stmdb	sp!, {r4, r5, r6, r8, r9, lr}
   18ef0:	2400      	movs	r4, #0
   18ef2:	f04f 0501 	mov.w	r5, #1
   18ef6:	ea4f 2505 	mov.w	r5, r5, lsl #8
   18efa:	f105 0580 	add.w	r5, r5, #128	; 0x80
   18efe:	46a9      	mov	r9, r5
   18f00:	f04f 0800 	mov.w	r8, #0
   18f04:	f852 6008 	ldr.w	r6, [r2, r8]
   18f08:	ea06 0603 	and.w	r6, r6, r3
   18f0c:	f04f 0500 	mov.w	r5, #0
   18f10:	1b2d      	subs	r5, r5, r4
   18f12:	f851 5008 	ldr.w	r5, [r1, r8]
   18f16:	41b5      	sbcs	r5, r6
   18f18:	41a4      	sbcs	r4, r4
   18f1a:	f840 5008 	str.w	r5, [r0, r8]
   18f1e:	f108 0804 	add.w	r8, r8, #4
   18f22:	45c8      	cmp	r8, r9
   18f24:	dbee      	blt.n	18f04 <sp_3072_cond_sub_96.isra.0+0x18>
   18f26:	e8bd 8370 	ldmia.w	sp!, {r4, r5, r6, r8, r9, pc}

00018f2a <sp_3072_mont_reduce_96>:
   18f2a:	e92d 4f70 	stmdb	sp!, {r4, r5, r6, r8, r9, sl, fp, lr}
   18f2e:	2300      	movs	r3, #0
   18f30:	4691      	mov	r9, r2
   18f32:	468c      	mov	ip, r1
   18f34:	4682      	mov	sl, r0
   18f36:	f04f 0400 	mov.w	r4, #0
   18f3a:	f50a 7bc0 	add.w	fp, sl, #384	; 0x180
   18f3e:	464a      	mov	r2, r9
   18f40:	f8da 0000 	ldr.w	r0, [sl]
   18f44:	fb02 f200 	mul.w	r2, r2, r0
   18f48:	4661      	mov	r1, ip
   18f4a:	f50a 7ebc 	add.w	lr, sl, #376	; 0x178
   18f4e:	f8da 0000 	ldr.w	r0, [sl]
   18f52:	f04f 0500 	mov.w	r5, #0
   18f56:	f851 8b04 	ldr.w	r8, [r1], #4
   18f5a:	fba2 6808 	umull	r6, r8, r2, r8
   18f5e:	1980      	adds	r0, r0, r6
   18f60:	eb45 0508 	adc.w	r5, r5, r8
   18f64:	1824      	adds	r4, r4, r0
   18f66:	f145 0500 	adc.w	r5, r5, #0
   18f6a:	f84a 4b04 	str.w	r4, [sl], #4
   18f6e:	f8da 0000 	ldr.w	r0, [sl]
   18f72:	f04f 0400 	mov.w	r4, #0
   18f76:	f851 8b04 	ldr.w	r8, [r1], #4
   18f7a:	fba2 6808 	umull	r6, r8, r2, r8
   18f7e:	1980      	adds	r0, r0, r6
   18f80:	eb44 0408 	adc.w	r4, r4, r8
   18f84:	182d      	adds	r5, r5, r0
   18f86:	f144 0400 	adc.w	r4, r4, #0
   18f8a:	f84a 5b04 	str.w	r5, [sl], #4
   18f8e:	45f2      	cmp	sl, lr
   18f90:	dbdd      	blt.n	18f4e <sp_3072_mont_reduce_96+0x24>
   18f92:	f8da 0000 	ldr.w	r0, [sl]
   18f96:	f04f 0500 	mov.w	r5, #0
   18f9a:	f851 8b04 	ldr.w	r8, [r1], #4
   18f9e:	fba2 6808 	umull	r6, r8, r2, r8
   18fa2:	1980      	adds	r0, r0, r6
   18fa4:	eb45 0508 	adc.w	r5, r5, r8
   18fa8:	1824      	adds	r4, r4, r0
   18faa:	f145 0500 	adc.w	r5, r5, #0
   18fae:	f84a 4b04 	str.w	r4, [sl], #4
   18fb2:	461c      	mov	r4, r3
   18fb4:	f04f 0300 	mov.w	r3, #0
   18fb8:	f8d1 8000 	ldr.w	r8, [r1]
   18fbc:	fba2 6808 	umull	r6, r8, r2, r8
   18fc0:	19ad      	adds	r5, r5, r6
   18fc2:	eb54 0408 	adcs.w	r4, r4, r8
   18fc6:	f143 0300 	adc.w	r3, r3, #0
   18fca:	f8da 6000 	ldr.w	r6, [sl]
   18fce:	f8da 8004 	ldr.w	r8, [sl, #4]
   18fd2:	1976      	adds	r6, r6, r5
   18fd4:	eb58 0804 	adcs.w	r8, r8, r4
   18fd8:	f143 0300 	adc.w	r3, r3, #0
   18fdc:	f8ca 6000 	str.w	r6, [sl]
   18fe0:	f8ca 8004 	str.w	r8, [sl, #4]
   18fe4:	f5aa 7abc 	sub.w	sl, sl, #376	; 0x178
   18fe8:	45da      	cmp	sl, fp
   18fea:	dba8      	blt.n	18f3e <sp_3072_mont_reduce_96+0x14>
   18fec:	4650      	mov	r0, sl
   18fee:	4661      	mov	r1, ip
   18ff0:	460a      	mov	r2, r1
   18ff2:	425b      	negs	r3, r3
   18ff4:	4601      	mov	r1, r0
   18ff6:	e8bd 4f70 	ldmia.w	sp!, {r4, r5, r6, r8, r9, sl, fp, lr}
   18ffa:	f5a0 70c0 	sub.w	r0, r0, #384	; 0x180
   18ffe:	f7ff bf75 	b.w	18eec <sp_3072_cond_sub_96.isra.0>

00019002 <sp_3072_mont_sqr_96>:
   19002:	b513      	push	{r0, r1, r4, lr}
   19004:	4614      	mov	r4, r2
   19006:	9301      	str	r3, [sp, #4]
   19008:	f7ff fb62 	bl	186d0 <sp_3072_sqr_96>
   1900c:	9a01      	ldr	r2, [sp, #4]
   1900e:	4621      	mov	r1, r4
   19010:	b002      	add	sp, #8
   19012:	e8bd 4010 	ldmia.w	sp!, {r4, lr}
   19016:	f7ff bf88 	b.w	18f2a <sp_3072_mont_reduce_96>

0001901a <sp_3072_mont_mul_96>:
   1901a:	b570      	push	{r4, r5, r6, lr}
   1901c:	4604      	mov	r4, r0
   1901e:	461d      	mov	r5, r3
   19020:	9e04      	ldr	r6, [sp, #16]
   19022:	f7ff fdf8 	bl	18c16 <sp_3072_mul_96>
   19026:	4629      	mov	r1, r5
   19028:	4620      	mov	r0, r4
   1902a:	4632      	mov	r2, r6
   1902c:	e8bd 4070 	ldmia.w	sp!, {r4, r5, r6, lr}
   19030:	f7ff bf7b 	b.w	18f2a <sp_3072_mont_reduce_96>

00019034 <sp_3072_cond_sub_48.isra.0>:
   19034:	e92d 4370 	stmdb	sp!, {r4, r5, r6, r8, r9, lr}
   19038:	2400      	movs	r4, #0
   1903a:	f04f 05c0 	mov.w	r5, #192	; 0xc0
   1903e:	46a9      	mov	r9, r5
   19040:	f04f 0800 	mov.w	r8, #0
   19044:	f852 6008 	ldr.w	r6, [r2, r8]
   19048:	ea06 0603 	and.w	r6, r6, r3
   1904c:	f04f 0500 	mov.w	r5, #0
   19050:	1b2d      	subs	r5, r5, r4
   19052:	f851 5008 	ldr.w	r5, [r1, r8]
   19056:	41b5      	sbcs	r5, r6
   19058:	41a4      	sbcs	r4, r4
   1905a:	f840 5008 	str.w	r5, [r0, r8]
   1905e:	f108 0804 	add.w	r8, r8, #4
   19062:	45c8      	cmp	r8, r9
   19064:	dbee      	blt.n	19044 <sp_3072_cond_sub_48.isra.0+0x10>
   19066:	e8bd 8370 	ldmia.w	sp!, {r4, r5, r6, r8, r9, pc}

0001906a <sp_3072_mont_reduce_48>:
   1906a:	e92d 4f70 	stmdb	sp!, {r4, r5, r6, r8, r9, sl, fp, lr}
   1906e:	2300      	movs	r3, #0
   19070:	4691      	mov	r9, r2
   19072:	468c      	mov	ip, r1
   19074:	4682      	mov	sl, r0
   19076:	f04f 0400 	mov.w	r4, #0
   1907a:	f10a 0bc0 	add.w	fp, sl, #192	; 0xc0
   1907e:	464a      	mov	r2, r9
   19080:	f8da 0000 	ldr.w	r0, [sl]
   19084:	fb02 f200 	mul.w	r2, r2, r0
   19088:	4661      	mov	r1, ip
   1908a:	f10a 0eb8 	add.w	lr, sl, #184	; 0xb8
   1908e:	f8da 0000 	ldr.w	r0, [sl]
   19092:	f04f 0500 	mov.w	r5, #0
   19096:	f851 8b04 	ldr.w	r8, [r1], #4
   1909a:	fba2 6808 	umull	r6, r8, r2, r8
   1909e:	1980      	adds	r0, r0, r6
   190a0:	eb45 0508 	adc.w	r5, r5, r8
   190a4:	1824      	adds	r4, r4, r0
   190a6:	f145 0500 	adc.w	r5, r5, #0
   190aa:	f84a 4b04 	str.w	r4, [sl], #4
   190ae:	f8da 0000 	ldr.w	r0, [sl]
   190b2:	f04f 0400 	mov.w	r4, #0
   190b6:	f851 8b04 	ldr.w	r8, [r1], #4
   190ba:	fba2 6808 	umull	r6, r8, r2, r8
   190be:	1980      	adds	r0, r0, r6
   190c0:	eb44 0408 	adc.w	r4, r4, r8
   190c4:	182d      	adds	r5, r5, r0
   190c6:	f144 0400 	adc.w	r4, r4, #0
   190ca:	f84a 5b04 	str.w	r5, [sl], #4
   190ce:	45f2      	cmp	sl, lr
   190d0:	dbdd      	blt.n	1908e <sp_3072_mont_reduce_48+0x24>
   190d2:	f8da 0000 	ldr.w	r0, [sl]
   190d6:	f04f 0500 	mov.w	r5, #0
   190da:	f851 8b04 	ldr.w	r8, [r1], #4
   190de:	fba2 6808 	umull	r6, r8, r2, r8
   190e2:	1980      	adds	r0, r0, r6
   190e4:	eb45 0508 	adc.w	r5, r5, r8
   190e8:	1824      	adds	r4, r4, r0
   190ea:	f145 0500 	adc.w	r5, r5, #0
   190ee:	f84a 4b04 	str.w	r4, [sl], #4
   190f2:	461c      	mov	r4, r3
   190f4:	f04f 0300 	mov.w	r3, #0
   190f8:	f8d1 8000 	ldr.w	r8, [r1]
   190fc:	fba2 6808 	umull	r6, r8, r2, r8
   19100:	19ad      	adds	r5, r5, r6
   19102:	eb54 0408 	adcs.w	r4, r4, r8
   19106:	f143 0300 	adc.w	r3, r3, #0
   1910a:	f8da 6000 	ldr.w	r6, [sl]
   1910e:	f8da 8004 	ldr.w	r8, [sl, #4]
   19112:	1976      	adds	r6, r6, r5
   19114:	eb58 0804 	adcs.w	r8, r8, r4
   19118:	f143 0300 	adc.w	r3, r3, #0
   1911c:	f8ca 6000 	str.w	r6, [sl]
   19120:	f8ca 8004 	str.w	r8, [sl, #4]
   19124:	f1aa 0ab8 	sub.w	sl, sl, #184	; 0xb8
   19128:	45da      	cmp	sl, fp
   1912a:	dba8      	blt.n	1907e <sp_3072_mont_reduce_48+0x14>
   1912c:	4650      	mov	r0, sl
   1912e:	4661      	mov	r1, ip
   19130:	460a      	mov	r2, r1
   19132:	425b      	negs	r3, r3
   19134:	4601      	mov	r1, r0
   19136:	e8bd 4f70 	ldmia.w	sp!, {r4, r5, r6, r8, r9, sl, fp, lr}
   1913a:	38c0      	subs	r0, #192	; 0xc0
   1913c:	f7ff bf7a 	b.w	19034 <sp_3072_cond_sub_48.isra.0>

00019140 <sp_3072_mont_sqr_48>:
   19140:	b513      	push	{r0, r1, r4, lr}
   19142:	4614      	mov	r4, r2
   19144:	9301      	str	r3, [sp, #4]
   19146:	f7ff fb7c 	bl	18842 <sp_3072_sqr_48>
   1914a:	9a01      	ldr	r2, [sp, #4]
   1914c:	4621      	mov	r1, r4
   1914e:	b002      	add	sp, #8
   19150:	e8bd 4010 	ldmia.w	sp!, {r4, lr}
   19154:	f7ff bf89 	b.w	1906a <sp_3072_mont_reduce_48>

00019158 <sp_3072_mont_mul_48>:
   19158:	b570      	push	{r4, r5, r6, lr}
   1915a:	4604      	mov	r4, r0
   1915c:	461d      	mov	r5, r3
   1915e:	9e04      	ldr	r6, [sp, #16]
   19160:	f7ff fdb7 	bl	18cd2 <sp_3072_mul_48>
   19164:	4629      	mov	r1, r5
   19166:	4620      	mov	r0, r4
   19168:	4632      	mov	r2, r6
   1916a:	e8bd 4070 	ldmia.w	sp!, {r4, r5, r6, lr}
   1916e:	f7ff bf7c 	b.w	1906a <sp_3072_mont_reduce_48>

00019172 <sp_2048_sub_64.isra.0>:
   19172:	2300      	movs	r3, #0
   19174:	b570      	push	{r4, r5, r6, lr}
   19176:	460e      	mov	r6, r1
   19178:	f04f 0501 	mov.w	r5, #1
   1917c:	ea4f 2505 	mov.w	r5, r5, lsl #8
   19180:	442e      	add	r6, r5
   19182:	f04f 0500 	mov.w	r5, #0
   19186:	1aed      	subs	r5, r5, r3
   19188:	680c      	ldr	r4, [r1, #0]
   1918a:	6815      	ldr	r5, [r2, #0]
   1918c:	41ac      	sbcs	r4, r5
   1918e:	6004      	str	r4, [r0, #0]
   19190:	eb63 0303 	sbc.w	r3, r3, r3
   19194:	f101 0104 	add.w	r1, r1, #4
   19198:	f102 0204 	add.w	r2, r2, #4
   1919c:	f100 0004 	add.w	r0, r0, #4
   191a0:	42b1      	cmp	r1, r6
   191a2:	d1ee      	bne.n	19182 <sp_2048_sub_64.isra.0+0x10>
   191a4:	bd70      	pop	{r4, r5, r6, pc}

000191a6 <sp_2048_div_64_cond.constprop.0>:
   191a6:	e92d 43f0 	stmdb	sp!, {r4, r5, r6, r7, r8, r9, lr}
   191aa:	f5ad 7d43 	sub.w	sp, sp, #780	; 0x30c
   191ae:	460d      	mov	r5, r1
   191b0:	4617      	mov	r7, r2
   191b2:	4601      	mov	r1, r0
   191b4:	f44f 7200 	mov.w	r2, #512	; 0x200
   191b8:	a842      	add	r0, sp, #264	; 0x108
   191ba:	acc1      	add	r4, sp, #772	; 0x304
   191bc:	f04f 083f 	mov.w	r8, #63	; 0x3f
   191c0:	f8d5 90fc 	ldr.w	r9, [r5, #252]	; 0xfc
   191c4:	f7f7 e932 	blx	1042c <memcpy@plt>
   191c8:	6820      	ldr	r0, [r4, #0]
   191ca:	4626      	mov	r6, r4
   191cc:	3c04      	subs	r4, #4
   191ce:	4581      	cmp	r9, r0
   191d0:	d043      	beq.n	1925a <sp_2048_div_64_cond.constprop.0+0xb4>
   191d2:	464a      	mov	r2, r9
   191d4:	6821      	ldr	r1, [r4, #0]
   191d6:	f7ff f980 	bl	184da <div_2048_word_32>
   191da:	4602      	mov	r2, r0
   191dc:	4629      	mov	r1, r5
   191de:	a801      	add	r0, sp, #4
   191e0:	f5a6 7680 	sub.w	r6, r6, #256	; 0x100
   191e4:	f7ff f939 	bl	1845a <sp_2048_mul_d_64>
   191e8:	a901      	add	r1, sp, #4
   191ea:	4630      	mov	r0, r6
   191ec:	f7fe fff8 	bl	181e0 <sp_2048_sub_in_place_64>
   191f0:	6861      	ldr	r1, [r4, #4]
   191f2:	9b41      	ldr	r3, [sp, #260]	; 0x104
   191f4:	1ac9      	subs	r1, r1, r3
   191f6:	4401      	add	r1, r0
   191f8:	6061      	str	r1, [r4, #4]
   191fa:	b181      	cbz	r1, 1921e <sp_2048_div_64_cond.constprop.0+0x78>
   191fc:	462a      	mov	r2, r5
   191fe:	4631      	mov	r1, r6
   19200:	4630      	mov	r0, r6
   19202:	f7fe ffce 	bl	181a2 <sp_2048_add_64>
   19206:	6863      	ldr	r3, [r4, #4]
   19208:	4418      	add	r0, r3
   1920a:	6060      	str	r0, [r4, #4]
   1920c:	b138      	cbz	r0, 1921e <sp_2048_div_64_cond.constprop.0+0x78>
   1920e:	462a      	mov	r2, r5
   19210:	4631      	mov	r1, r6
   19212:	4630      	mov	r0, r6
   19214:	f7fe ffc5 	bl	181a2 <sp_2048_add_64>
   19218:	6863      	ldr	r3, [r4, #4]
   1921a:	4418      	add	r0, r3
   1921c:	6060      	str	r0, [r4, #4]
   1921e:	f1b8 0801 	subs.w	r8, r8, #1
   19222:	d2d1      	bcs.n	191c8 <sp_2048_div_64_cond.constprop.0+0x22>
   19224:	233f      	movs	r3, #63	; 0x3f
   19226:	aa42      	add	r2, sp, #264	; 0x108
   19228:	f852 1023 	ldr.w	r1, [r2, r3, lsl #2]
   1922c:	f855 2023 	ldr.w	r2, [r5, r3, lsl #2]
   19230:	4291      	cmp	r1, r2
   19232:	d101      	bne.n	19238 <sp_2048_div_64_cond.constprop.0+0x92>
   19234:	3b01      	subs	r3, #1
   19236:	d1f6      	bne.n	19226 <sp_2048_div_64_cond.constprop.0+0x80>
   19238:	aa42      	add	r2, sp, #264	; 0x108
   1923a:	f852 2023 	ldr.w	r2, [r2, r3, lsl #2]
   1923e:	f855 3023 	ldr.w	r3, [r5, r3, lsl #2]
   19242:	429a      	cmp	r2, r3
   19244:	d30c      	bcc.n	19260 <sp_2048_div_64_cond.constprop.0+0xba>
   19246:	462a      	mov	r2, r5
   19248:	a942      	add	r1, sp, #264	; 0x108
   1924a:	4638      	mov	r0, r7
   1924c:	f7ff ff91 	bl	19172 <sp_2048_sub_64.isra.0>
   19250:	2000      	movs	r0, #0
   19252:	f50d 7d43 	add.w	sp, sp, #780	; 0x30c
   19256:	e8bd 83f0 	ldmia.w	sp!, {r4, r5, r6, r7, r8, r9, pc}
   1925a:	f04f 32ff 	mov.w	r2, #4294967295
   1925e:	e7bd      	b.n	191dc <sp_2048_div_64_cond.constprop.0+0x36>
   19260:	f44f 7280 	mov.w	r2, #256	; 0x100
   19264:	a942      	add	r1, sp, #264	; 0x108
   19266:	4638      	mov	r0, r7
   19268:	f7f7 e8e0 	blx	1042c <memcpy@plt>
   1926c:	e7f0      	b.n	19250 <sp_2048_div_64_cond.constprop.0+0xaa>

0001926e <sp_2048_cond_sub_64.isra.0>:
   1926e:	e92d 4370 	stmdb	sp!, {r4, r5, r6, r8, r9, lr}
   19272:	2400      	movs	r4, #0
   19274:	f04f 0501 	mov.w	r5, #1
   19278:	ea4f 2505 	mov.w	r5, r5, lsl #8
   1927c:	46a9      	mov	r9, r5
   1927e:	f04f 0800 	mov.w	r8, #0
   19282:	f852 6008 	ldr.w	r6, [r2, r8]
   19286:	ea06 0603 	and.w	r6, r6, r3
   1928a:	f04f 0500 	mov.w	r5, #0
   1928e:	1b2d      	subs	r5, r5, r4
   19290:	f851 5008 	ldr.w	r5, [r1, r8]
   19294:	41b5      	sbcs	r5, r6
   19296:	41a4      	sbcs	r4, r4
   19298:	f840 5008 	str.w	r5, [r0, r8]
   1929c:	f108 0804 	add.w	r8, r8, #4
   192a0:	45c8      	cmp	r8, r9
   192a2:	dbee      	blt.n	19282 <sp_2048_cond_sub_64.isra.0+0x14>
   192a4:	e8bd 8370 	ldmia.w	sp!, {r4, r5, r6, r8, r9, pc}

000192a8 <sp_2048_mont_reduce_64>:
   192a8:	e92d 4f70 	stmdb	sp!, {r4, r5, r6, r8, r9, sl, fp, lr}
   192ac:	2300      	movs	r3, #0
   192ae:	4691      	mov	r9, r2
   192b0:	468c      	mov	ip, r1
   192b2:	4682      	mov	sl, r0
   192b4:	f04f 0400 	mov.w	r4, #0
   192b8:	f50a 7b80 	add.w	fp, sl, #256	; 0x100
   192bc:	464a      	mov	r2, r9
   192be:	f8da 0000 	ldr.w	r0, [sl]
   192c2:	fb02 f200 	mul.w	r2, r2, r0
   192c6:	4661      	mov	r1, ip
   192c8:	f10a 0ef8 	add.w	lr, sl, #248	; 0xf8
   192cc:	f8da 0000 	ldr.w	r0, [sl]
   192d0:	f04f 0500 	mov.w	r5, #0
   192d4:	f851 8b04 	ldr.w	r8, [r1], #4
   192d8:	fba2 6808 	umull	r6, r8, r2, r8
   192dc:	1980      	adds	r0, r0, r6
   192de:	eb45 0508 	adc.w	r5, r5, r8
   192e2:	1824      	adds	r4, r4, r0
   192e4:	f145 0500 	adc.w	r5, r5, #0
   192e8:	f84a 4b04 	str.w	r4, [sl], #4
   192ec:	f8da 0000 	ldr.w	r0, [sl]
   192f0:	f04f 0400 	mov.w	r4, #0
   192f4:	f851 8b04 	ldr.w	r8, [r1], #4
   192f8:	fba2 6808 	umull	r6, r8, r2, r8
   192fc:	1980      	adds	r0, r0, r6
   192fe:	eb44 0408 	adc.w	r4, r4, r8
   19302:	182d      	adds	r5, r5, r0
   19304:	f144 0400 	adc.w	r4, r4, #0
   19308:	f84a 5b04 	str.w	r5, [sl], #4
   1930c:	45f2      	cmp	sl, lr
   1930e:	dbdd      	blt.n	192cc <sp_2048_mont_reduce_64+0x24>
   19310:	f8da 0000 	ldr.w	r0, [sl]
   19314:	f04f 0500 	mov.w	r5, #0
   19318:	f851 8b04 	ldr.w	r8, [r1], #4
   1931c:	fba2 6808 	umull	r6, r8, r2, r8
   19320:	1980      	adds	r0, r0, r6
   19322:	eb45 0508 	adc.w	r5, r5, r8
   19326:	1824      	adds	r4, r4, r0
   19328:	f145 0500 	adc.w	r5, r5, #0
   1932c:	f84a 4b04 	str.w	r4, [sl], #4
   19330:	461c      	mov	r4, r3
   19332:	f04f 0300 	mov.w	r3, #0
   19336:	f8d1 8000 	ldr.w	r8, [r1]
   1933a:	fba2 6808 	umull	r6, r8, r2, r8
   1933e:	19ad      	adds	r5, r5, r6
   19340:	eb54 0408 	adcs.w	r4, r4, r8
   19344:	f143 0300 	adc.w	r3, r3, #0
   19348:	f8da 6000 	ldr.w	r6, [sl]
   1934c:	f8da 8004 	ldr.w	r8, [sl, #4]
   19350:	1976      	adds	r6, r6, r5
   19352:	eb58 0804 	adcs.w	r8, r8, r4
   19356:	f143 0300 	adc.w	r3, r3, #0
   1935a:	f8ca 6000 	str.w	r6, [sl]
   1935e:	f8ca 8004 	str.w	r8, [sl, #4]
   19362:	f1aa 0af8 	sub.w	sl, sl, #248	; 0xf8
   19366:	45da      	cmp	sl, fp
   19368:	dba8      	blt.n	192bc <sp_2048_mont_reduce_64+0x14>
   1936a:	4650      	mov	r0, sl
   1936c:	4661      	mov	r1, ip
   1936e:	460a      	mov	r2, r1
   19370:	425b      	negs	r3, r3
   19372:	4601      	mov	r1, r0
   19374:	e8bd 4f70 	ldmia.w	sp!, {r4, r5, r6, r8, r9, sl, fp, lr}
   19378:	f5a0 7080 	sub.w	r0, r0, #256	; 0x100
   1937c:	f7ff bf77 	b.w	1926e <sp_2048_cond_sub_64.isra.0>

00019380 <sp_2048_mont_sqr_64>:
   19380:	b513      	push	{r0, r1, r4, lr}
   19382:	4614      	mov	r4, r2
   19384:	9301      	str	r3, [sp, #4]
   19386:	f7fe ff47 	bl	18218 <sp_2048_sqr_64>
   1938a:	9a01      	ldr	r2, [sp, #4]
   1938c:	4621      	mov	r1, r4
   1938e:	b002      	add	sp, #8
   19390:	e8bd 4010 	ldmia.w	sp!, {r4, lr}
   19394:	f7ff bf88 	b.w	192a8 <sp_2048_mont_reduce_64>

00019398 <sp_2048_mont_mul_64>:
   19398:	b570      	push	{r4, r5, r6, lr}
   1939a:	4604      	mov	r4, r0
   1939c:	461d      	mov	r5, r3
   1939e:	9e04      	ldr	r6, [sp, #16]
   193a0:	f7ff fb91 	bl	18ac6 <sp_2048_mul_64>
   193a4:	4629      	mov	r1, r5
   193a6:	4620      	mov	r0, r4
   193a8:	4632      	mov	r2, r6
   193aa:	e8bd 4070 	ldmia.w	sp!, {r4, r5, r6, lr}
   193ae:	f7ff bf7b 	b.w	192a8 <sp_2048_mont_reduce_64>

000193b2 <sp_2048_cond_sub_32.isra.0>:
   193b2:	e92d 4370 	stmdb	sp!, {r4, r5, r6, r8, r9, lr}
   193b6:	2400      	movs	r4, #0
   193b8:	f04f 0580 	mov.w	r5, #128	; 0x80
   193bc:	46a9      	mov	r9, r5
   193be:	f04f 0800 	mov.w	r8, #0
   193c2:	f852 6008 	ldr.w	r6, [r2, r8]
   193c6:	ea06 0603 	and.w	r6, r6, r3
   193ca:	f04f 0500 	mov.w	r5, #0
   193ce:	1b2d      	subs	r5, r5, r4
   193d0:	f851 5008 	ldr.w	r5, [r1, r8]
   193d4:	41b5      	sbcs	r5, r6
   193d6:	41a4      	sbcs	r4, r4
   193d8:	f840 5008 	str.w	r5, [r0, r8]
   193dc:	f108 0804 	add.w	r8, r8, #4
   193e0:	45c8      	cmp	r8, r9
   193e2:	dbee      	blt.n	193c2 <sp_2048_cond_sub_32.isra.0+0x10>
   193e4:	e8bd 8370 	ldmia.w	sp!, {r4, r5, r6, r8, r9, pc}

000193e8 <sp_2048_mont_reduce_32>:
   193e8:	e92d 4f70 	stmdb	sp!, {r4, r5, r6, r8, r9, sl, fp, lr}
   193ec:	2300      	movs	r3, #0
   193ee:	4691      	mov	r9, r2
   193f0:	468c      	mov	ip, r1
   193f2:	4682      	mov	sl, r0
   193f4:	f04f 0400 	mov.w	r4, #0
   193f8:	f10a 0b80 	add.w	fp, sl, #128	; 0x80
   193fc:	464a      	mov	r2, r9
   193fe:	f8da 0000 	ldr.w	r0, [sl]
   19402:	fb02 f200 	mul.w	r2, r2, r0
   19406:	4661      	mov	r1, ip
   19408:	f10a 0e78 	add.w	lr, sl, #120	; 0x78
   1940c:	f8da 0000 	ldr.w	r0, [sl]
   19410:	f04f 0500 	mov.w	r5, #0
   19414:	f851 8b04 	ldr.w	r8, [r1], #4
   19418:	fba2 6808 	umull	r6, r8, r2, r8
   1941c:	1980      	adds	r0, r0, r6
   1941e:	eb45 0508 	adc.w	r5, r5, r8
   19422:	1824      	adds	r4, r4, r0
   19424:	f145 0500 	adc.w	r5, r5, #0
   19428:	f84a 4b04 	str.w	r4, [sl], #4
   1942c:	f8da 0000 	ldr.w	r0, [sl]
   19430:	f04f 0400 	mov.w	r4, #0
   19434:	f851 8b04 	ldr.w	r8, [r1], #4
   19438:	fba2 6808 	umull	r6, r8, r2, r8
   1943c:	1980      	adds	r0, r0, r6
   1943e:	eb44 0408 	adc.w	r4, r4, r8
   19442:	182d      	adds	r5, r5, r0
   19444:	f144 0400 	adc.w	r4, r4, #0
   19448:	f84a 5b04 	str.w	r5, [sl], #4
   1944c:	45f2      	cmp	sl, lr
   1944e:	dbdd      	blt.n	1940c <sp_2048_mont_reduce_32+0x24>
   19450:	f8da 0000 	ldr.w	r0, [sl]
   19454:	f04f 0500 	mov.w	r5, #0
   19458:	f851 8b04 	ldr.w	r8, [r1], #4
   1945c:	fba2 6808 	umull	r6, r8, r2, r8
   19460:	1980      	adds	r0, r0, r6
   19462:	eb45 0508 	adc.w	r5, r5, r8
   19466:	1824      	adds	r4, r4, r0
   19468:	f145 0500 	adc.w	r5, r5, #0
   1946c:	f84a 4b04 	str.w	r4, [sl], #4
   19470:	461c      	mov	r4, r3
   19472:	f04f 0300 	mov.w	r3, #0
   19476:	f8d1 8000 	ldr.w	r8, [r1]
   1947a:	fba2 6808 	umull	r6, r8, r2, r8
   1947e:	19ad      	adds	r5, r5, r6
   19480:	eb54 0408 	adcs.w	r4, r4, r8
   19484:	f143 0300 	adc.w	r3, r3, #0
   19488:	f8da 6000 	ldr.w	r6, [sl]
   1948c:	f8da 8004 	ldr.w	r8, [sl, #4]
   19490:	1976      	adds	r6, r6, r5
   19492:	eb58 0804 	adcs.w	r8, r8, r4
   19496:	f143 0300 	adc.w	r3, r3, #0
   1949a:	f8ca 6000 	str.w	r6, [sl]
   1949e:	f8ca 8004 	str.w	r8, [sl, #4]
   194a2:	f1aa 0a78 	sub.w	sl, sl, #120	; 0x78
   194a6:	45da      	cmp	sl, fp
   194a8:	dba8      	blt.n	193fc <sp_2048_mont_reduce_32+0x14>
   194aa:	4650      	mov	r0, sl
   194ac:	4661      	mov	r1, ip
   194ae:	460a      	mov	r2, r1
   194b0:	425b      	negs	r3, r3
   194b2:	4601      	mov	r1, r0
   194b4:	e8bd 4f70 	ldmia.w	sp!, {r4, r5, r6, r8, r9, sl, fp, lr}
   194b8:	3880      	subs	r0, #128	; 0x80
   194ba:	f7ff bf7a 	b.w	193b2 <sp_2048_cond_sub_32.isra.0>

000194be <sp_2048_mont_sqr_32>:
   194be:	b513      	push	{r0, r1, r4, lr}
   194c0:	4614      	mov	r4, r2
   194c2:	9301      	str	r3, [sp, #4]
   194c4:	f7fe ff5b 	bl	1837e <sp_2048_sqr_32>
   194c8:	9a01      	ldr	r2, [sp, #4]
   194ca:	4621      	mov	r1, r4
   194cc:	b002      	add	sp, #8
   194ce:	e8bd 4010 	ldmia.w	sp!, {r4, lr}
   194d2:	f7ff bf89 	b.w	193e8 <sp_2048_mont_reduce_32>

000194d6 <sp_2048_mont_mul_32>:
   194d6:	b570      	push	{r4, r5, r6, lr}
   194d8:	4604      	mov	r4, r0
   194da:	461d      	mov	r5, r3
   194dc:	9e04      	ldr	r6, [sp, #16]
   194de:	f7ff fb4a 	bl	18b76 <sp_2048_mul_32>
   194e2:	4629      	mov	r1, r5
   194e4:	4620      	mov	r0, r4
   194e6:	4632      	mov	r2, r6
   194e8:	e8bd 4070 	ldmia.w	sp!, {r4, r5, r6, lr}
   194ec:	f7ff bf7c 	b.w	193e8 <sp_2048_mont_reduce_32>

000194f0 <sp_2048_mont_setup.isra.0>:
   194f0:	1c83      	adds	r3, r0, #2
   194f2:	005b      	lsls	r3, r3, #1
   194f4:	f003 0308 	and.w	r3, r3, #8
   194f8:	4403      	add	r3, r0
   194fa:	fb00 f203 	mul.w	r2, r0, r3
   194fe:	f1c2 0202 	rsb	r2, r2, #2
   19502:	4353      	muls	r3, r2
   19504:	fb00 f203 	mul.w	r2, r0, r3
   19508:	f1c2 0202 	rsb	r2, r2, #2
   1950c:	4353      	muls	r3, r2
   1950e:	4358      	muls	r0, r3
   19510:	3802      	subs	r0, #2
   19512:	4343      	muls	r3, r0
   19514:	600b      	str	r3, [r1, #0]
   19516:	4770      	bx	lr

00019518 <sp_3072_div_96.constprop.0>:
   19518:	e92d 4ff0 	stmdb	sp!, {r4, r5, r6, r7, r8, r9, sl, fp, lr}
   1951c:	f2ad 4d94 	subw	sp, sp, #1172	; 0x494
   19520:	460d      	mov	r5, r1
   19522:	4690      	mov	r8, r2
   19524:	4601      	mov	r1, r0
   19526:	f44f 7240 	mov.w	r2, #768	; 0x300
   1952a:	a864      	add	r0, sp, #400	; 0x190
   1952c:	f20d 448c 	addw	r4, sp, #1164	; 0x48c
   19530:	f04f 095f 	mov.w	r9, #95	; 0x5f
   19534:	f8d5 a17c 	ldr.w	sl, [r5, #380]	; 0x17c
   19538:	f505 7bbe 	add.w	fp, r5, #380	; 0x17c
   1953c:	f7f6 ef76 	blx	1042c <memcpy@plt>
   19540:	6820      	ldr	r0, [r4, #0]
   19542:	4652      	mov	r2, sl
   19544:	f5a4 76c0 	sub.w	r6, r4, #384	; 0x180
   19548:	1f2f      	subs	r7, r5, #4
   1954a:	f854 1d04 	ldr.w	r1, [r4, #-4]!
   1954e:	4582      	cmp	sl, r0
   19550:	bf08      	it	eq
   19552:	3801      	subeq	r0, #1
   19554:	f7fe ffc1 	bl	184da <div_2048_word_32>
   19558:	4602      	mov	r2, r0
   1955a:	4629      	mov	r1, r5
   1955c:	a803      	add	r0, sp, #12
   1955e:	f7ff f9ea 	bl	18936 <sp_3072_mul_d_96>
   19562:	a903      	add	r1, sp, #12
   19564:	4630      	mov	r0, r6
   19566:	f7ff f897 	bl	18698 <sp_3072_sub_in_place_96>
   1956a:	9b63      	ldr	r3, [sp, #396]	; 0x18c
   1956c:	463a      	mov	r2, r7
   1956e:	1ac0      	subs	r0, r0, r3
   19570:	6863      	ldr	r3, [r4, #4]
   19572:	4418      	add	r0, r3
   19574:	ab03      	add	r3, sp, #12
   19576:	469c      	mov	ip, r3
   19578:	6060      	str	r0, [r4, #4]
   1957a:	f852 1f04 	ldr.w	r1, [r2, #4]!
   1957e:	4001      	ands	r1, r0
   19580:	455a      	cmp	r2, fp
   19582:	f84c 1b04 	str.w	r1, [ip], #4
   19586:	d1f8      	bne.n	1957a <sp_3072_div_96.constprop.0+0x62>
   19588:	aa03      	add	r2, sp, #12
   1958a:	4631      	mov	r1, r6
   1958c:	9301      	str	r3, [sp, #4]
   1958e:	4630      	mov	r0, r6
   19590:	f7ff f863 	bl	1865a <sp_3072_add_96>
   19594:	6862      	ldr	r2, [r4, #4]
   19596:	9b01      	ldr	r3, [sp, #4]
   19598:	4410      	add	r0, r2
   1959a:	6060      	str	r0, [r4, #4]
   1959c:	f857 2f04 	ldr.w	r2, [r7, #4]!
   195a0:	4002      	ands	r2, r0
   195a2:	455f      	cmp	r7, fp
   195a4:	f843 2b04 	str.w	r2, [r3], #4
   195a8:	d1f8      	bne.n	1959c <sp_3072_div_96.constprop.0+0x84>
   195aa:	aa03      	add	r2, sp, #12
   195ac:	4631      	mov	r1, r6
   195ae:	4630      	mov	r0, r6
   195b0:	f109 39ff 	add.w	r9, r9, #4294967295
   195b4:	f7ff f851 	bl	1865a <sp_3072_add_96>
   195b8:	6863      	ldr	r3, [r4, #4]
   195ba:	f1b9 3fff 	cmp.w	r9, #4294967295
   195be:	4418      	add	r0, r3
   195c0:	6060      	str	r0, [r4, #4]
   195c2:	d1bd      	bne.n	19540 <sp_3072_div_96.constprop.0+0x28>
   195c4:	4629      	mov	r1, r5
   195c6:	a864      	add	r0, sp, #400	; 0x190
   195c8:	f7ff fa1f 	bl	18a0a <sp_3072_cmp_96>
   195cc:	43c0      	mvns	r0, r0
   195ce:	462a      	mov	r2, r5
   195d0:	0fc0      	lsrs	r0, r0, #31
   195d2:	a964      	add	r1, sp, #400	; 0x190
   195d4:	4243      	negs	r3, r0
   195d6:	4640      	mov	r0, r8
   195d8:	f7ff fc88 	bl	18eec <sp_3072_cond_sub_96.isra.0>
   195dc:	2000      	movs	r0, #0
   195de:	f20d 4d94 	addw	sp, sp, #1172	; 0x494
   195e2:	e8bd 8ff0 	ldmia.w	sp!, {r4, r5, r6, r7, r8, r9, sl, fp, pc}

000195e6 <sp_3072_mod_exp_96.constprop.0>:
   195e6:	e92d 4ff0 	stmdb	sp!, {r4, r5, r6, r7, r8, r9, sl, fp, lr}
   195ea:	b08f      	sub	sp, #60	; 0x3c
   195ec:	461e      	mov	r6, r3
   195ee:	2301      	movs	r3, #1
   195f0:	4605      	mov	r5, r0
   195f2:	4688      	mov	r8, r1
   195f4:	9c18      	ldr	r4, [sp, #96]	; 0x60
   195f6:	9203      	str	r2, [sp, #12]
   195f8:	9305      	str	r3, [sp, #20]
   195fa:	6823      	ldr	r3, [r4, #0]
   195fc:	07da      	lsls	r2, r3, #31
   195fe:	f140 8110 	bpl.w	19822 <sp_3072_mod_exp_96.constprop.0+0x23c>
   19602:	2e00      	cmp	r6, #0
   19604:	f000 810d 	beq.w	19822 <sp_3072_mod_exp_96.constprop.0+0x23c>
   19608:	f44f 50c0 	mov.w	r0, #6144	; 0x1800
   1960c:	f7f6 ef1a 	blx	10444 <malloc@plt>
   19610:	4607      	mov	r7, r0
   19612:	2800      	cmp	r0, #0
   19614:	f000 8108 	beq.w	19828 <sp_3072_mod_exp_96.constprop.0+0x242>
   19618:	4603      	mov	r3, r0
   1961a:	aa06      	add	r2, sp, #24
   1961c:	f500 51c0 	add.w	r1, r0, #6144	; 0x1800
   19620:	f842 3b04 	str.w	r3, [r2], #4
   19624:	f503 7340 	add.w	r3, r3, #768	; 0x300
   19628:	4299      	cmp	r1, r3
   1962a:	d1f9      	bne.n	19620 <sp_3072_mod_exp_96.constprop.0+0x3a>
   1962c:	a905      	add	r1, sp, #20
   1962e:	6820      	ldr	r0, [r4, #0]
   19630:	f7ff ff5e 	bl	194f0 <sp_2048_mont_setup.isra.0>
   19634:	f44f 72c0 	mov.w	r2, #384	; 0x180
   19638:	2100      	movs	r1, #0
   1963a:	4638      	mov	r0, r7
   1963c:	f7f6 ef14 	blx	10468 <memset@plt>
   19640:	4621      	mov	r1, r4
   19642:	4638      	mov	r0, r7
   19644:	f7ff f828 	bl	18698 <sp_3072_sub_in_place_96>
   19648:	f8dd 901c 	ldr.w	r9, [sp, #28]
   1964c:	f44f 72c0 	mov.w	r2, #384	; 0x180
   19650:	2100      	movs	r1, #0
   19652:	4648      	mov	r0, r9
   19654:	f7f6 ef08 	blx	10468 <memset@plt>
   19658:	f44f 72c0 	mov.w	r2, #384	; 0x180
   1965c:	4641      	mov	r1, r8
   1965e:	eb09 0002 	add.w	r0, r9, r2
   19662:	f7f6 eee4 	blx	1042c <memcpy@plt>
   19666:	464a      	mov	r2, r9
   19668:	4621      	mov	r1, r4
   1966a:	4648      	mov	r0, r9
   1966c:	f7ff ff54 	bl	19518 <sp_3072_div_96.constprop.0>
   19670:	4680      	mov	r8, r0
   19672:	2800      	cmp	r0, #0
   19674:	d17c      	bne.n	19770 <sp_3072_mod_exp_96.constprop.0+0x18a>
   19676:	4649      	mov	r1, r9
   19678:	4622      	mov	r2, r4
   1967a:	9b05      	ldr	r3, [sp, #20]
   1967c:	f8dd b020 	ldr.w	fp, [sp, #32]
   19680:	4658      	mov	r0, fp
   19682:	f7ff fcbe 	bl	19002 <sp_3072_mont_sqr_96>
   19686:	9b05      	ldr	r3, [sp, #20]
   19688:	464a      	mov	r2, r9
   1968a:	4659      	mov	r1, fp
   1968c:	f8dd a024 	ldr.w	sl, [sp, #36]	; 0x24
   19690:	9300      	str	r3, [sp, #0]
   19692:	4623      	mov	r3, r4
   19694:	4650      	mov	r0, sl
   19696:	f7ff fcc0 	bl	1901a <sp_3072_mont_mul_96>
   1969a:	4622      	mov	r2, r4
   1969c:	4659      	mov	r1, fp
   1969e:	9b05      	ldr	r3, [sp, #20]
   196a0:	f8dd 9028 	ldr.w	r9, [sp, #40]	; 0x28
   196a4:	4648      	mov	r0, r9
   196a6:	f7ff fcac 	bl	19002 <sp_3072_mont_sqr_96>
   196aa:	9b05      	ldr	r3, [sp, #20]
   196ac:	4651      	mov	r1, sl
   196ae:	465a      	mov	r2, fp
   196b0:	980b      	ldr	r0, [sp, #44]	; 0x2c
   196b2:	9300      	str	r3, [sp, #0]
   196b4:	4623      	mov	r3, r4
   196b6:	f7ff fcb0 	bl	1901a <sp_3072_mont_mul_96>
   196ba:	4651      	mov	r1, sl
   196bc:	4622      	mov	r2, r4
   196be:	9b05      	ldr	r3, [sp, #20]
   196c0:	980c      	ldr	r0, [sp, #48]	; 0x30
   196c2:	f7ff fc9e 	bl	19002 <sp_3072_mont_sqr_96>
   196c6:	9b05      	ldr	r3, [sp, #20]
   196c8:	4652      	mov	r2, sl
   196ca:	4649      	mov	r1, r9
   196cc:	980d      	ldr	r0, [sp, #52]	; 0x34
   196ce:	9300      	str	r3, [sp, #0]
   196d0:	4623      	mov	r3, r4
   196d2:	f7ff fca2 	bl	1901a <sp_3072_mont_mul_96>
   196d6:	2103      	movs	r1, #3
   196d8:	9b03      	ldr	r3, [sp, #12]
   196da:	1e72      	subs	r2, r6, #1
   196dc:	bf48      	it	mi
   196de:	f106 021e 	addmi.w	r2, r6, #30
   196e2:	fb96 f1f1 	sdiv	r1, r6, r1
   196e6:	1152      	asrs	r2, r2, #5
   196e8:	f853 9022 	ldr.w	r9, [r3, r2, lsl #2]
   196ec:	f016 031f 	ands.w	r3, r6, #31
   196f0:	ea4f 0082 	mov.w	r0, r2, lsl #2
   196f4:	bf08      	it	eq
   196f6:	2320      	moveq	r3, #32
   196f8:	f102 3aff 	add.w	sl, r2, #4294967295
   196fc:	eb01 0141 	add.w	r1, r1, r1, lsl #1
   19700:	1a76      	subs	r6, r6, r1
   19702:	1b9e      	subs	r6, r3, r6
   19704:	2e20      	cmp	r6, #32
   19706:	d03e      	beq.n	19786 <sp_3072_mod_exp_96.constprop.0+0x1a0>
   19708:	1c73      	adds	r3, r6, #1
   1970a:	d138      	bne.n	1977e <sp_3072_mod_exp_96.constprop.0+0x198>
   1970c:	f1a2 0a02 	sub.w	sl, r2, #2
   19710:	9a03      	ldr	r2, [sp, #12]
   19712:	ea4f 0349 	mov.w	r3, r9, lsl #1
   19716:	263f      	movs	r6, #63	; 0x3f
   19718:	b2db      	uxtb	r3, r3
   1971a:	4410      	add	r0, r2
   1971c:	f850 2c04 	ldr.w	r2, [r0, #-4]
   19720:	ea4f 0942 	mov.w	r9, r2, lsl #1
   19724:	aa0e      	add	r2, sp, #56	; 0x38
   19726:	4628      	mov	r0, r5
   19728:	eb02 0383 	add.w	r3, r2, r3, lsl #2
   1972c:	f44f 72c0 	mov.w	r2, #384	; 0x180
   19730:	f853 1c20 	ldr.w	r1, [r3, #-32]
   19734:	f7f6 ee7a 	blx	1042c <memcpy@plt>
   19738:	f1ba 0f00 	cmp.w	sl, #0
   1973c:	da2c      	bge.n	19798 <sp_3072_mod_exp_96.constprop.0+0x1b2>
   1973e:	2e02      	cmp	r6, #2
   19740:	dc69      	bgt.n	19816 <sp_3072_mod_exp_96.constprop.0+0x230>
   19742:	f44f 72c0 	mov.w	r2, #384	; 0x180
   19746:	2100      	movs	r1, #0
   19748:	18a8      	adds	r0, r5, r2
   1974a:	f7f6 ee8e 	blx	10468 <memset@plt>
   1974e:	4621      	mov	r1, r4
   19750:	4628      	mov	r0, r5
   19752:	9a05      	ldr	r2, [sp, #20]
   19754:	f7ff fbe9 	bl	18f2a <sp_3072_mont_reduce_96>
   19758:	4621      	mov	r1, r4
   1975a:	4628      	mov	r0, r5
   1975c:	f7ff f955 	bl	18a0a <sp_3072_cmp_96>
   19760:	43c0      	mvns	r0, r0
   19762:	4622      	mov	r2, r4
   19764:	0fc0      	lsrs	r0, r0, #31
   19766:	4629      	mov	r1, r5
   19768:	4243      	negs	r3, r0
   1976a:	4628      	mov	r0, r5
   1976c:	f7ff fbbe 	bl	18eec <sp_3072_cond_sub_96.isra.0>
   19770:	4638      	mov	r0, r7
   19772:	f7f6 ee50 	blx	10414 <free@plt>
   19776:	4640      	mov	r0, r8
   19778:	b00f      	add	sp, #60	; 0x3c
   1977a:	e8bd 8ff0 	ldmia.w	sp!, {r4, r5, r6, r7, r8, r9, sl, fp, pc}
   1977e:	b91e      	cbnz	r6, 19788 <sp_3072_mod_exp_96.constprop.0+0x1a2>
   19780:	fa5f f389 	uxtb.w	r3, r9
   19784:	e7ce      	b.n	19724 <sp_3072_mod_exp_96.constprop.0+0x13e>
   19786:	261d      	movs	r6, #29
   19788:	fa29 f306 	lsr.w	r3, r9, r6
   1978c:	f1c6 0220 	rsb	r2, r6, #32
   19790:	fa09 f902 	lsl.w	r9, r9, r2
   19794:	b2db      	uxtb	r3, r3
   19796:	e7c5      	b.n	19724 <sp_3072_mod_exp_96.constprop.0+0x13e>
   19798:	bb46      	cbnz	r6, 197ec <sp_3072_mod_exp_96.constprop.0+0x206>
   1979a:	9b03      	ldr	r3, [sp, #12]
   1979c:	261d      	movs	r6, #29
   1979e:	f853 302a 	ldr.w	r3, [r3, sl, lsl #2]
   197a2:	f10a 3aff 	add.w	sl, sl, #4294967295
   197a6:	ea4f 7b53 	mov.w	fp, r3, lsr #29
   197aa:	ea4f 09c3 	mov.w	r9, r3, lsl #3
   197ae:	4622      	mov	r2, r4
   197b0:	4629      	mov	r1, r5
   197b2:	9b05      	ldr	r3, [sp, #20]
   197b4:	4628      	mov	r0, r5
   197b6:	f7ff fc24 	bl	19002 <sp_3072_mont_sqr_96>
   197ba:	4622      	mov	r2, r4
   197bc:	4629      	mov	r1, r5
   197be:	9b05      	ldr	r3, [sp, #20]
   197c0:	4628      	mov	r0, r5
   197c2:	f7ff fc1e 	bl	19002 <sp_3072_mont_sqr_96>
   197c6:	4622      	mov	r2, r4
   197c8:	4629      	mov	r1, r5
   197ca:	9b05      	ldr	r3, [sp, #20]
   197cc:	4628      	mov	r0, r5
   197ce:	f7ff fc18 	bl	19002 <sp_3072_mont_sqr_96>
   197d2:	ab0e      	add	r3, sp, #56	; 0x38
   197d4:	4629      	mov	r1, r5
   197d6:	eb03 0b8b 	add.w	fp, r3, fp, lsl #2
   197da:	9b05      	ldr	r3, [sp, #20]
   197dc:	4628      	mov	r0, r5
   197de:	9300      	str	r3, [sp, #0]
   197e0:	4623      	mov	r3, r4
   197e2:	f85b 2c20 	ldr.w	r2, [fp, #-32]
   197e6:	f7ff fc18 	bl	1901a <sp_3072_mont_mul_96>
   197ea:	e7a5      	b.n	19738 <sp_3072_mod_exp_96.constprop.0+0x152>
   197ec:	2e02      	cmp	r6, #2
   197ee:	ea4f 7b59 	mov.w	fp, r9, lsr #29
   197f2:	dc10      	bgt.n	19816 <sp_3072_mod_exp_96.constprop.0+0x230>
   197f4:	9b03      	ldr	r3, [sp, #12]
   197f6:	f1c6 0903 	rsb	r9, r6, #3
   197fa:	361d      	adds	r6, #29
   197fc:	f853 302a 	ldr.w	r3, [r3, sl, lsl #2]
   19800:	f10a 3aff 	add.w	sl, sl, #4294967295
   19804:	fa23 f206 	lsr.w	r2, r3, r6
   19808:	fa03 f909 	lsl.w	r9, r3, r9
   1980c:	ea4b 0b02 	orr.w	fp, fp, r2
   19810:	fa5f fb8b 	uxtb.w	fp, fp
   19814:	e7cb      	b.n	197ae <sp_3072_mod_exp_96.constprop.0+0x1c8>
   19816:	ea4f 7b59 	mov.w	fp, r9, lsr #29
   1981a:	3e03      	subs	r6, #3
   1981c:	ea4f 09c9 	mov.w	r9, r9, lsl #3
   19820:	e7c5      	b.n	197ae <sp_3072_mod_exp_96.constprop.0+0x1c8>
   19822:	f06f 0802 	mvn.w	r8, #2
   19826:	e7a6      	b.n	19776 <sp_3072_mod_exp_96.constprop.0+0x190>
   19828:	f06f 087c 	mvn.w	r8, #124	; 0x7c
   1982c:	e7a3      	b.n	19776 <sp_3072_mod_exp_96.constprop.0+0x190>

0001982e <sp_3072_div_48.constprop.0>:
   1982e:	e92d 4ff0 	stmdb	sp!, {r4, r5, r6, r7, r8, r9, sl, fp, lr}
   19832:	f5ad 7d15 	sub.w	sp, sp, #596	; 0x254
   19836:	460f      	mov	r7, r1
   19838:	460d      	mov	r5, r1
   1983a:	4691      	mov	r9, r2
   1983c:	4601      	mov	r1, r0
   1983e:	f44f 72c0 	mov.w	r2, #384	; 0x180
   19842:	a834      	add	r0, sp, #208	; 0xd0
   19844:	ac93      	add	r4, sp, #588	; 0x24c
   19846:	f857 bfbc 	ldr.w	fp, [r7, #188]!
   1984a:	f04f 0a2f 	mov.w	sl, #47	; 0x2f
   1984e:	f7f6 edee 	blx	1042c <memcpy@plt>
   19852:	6820      	ldr	r0, [r4, #0]
   19854:	465a      	mov	r2, fp
   19856:	f1a4 06c0 	sub.w	r6, r4, #192	; 0xc0
   1985a:	f1a5 0804 	sub.w	r8, r5, #4
   1985e:	f854 1d04 	ldr.w	r1, [r4, #-4]!
   19862:	4583      	cmp	fp, r0
   19864:	bf08      	it	eq
   19866:	3801      	subeq	r0, #1
   19868:	f7fe fe37 	bl	184da <div_2048_word_32>
   1986c:	4602      	mov	r2, r0
   1986e:	4629      	mov	r1, r5
   19870:	a803      	add	r0, sp, #12
   19872:	f7ff f880 	bl	18976 <sp_3072_mul_d_48>
   19876:	a903      	add	r1, sp, #12
   19878:	4630      	mov	r0, r6
   1987a:	f7fe ffc6 	bl	1880a <sp_3072_sub_in_place_48>
   1987e:	9b33      	ldr	r3, [sp, #204]	; 0xcc
   19880:	4642      	mov	r2, r8
   19882:	1ac0      	subs	r0, r0, r3
   19884:	6863      	ldr	r3, [r4, #4]
   19886:	4418      	add	r0, r3
   19888:	ab03      	add	r3, sp, #12
   1988a:	469c      	mov	ip, r3
   1988c:	6060      	str	r0, [r4, #4]
   1988e:	f852 1f04 	ldr.w	r1, [r2, #4]!
   19892:	4001      	ands	r1, r0
   19894:	42ba      	cmp	r2, r7
   19896:	f84c 1b04 	str.w	r1, [ip], #4
   1989a:	d1f8      	bne.n	1988e <sp_3072_div_48.constprop.0+0x60>
   1989c:	aa03      	add	r2, sp, #12
   1989e:	4631      	mov	r1, r6
   198a0:	9301      	str	r3, [sp, #4]
   198a2:	4630      	mov	r0, r6
   198a4:	f7fe ff92 	bl	187cc <sp_3072_add_48>
   198a8:	6862      	ldr	r2, [r4, #4]
   198aa:	9b01      	ldr	r3, [sp, #4]
   198ac:	4410      	add	r0, r2
   198ae:	6060      	str	r0, [r4, #4]
   198b0:	f858 2f04 	ldr.w	r2, [r8, #4]!
   198b4:	4002      	ands	r2, r0
   198b6:	45b8      	cmp	r8, r7
   198b8:	f843 2b04 	str.w	r2, [r3], #4
   198bc:	d1f8      	bne.n	198b0 <sp_3072_div_48.constprop.0+0x82>
   198be:	aa03      	add	r2, sp, #12
   198c0:	4631      	mov	r1, r6
   198c2:	4630      	mov	r0, r6
   198c4:	f10a 3aff 	add.w	sl, sl, #4294967295
   198c8:	f7fe ff80 	bl	187cc <sp_3072_add_48>
   198cc:	6863      	ldr	r3, [r4, #4]
   198ce:	f1ba 3fff 	cmp.w	sl, #4294967295
   198d2:	4418      	add	r0, r3
   198d4:	6060      	str	r0, [r4, #4]
   198d6:	d1bc      	bne.n	19852 <sp_3072_div_48.constprop.0+0x24>
   198d8:	4629      	mov	r1, r5
   198da:	a834      	add	r0, sp, #208	; 0xd0
   198dc:	f7ff f86b 	bl	189b6 <sp_3072_cmp_48>
   198e0:	43c0      	mvns	r0, r0
   198e2:	462a      	mov	r2, r5
   198e4:	0fc0      	lsrs	r0, r0, #31
   198e6:	a934      	add	r1, sp, #208	; 0xd0
   198e8:	4243      	negs	r3, r0
   198ea:	4648      	mov	r0, r9
   198ec:	f7ff fba2 	bl	19034 <sp_3072_cond_sub_48.isra.0>
   198f0:	2000      	movs	r0, #0
   198f2:	f50d 7d15 	add.w	sp, sp, #596	; 0x254
   198f6:	e8bd 8ff0 	ldmia.w	sp!, {r4, r5, r6, r7, r8, r9, sl, fp, pc}

000198fa <sp_3072_mod_exp_48>:
   198fa:	e92d 4ff0 	stmdb	sp!, {r4, r5, r6, r7, r8, r9, sl, fp, lr}
   198fe:	b099      	sub	sp, #100	; 0x64
   19900:	4605      	mov	r5, r0
   19902:	4689      	mov	r9, r1
   19904:	e9dd 4722 	ldrd	r4, r7, [sp, #136]	; 0x88
   19908:	e9cd 3204 	strd	r3, r2, [sp, #16]
   1990c:	2301      	movs	r3, #1
   1990e:	9307      	str	r3, [sp, #28]
   19910:	6823      	ldr	r3, [r4, #0]
   19912:	07db      	lsls	r3, r3, #31
   19914:	f140 816d 	bpl.w	19bf2 <sp_3072_mod_exp_48+0x2f8>
   19918:	9b04      	ldr	r3, [sp, #16]
   1991a:	2b00      	cmp	r3, #0
   1991c:	f000 8169 	beq.w	19bf2 <sp_3072_mod_exp_48+0x2f8>
   19920:	f44f 50c0 	mov.w	r0, #6144	; 0x1800
   19924:	f7f6 ed8e 	blx	10444 <malloc@plt>
   19928:	4603      	mov	r3, r0
   1992a:	9003      	str	r0, [sp, #12]
   1992c:	2800      	cmp	r0, #0
   1992e:	f000 8163 	beq.w	19bf8 <sp_3072_mod_exp_48+0x2fe>
   19932:	aa08      	add	r2, sp, #32
   19934:	f500 51c0 	add.w	r1, r0, #6144	; 0x1800
   19938:	f842 3b04 	str.w	r3, [r2], #4
   1993c:	f503 73c0 	add.w	r3, r3, #384	; 0x180
   19940:	4299      	cmp	r1, r3
   19942:	d1f9      	bne.n	19938 <sp_3072_mod_exp_48+0x3e>
   19944:	a907      	add	r1, sp, #28
   19946:	6820      	ldr	r0, [r4, #0]
   19948:	f7ff fdd2 	bl	194f0 <sp_2048_mont_setup.isra.0>
   1994c:	22c0      	movs	r2, #192	; 0xc0
   1994e:	2100      	movs	r1, #0
   19950:	9803      	ldr	r0, [sp, #12]
   19952:	f7f6 ed8a 	blx	10468 <memset@plt>
   19956:	4621      	mov	r1, r4
   19958:	9803      	ldr	r0, [sp, #12]
   1995a:	f7fe ff56 	bl	1880a <sp_3072_sub_in_place_48>
   1995e:	f8dd 8024 	ldr.w	r8, [sp, #36]	; 0x24
   19962:	22c0      	movs	r2, #192	; 0xc0
   19964:	2100      	movs	r1, #0
   19966:	4640      	mov	r0, r8
   19968:	f7f6 ed7e 	blx	10468 <memset@plt>
   1996c:	f108 00c0 	add.w	r0, r8, #192	; 0xc0
   19970:	2f00      	cmp	r7, #0
   19972:	f000 80df 	beq.w	19b34 <sp_3072_mod_exp_48+0x23a>
   19976:	4602      	mov	r2, r0
   19978:	4621      	mov	r1, r4
   1997a:	4648      	mov	r0, r9
   1997c:	f7ff ff57 	bl	1982e <sp_3072_div_48.constprop.0>
   19980:	4606      	mov	r6, r0
   19982:	2800      	cmp	r0, #0
   19984:	f040 80cf 	bne.w	19b26 <sp_3072_mod_exp_48+0x22c>
   19988:	4642      	mov	r2, r8
   1998a:	4621      	mov	r1, r4
   1998c:	4640      	mov	r0, r8
   1998e:	f7ff ff4e 	bl	1982e <sp_3072_div_48.constprop.0>
   19992:	4606      	mov	r6, r0
   19994:	2800      	cmp	r0, #0
   19996:	f040 80c6 	bne.w	19b26 <sp_3072_mod_exp_48+0x22c>
   1999a:	4641      	mov	r1, r8
   1999c:	4622      	mov	r2, r4
   1999e:	9b07      	ldr	r3, [sp, #28]
   199a0:	9f0a      	ldr	r7, [sp, #40]	; 0x28
   199a2:	4638      	mov	r0, r7
   199a4:	f7ff fbcc 	bl	19140 <sp_3072_mont_sqr_48>
   199a8:	9b07      	ldr	r3, [sp, #28]
   199aa:	4642      	mov	r2, r8
   199ac:	4639      	mov	r1, r7
   199ae:	f8dd b02c 	ldr.w	fp, [sp, #44]	; 0x2c
   199b2:	9300      	str	r3, [sp, #0]
   199b4:	4623      	mov	r3, r4
   199b6:	4658      	mov	r0, fp
   199b8:	f7ff fbce 	bl	19158 <sp_3072_mont_mul_48>
   199bc:	4639      	mov	r1, r7
   199be:	4622      	mov	r2, r4
   199c0:	9b07      	ldr	r3, [sp, #28]
   199c2:	f8dd a030 	ldr.w	sl, [sp, #48]	; 0x30
   199c6:	4650      	mov	r0, sl
   199c8:	f7ff fbba 	bl	19140 <sp_3072_mont_sqr_48>
   199cc:	9b07      	ldr	r3, [sp, #28]
   199ce:	463a      	mov	r2, r7
   199d0:	4659      	mov	r1, fp
   199d2:	f8dd 9034 	ldr.w	r9, [sp, #52]	; 0x34
   199d6:	9300      	str	r3, [sp, #0]
   199d8:	4623      	mov	r3, r4
   199da:	4648      	mov	r0, r9
   199dc:	f7ff fbbc 	bl	19158 <sp_3072_mont_mul_48>
   199e0:	4659      	mov	r1, fp
   199e2:	4622      	mov	r2, r4
   199e4:	9b07      	ldr	r3, [sp, #28]
   199e6:	f8dd 8038 	ldr.w	r8, [sp, #56]	; 0x38
   199ea:	4640      	mov	r0, r8
   199ec:	f7ff fba8 	bl	19140 <sp_3072_mont_sqr_48>
   199f0:	9b07      	ldr	r3, [sp, #28]
   199f2:	465a      	mov	r2, fp
   199f4:	4651      	mov	r1, sl
   199f6:	9f0f      	ldr	r7, [sp, #60]	; 0x3c
   199f8:	9300      	str	r3, [sp, #0]
   199fa:	4623      	mov	r3, r4
   199fc:	4638      	mov	r0, r7
   199fe:	f7ff fbab 	bl	19158 <sp_3072_mont_mul_48>
   19a02:	4622      	mov	r2, r4
   19a04:	4651      	mov	r1, sl
   19a06:	9b07      	ldr	r3, [sp, #28]
   19a08:	f8dd b040 	ldr.w	fp, [sp, #64]	; 0x40
   19a0c:	4658      	mov	r0, fp
   19a0e:	f7ff fb97 	bl	19140 <sp_3072_mont_sqr_48>
   19a12:	9b07      	ldr	r3, [sp, #28]
   19a14:	4649      	mov	r1, r9
   19a16:	4652      	mov	r2, sl
   19a18:	9811      	ldr	r0, [sp, #68]	; 0x44
   19a1a:	9300      	str	r3, [sp, #0]
   19a1c:	4623      	mov	r3, r4
   19a1e:	f7ff fb9b 	bl	19158 <sp_3072_mont_mul_48>
   19a22:	4649      	mov	r1, r9
   19a24:	4622      	mov	r2, r4
   19a26:	9b07      	ldr	r3, [sp, #28]
   19a28:	9812      	ldr	r0, [sp, #72]	; 0x48
   19a2a:	f7ff fb89 	bl	19140 <sp_3072_mont_sqr_48>
   19a2e:	9b07      	ldr	r3, [sp, #28]
   19a30:	464a      	mov	r2, r9
   19a32:	4641      	mov	r1, r8
   19a34:	9813      	ldr	r0, [sp, #76]	; 0x4c
   19a36:	9300      	str	r3, [sp, #0]
   19a38:	4623      	mov	r3, r4
   19a3a:	f7ff fb8d 	bl	19158 <sp_3072_mont_mul_48>
   19a3e:	4641      	mov	r1, r8
   19a40:	4622      	mov	r2, r4
   19a42:	9b07      	ldr	r3, [sp, #28]
   19a44:	9814      	ldr	r0, [sp, #80]	; 0x50
   19a46:	f7ff fb7b 	bl	19140 <sp_3072_mont_sqr_48>
   19a4a:	9b07      	ldr	r3, [sp, #28]
   19a4c:	4642      	mov	r2, r8
   19a4e:	4639      	mov	r1, r7
   19a50:	9815      	ldr	r0, [sp, #84]	; 0x54
   19a52:	9300      	str	r3, [sp, #0]
   19a54:	4623      	mov	r3, r4
   19a56:	f7ff fb7f 	bl	19158 <sp_3072_mont_mul_48>
   19a5a:	4639      	mov	r1, r7
   19a5c:	4622      	mov	r2, r4
   19a5e:	9b07      	ldr	r3, [sp, #28]
   19a60:	9816      	ldr	r0, [sp, #88]	; 0x58
   19a62:	f7ff fb6d 	bl	19140 <sp_3072_mont_sqr_48>
   19a66:	9b07      	ldr	r3, [sp, #28]
   19a68:	463a      	mov	r2, r7
   19a6a:	4659      	mov	r1, fp
   19a6c:	9817      	ldr	r0, [sp, #92]	; 0x5c
   19a6e:	9300      	str	r3, [sp, #0]
   19a70:	4623      	mov	r3, r4
   19a72:	f7ff fb71 	bl	19158 <sp_3072_mont_mul_48>
   19a76:	9b04      	ldr	r3, [sp, #16]
   19a78:	1e59      	subs	r1, r3, #1
   19a7a:	bf48      	it	mi
   19a7c:	f103 011e 	addmi.w	r1, r3, #30
   19a80:	9b05      	ldr	r3, [sp, #20]
   19a82:	1149      	asrs	r1, r1, #5
   19a84:	0088      	lsls	r0, r1, #2
   19a86:	f101 39ff 	add.w	r9, r1, #4294967295
   19a8a:	f853 7021 	ldr.w	r7, [r3, r1, lsl #2]
   19a8e:	9b04      	ldr	r3, [sp, #16]
   19a90:	f013 021f 	ands.w	r2, r3, #31
   19a94:	bf08      	it	eq
   19a96:	2220      	moveq	r2, #32
   19a98:	f1d3 0c00 	rsbs	ip, r3, #0
   19a9c:	f00c 0c03 	and.w	ip, ip, #3
   19aa0:	f003 0303 	and.w	r3, r3, #3
   19aa4:	bf58      	it	pl
   19aa6:	f1cc 0300 	rsbpl	r3, ip, #0
   19aaa:	eba2 0803 	sub.w	r8, r2, r3
   19aae:	f1b8 0f20 	cmp.w	r8, #32
   19ab2:	d047      	beq.n	19b44 <sp_3072_mod_exp_48+0x24a>
   19ab4:	f1b8 0f00 	cmp.w	r8, #0
   19ab8:	da41      	bge.n	19b3e <sp_3072_mod_exp_48+0x244>
   19aba:	1a9b      	subs	r3, r3, r2
   19abc:	9a05      	ldr	r2, [sp, #20]
   19abe:	f1a1 0902 	sub.w	r9, r1, #2
   19ac2:	f108 0840 	add.w	r8, r8, #64	; 0x40
   19ac6:	409f      	lsls	r7, r3
   19ac8:	1811      	adds	r1, r2, r0
   19aca:	f851 1c04 	ldr.w	r1, [r1, #-4]
   19ace:	fa21 f208 	lsr.w	r2, r1, r8
   19ad2:	433a      	orrs	r2, r7
   19ad4:	fa01 f703 	lsl.w	r7, r1, r3
   19ad8:	f002 02ff 	and.w	r2, r2, #255	; 0xff
   19adc:	ab18      	add	r3, sp, #96	; 0x60
   19ade:	4628      	mov	r0, r5
   19ae0:	eb03 0382 	add.w	r3, r3, r2, lsl #2
   19ae4:	22c0      	movs	r2, #192	; 0xc0
   19ae6:	f853 1c40 	ldr.w	r1, [r3, #-64]
   19aea:	f7f6 eca0 	blx	1042c <memcpy@plt>
   19aee:	f1b9 0f00 	cmp.w	r9, #0
   19af2:	da30      	bge.n	19b56 <sp_3072_mod_exp_48+0x25c>
   19af4:	f1b8 0f03 	cmp.w	r8, #3
   19af8:	dc75      	bgt.n	19be6 <sp_3072_mod_exp_48+0x2ec>
   19afa:	22c0      	movs	r2, #192	; 0xc0
   19afc:	2100      	movs	r1, #0
   19afe:	18a8      	adds	r0, r5, r2
   19b00:	f7f6 ecb2 	blx	10468 <memset@plt>
   19b04:	4621      	mov	r1, r4
   19b06:	4628      	mov	r0, r5
   19b08:	9a07      	ldr	r2, [sp, #28]
   19b0a:	f7ff faae 	bl	1906a <sp_3072_mont_reduce_48>
   19b0e:	4621      	mov	r1, r4
   19b10:	4628      	mov	r0, r5
   19b12:	f7fe ff50 	bl	189b6 <sp_3072_cmp_48>
   19b16:	43c0      	mvns	r0, r0
   19b18:	4622      	mov	r2, r4
   19b1a:	0fc0      	lsrs	r0, r0, #31
   19b1c:	4629      	mov	r1, r5
   19b1e:	4243      	negs	r3, r0
   19b20:	4628      	mov	r0, r5
   19b22:	f7ff fa87 	bl	19034 <sp_3072_cond_sub_48.isra.0>
   19b26:	9803      	ldr	r0, [sp, #12]
   19b28:	f7f6 ec74 	blx	10414 <free@plt>
   19b2c:	4630      	mov	r0, r6
   19b2e:	b019      	add	sp, #100	; 0x64
   19b30:	e8bd 8ff0 	ldmia.w	sp!, {r4, r5, r6, r7, r8, r9, sl, fp, pc}
   19b34:	22c0      	movs	r2, #192	; 0xc0
   19b36:	4649      	mov	r1, r9
   19b38:	f7f6 ec78 	blx	1042c <memcpy@plt>
   19b3c:	e724      	b.n	19988 <sp_3072_mod_exp_48+0x8e>
   19b3e:	d103      	bne.n	19b48 <sp_3072_mod_exp_48+0x24e>
   19b40:	b2fa      	uxtb	r2, r7
   19b42:	e7cb      	b.n	19adc <sp_3072_mod_exp_48+0x1e2>
   19b44:	f04f 081c 	mov.w	r8, #28
   19b48:	fa27 f208 	lsr.w	r2, r7, r8
   19b4c:	f1c8 0320 	rsb	r3, r8, #32
   19b50:	409f      	lsls	r7, r3
   19b52:	b2d2      	uxtb	r2, r2
   19b54:	e7c2      	b.n	19adc <sp_3072_mod_exp_48+0x1e2>
   19b56:	f1b8 0f00 	cmp.w	r8, #0
   19b5a:	d12e      	bne.n	19bba <sp_3072_mod_exp_48+0x2c0>
   19b5c:	9b05      	ldr	r3, [sp, #20]
   19b5e:	f04f 081c 	mov.w	r8, #28
   19b62:	f853 7029 	ldr.w	r7, [r3, r9, lsl #2]
   19b66:	f109 39ff 	add.w	r9, r9, #4294967295
   19b6a:	ea4f 7a17 	mov.w	sl, r7, lsr #28
   19b6e:	013f      	lsls	r7, r7, #4
   19b70:	4622      	mov	r2, r4
   19b72:	4629      	mov	r1, r5
   19b74:	9b07      	ldr	r3, [sp, #28]
   19b76:	4628      	mov	r0, r5
   19b78:	f7ff fae2 	bl	19140 <sp_3072_mont_sqr_48>
   19b7c:	4622      	mov	r2, r4
   19b7e:	4629      	mov	r1, r5
   19b80:	9b07      	ldr	r3, [sp, #28]
   19b82:	4628      	mov	r0, r5
   19b84:	f7ff fadc 	bl	19140 <sp_3072_mont_sqr_48>
   19b88:	4622      	mov	r2, r4
   19b8a:	4629      	mov	r1, r5
   19b8c:	9b07      	ldr	r3, [sp, #28]
   19b8e:	4628      	mov	r0, r5
   19b90:	f7ff fad6 	bl	19140 <sp_3072_mont_sqr_48>
   19b94:	4622      	mov	r2, r4
   19b96:	4629      	mov	r1, r5
   19b98:	9b07      	ldr	r3, [sp, #28]
   19b9a:	4628      	mov	r0, r5
   19b9c:	f7ff fad0 	bl	19140 <sp_3072_mont_sqr_48>
   19ba0:	ab18      	add	r3, sp, #96	; 0x60
   19ba2:	4629      	mov	r1, r5
   19ba4:	eb03 0a8a 	add.w	sl, r3, sl, lsl #2
   19ba8:	9b07      	ldr	r3, [sp, #28]
   19baa:	4628      	mov	r0, r5
   19bac:	9300      	str	r3, [sp, #0]
   19bae:	4623      	mov	r3, r4
   19bb0:	f85a 2c40 	ldr.w	r2, [sl, #-64]
   19bb4:	f7ff fad0 	bl	19158 <sp_3072_mont_mul_48>
   19bb8:	e799      	b.n	19aee <sp_3072_mod_exp_48+0x1f4>
   19bba:	f1b8 0f03 	cmp.w	r8, #3
   19bbe:	ea4f 7a17 	mov.w	sl, r7, lsr #28
   19bc2:	dc10      	bgt.n	19be6 <sp_3072_mod_exp_48+0x2ec>
   19bc4:	9b05      	ldr	r3, [sp, #20]
   19bc6:	f853 7029 	ldr.w	r7, [r3, r9, lsl #2]
   19bca:	f1c8 0304 	rsb	r3, r8, #4
   19bce:	f108 081c 	add.w	r8, r8, #28
   19bd2:	f109 39ff 	add.w	r9, r9, #4294967295
   19bd6:	fa27 f208 	lsr.w	r2, r7, r8
   19bda:	409f      	lsls	r7, r3
   19bdc:	ea4a 0a02 	orr.w	sl, sl, r2
   19be0:	fa5f fa8a 	uxtb.w	sl, sl
   19be4:	e7c4      	b.n	19b70 <sp_3072_mod_exp_48+0x276>
   19be6:	ea4f 7a17 	mov.w	sl, r7, lsr #28
   19bea:	f1a8 0804 	sub.w	r8, r8, #4
   19bee:	013f      	lsls	r7, r7, #4
   19bf0:	e7be      	b.n	19b70 <sp_3072_mod_exp_48+0x276>
   19bf2:	f06f 0602 	mvn.w	r6, #2
   19bf6:	e799      	b.n	19b2c <sp_3072_mod_exp_48+0x232>
   19bf8:	f06f 067c 	mvn.w	r6, #124	; 0x7c
   19bfc:	e796      	b.n	19b2c <sp_3072_mod_exp_48+0x232>

00019bfe <sp_2048_div_64.constprop.0>:
   19bfe:	e92d 4ff0 	stmdb	sp!, {r4, r5, r6, r7, r8, r9, sl, fp, lr}
   19c02:	f5ad 7d45 	sub.w	sp, sp, #788	; 0x314
   19c06:	460f      	mov	r7, r1
   19c08:	460d      	mov	r5, r1
   19c0a:	4691      	mov	r9, r2
   19c0c:	4601      	mov	r1, r0
   19c0e:	f44f 7200 	mov.w	r2, #512	; 0x200
   19c12:	a844      	add	r0, sp, #272	; 0x110
   19c14:	acc3      	add	r4, sp, #780	; 0x30c
   19c16:	f857 bffc 	ldr.w	fp, [r7, #252]!
   19c1a:	f04f 0a3f 	mov.w	sl, #63	; 0x3f
   19c1e:	f7f6 ec06 	blx	1042c <memcpy@plt>
   19c22:	6820      	ldr	r0, [r4, #0]
   19c24:	465a      	mov	r2, fp
   19c26:	f5a4 7680 	sub.w	r6, r4, #256	; 0x100
   19c2a:	f1a5 0804 	sub.w	r8, r5, #4
   19c2e:	f854 1d04 	ldr.w	r1, [r4, #-4]!
   19c32:	4583      	cmp	fp, r0
   19c34:	bf08      	it	eq
   19c36:	3801      	subeq	r0, #1
   19c38:	f7fe fc4f 	bl	184da <div_2048_word_32>
   19c3c:	4602      	mov	r2, r0
   19c3e:	4629      	mov	r1, r5
   19c40:	a803      	add	r0, sp, #12
   19c42:	f7fe fc0a 	bl	1845a <sp_2048_mul_d_64>
   19c46:	a903      	add	r1, sp, #12
   19c48:	4630      	mov	r0, r6
   19c4a:	f7fe fac9 	bl	181e0 <sp_2048_sub_in_place_64>
   19c4e:	9b43      	ldr	r3, [sp, #268]	; 0x10c
   19c50:	4642      	mov	r2, r8
   19c52:	1ac0      	subs	r0, r0, r3
   19c54:	6863      	ldr	r3, [r4, #4]
   19c56:	4418      	add	r0, r3
   19c58:	ab03      	add	r3, sp, #12
   19c5a:	469c      	mov	ip, r3
   19c5c:	6060      	str	r0, [r4, #4]
   19c5e:	f852 1f04 	ldr.w	r1, [r2, #4]!
   19c62:	4001      	ands	r1, r0
   19c64:	42ba      	cmp	r2, r7
   19c66:	f84c 1b04 	str.w	r1, [ip], #4
   19c6a:	d1f8      	bne.n	19c5e <sp_2048_div_64.constprop.0+0x60>
   19c6c:	aa03      	add	r2, sp, #12
   19c6e:	4631      	mov	r1, r6
   19c70:	9301      	str	r3, [sp, #4]
   19c72:	4630      	mov	r0, r6
   19c74:	f7fe fa95 	bl	181a2 <sp_2048_add_64>
   19c78:	6862      	ldr	r2, [r4, #4]
   19c7a:	9b01      	ldr	r3, [sp, #4]
   19c7c:	4410      	add	r0, r2
   19c7e:	6060      	str	r0, [r4, #4]
   19c80:	f858 2f04 	ldr.w	r2, [r8, #4]!
   19c84:	4002      	ands	r2, r0
   19c86:	45b8      	cmp	r8, r7
   19c88:	f843 2b04 	str.w	r2, [r3], #4
   19c8c:	d1f8      	bne.n	19c80 <sp_2048_div_64.constprop.0+0x82>
   19c8e:	aa03      	add	r2, sp, #12
   19c90:	4631      	mov	r1, r6
   19c92:	4630      	mov	r0, r6
   19c94:	f10a 3aff 	add.w	sl, sl, #4294967295
   19c98:	f7fe fa83 	bl	181a2 <sp_2048_add_64>
   19c9c:	6863      	ldr	r3, [r4, #4]
   19c9e:	f1ba 3fff 	cmp.w	sl, #4294967295
   19ca2:	4418      	add	r0, r3
   19ca4:	6060      	str	r0, [r4, #4]
   19ca6:	d1bc      	bne.n	19c22 <sp_2048_div_64.constprop.0+0x24>
   19ca8:	4629      	mov	r1, r5
   19caa:	a844      	add	r0, sp, #272	; 0x110
   19cac:	f7fe fc78 	bl	185a0 <sp_2048_cmp_64>
   19cb0:	43c0      	mvns	r0, r0
   19cb2:	462a      	mov	r2, r5
   19cb4:	0fc0      	lsrs	r0, r0, #31
   19cb6:	a944      	add	r1, sp, #272	; 0x110
   19cb8:	4243      	negs	r3, r0
   19cba:	4648      	mov	r0, r9
   19cbc:	f7ff fad7 	bl	1926e <sp_2048_cond_sub_64.isra.0>
   19cc0:	2000      	movs	r0, #0
   19cc2:	f50d 7d45 	add.w	sp, sp, #788	; 0x314
   19cc6:	e8bd 8ff0 	ldmia.w	sp!, {r4, r5, r6, r7, r8, r9, sl, fp, pc}

00019cca <sp_2048_mod_exp_64.constprop.0>:
   19cca:	e92d 4ff0 	stmdb	sp!, {r4, r5, r6, r7, r8, r9, sl, fp, lr}
   19cce:	b08f      	sub	sp, #60	; 0x3c
   19cd0:	461e      	mov	r6, r3
   19cd2:	2301      	movs	r3, #1
   19cd4:	4605      	mov	r5, r0
   19cd6:	4688      	mov	r8, r1
   19cd8:	9c18      	ldr	r4, [sp, #96]	; 0x60
   19cda:	9203      	str	r2, [sp, #12]
   19cdc:	9305      	str	r3, [sp, #20]
   19cde:	6823      	ldr	r3, [r4, #0]
   19ce0:	07da      	lsls	r2, r3, #31
   19ce2:	f140 8110 	bpl.w	19f06 <sp_2048_mod_exp_64.constprop.0+0x23c>
   19ce6:	2e00      	cmp	r6, #0
   19ce8:	f000 810d 	beq.w	19f06 <sp_2048_mod_exp_64.constprop.0+0x23c>
   19cec:	f44f 5080 	mov.w	r0, #4096	; 0x1000
   19cf0:	f7f6 eba8 	blx	10444 <malloc@plt>
   19cf4:	4607      	mov	r7, r0
   19cf6:	2800      	cmp	r0, #0
   19cf8:	f000 8108 	beq.w	19f0c <sp_2048_mod_exp_64.constprop.0+0x242>
   19cfc:	4603      	mov	r3, r0
   19cfe:	aa06      	add	r2, sp, #24
   19d00:	f500 5180 	add.w	r1, r0, #4096	; 0x1000
   19d04:	f842 3b04 	str.w	r3, [r2], #4
   19d08:	f503 7300 	add.w	r3, r3, #512	; 0x200
   19d0c:	4299      	cmp	r1, r3
   19d0e:	d1f9      	bne.n	19d04 <sp_2048_mod_exp_64.constprop.0+0x3a>
   19d10:	a905      	add	r1, sp, #20
   19d12:	6820      	ldr	r0, [r4, #0]
   19d14:	f7ff fbec 	bl	194f0 <sp_2048_mont_setup.isra.0>
   19d18:	f44f 7280 	mov.w	r2, #256	; 0x100
   19d1c:	2100      	movs	r1, #0
   19d1e:	4638      	mov	r0, r7
   19d20:	f7f6 eba2 	blx	10468 <memset@plt>
   19d24:	4621      	mov	r1, r4
   19d26:	4638      	mov	r0, r7
   19d28:	f7fe fa5a 	bl	181e0 <sp_2048_sub_in_place_64>
   19d2c:	f8dd 901c 	ldr.w	r9, [sp, #28]
   19d30:	f44f 7280 	mov.w	r2, #256	; 0x100
   19d34:	2100      	movs	r1, #0
   19d36:	4648      	mov	r0, r9
   19d38:	f7f6 eb96 	blx	10468 <memset@plt>
   19d3c:	f44f 7280 	mov.w	r2, #256	; 0x100
   19d40:	4641      	mov	r1, r8
   19d42:	eb09 0002 	add.w	r0, r9, r2
   19d46:	f7f6 eb72 	blx	1042c <memcpy@plt>
   19d4a:	464a      	mov	r2, r9
   19d4c:	4621      	mov	r1, r4
   19d4e:	4648      	mov	r0, r9
   19d50:	f7ff ff55 	bl	19bfe <sp_2048_div_64.constprop.0>
   19d54:	4680      	mov	r8, r0
   19d56:	2800      	cmp	r0, #0
   19d58:	d17c      	bne.n	19e54 <sp_2048_mod_exp_64.constprop.0+0x18a>
   19d5a:	4649      	mov	r1, r9
   19d5c:	4622      	mov	r2, r4
   19d5e:	9b05      	ldr	r3, [sp, #20]
   19d60:	f8dd b020 	ldr.w	fp, [sp, #32]
   19d64:	4658      	mov	r0, fp
   19d66:	f7ff fb0b 	bl	19380 <sp_2048_mont_sqr_64>
   19d6a:	9b05      	ldr	r3, [sp, #20]
   19d6c:	464a      	mov	r2, r9
   19d6e:	4659      	mov	r1, fp
   19d70:	f8dd a024 	ldr.w	sl, [sp, #36]	; 0x24
   19d74:	9300      	str	r3, [sp, #0]
   19d76:	4623      	mov	r3, r4
   19d78:	4650      	mov	r0, sl
   19d7a:	f7ff fb0d 	bl	19398 <sp_2048_mont_mul_64>
   19d7e:	4622      	mov	r2, r4
   19d80:	4659      	mov	r1, fp
   19d82:	9b05      	ldr	r3, [sp, #20]
   19d84:	f8dd 9028 	ldr.w	r9, [sp, #40]	; 0x28
   19d88:	4648      	mov	r0, r9
   19d8a:	f7ff faf9 	bl	19380 <sp_2048_mont_sqr_64>
   19d8e:	9b05      	ldr	r3, [sp, #20]
   19d90:	4651      	mov	r1, sl
   19d92:	465a      	mov	r2, fp
   19d94:	980b      	ldr	r0, [sp, #44]	; 0x2c
   19d96:	9300      	str	r3, [sp, #0]
   19d98:	4623      	mov	r3, r4
   19d9a:	f7ff fafd 	bl	19398 <sp_2048_mont_mul_64>
   19d9e:	4651      	mov	r1, sl
   19da0:	4622      	mov	r2, r4
   19da2:	9b05      	ldr	r3, [sp, #20]
   19da4:	980c      	ldr	r0, [sp, #48]	; 0x30
   19da6:	f7ff faeb 	bl	19380 <sp_2048_mont_sqr_64>
   19daa:	9b05      	ldr	r3, [sp, #20]
   19dac:	4652      	mov	r2, sl
   19dae:	4649      	mov	r1, r9
   19db0:	980d      	ldr	r0, [sp, #52]	; 0x34
   19db2:	9300      	str	r3, [sp, #0]
   19db4:	4623      	mov	r3, r4
   19db6:	f7ff faef 	bl	19398 <sp_2048_mont_mul_64>
   19dba:	2103      	movs	r1, #3
   19dbc:	9b03      	ldr	r3, [sp, #12]
   19dbe:	1e72      	subs	r2, r6, #1
   19dc0:	bf48      	it	mi
   19dc2:	f106 021e 	addmi.w	r2, r6, #30
   19dc6:	fb96 f1f1 	sdiv	r1, r6, r1
   19dca:	1152      	asrs	r2, r2, #5
   19dcc:	f853 9022 	ldr.w	r9, [r3, r2, lsl #2]
   19dd0:	f016 031f 	ands.w	r3, r6, #31
   19dd4:	ea4f 0082 	mov.w	r0, r2, lsl #2
   19dd8:	bf08      	it	eq
   19dda:	2320      	moveq	r3, #32
   19ddc:	f102 3aff 	add.w	sl, r2, #4294967295
   19de0:	eb01 0141 	add.w	r1, r1, r1, lsl #1
   19de4:	1a76      	subs	r6, r6, r1
   19de6:	1b9e      	subs	r6, r3, r6
   19de8:	2e20      	cmp	r6, #32
   19dea:	d03e      	beq.n	19e6a <sp_2048_mod_exp_64.constprop.0+0x1a0>
   19dec:	1c73      	adds	r3, r6, #1
   19dee:	d138      	bne.n	19e62 <sp_2048_mod_exp_64.constprop.0+0x198>
   19df0:	f1a2 0a02 	sub.w	sl, r2, #2
   19df4:	9a03      	ldr	r2, [sp, #12]
   19df6:	ea4f 0349 	mov.w	r3, r9, lsl #1
   19dfa:	263f      	movs	r6, #63	; 0x3f
   19dfc:	b2db      	uxtb	r3, r3
   19dfe:	4410      	add	r0, r2
   19e00:	f850 2c04 	ldr.w	r2, [r0, #-4]
   19e04:	ea4f 0942 	mov.w	r9, r2, lsl #1
   19e08:	aa0e      	add	r2, sp, #56	; 0x38
   19e0a:	4628      	mov	r0, r5
   19e0c:	eb02 0383 	add.w	r3, r2, r3, lsl #2
   19e10:	f44f 7280 	mov.w	r2, #256	; 0x100
   19e14:	f853 1c20 	ldr.w	r1, [r3, #-32]
   19e18:	f7f6 eb08 	blx	1042c <memcpy@plt>
   19e1c:	f1ba 0f00 	cmp.w	sl, #0
   19e20:	da2c      	bge.n	19e7c <sp_2048_mod_exp_64.constprop.0+0x1b2>
   19e22:	2e02      	cmp	r6, #2
   19e24:	dc69      	bgt.n	19efa <sp_2048_mod_exp_64.constprop.0+0x230>
   19e26:	f44f 7280 	mov.w	r2, #256	; 0x100
   19e2a:	2100      	movs	r1, #0
   19e2c:	18a8      	adds	r0, r5, r2
   19e2e:	f7f6 eb1c 	blx	10468 <memset@plt>
   19e32:	4621      	mov	r1, r4
   19e34:	4628      	mov	r0, r5
   19e36:	9a05      	ldr	r2, [sp, #20]
   19e38:	f7ff fa36 	bl	192a8 <sp_2048_mont_reduce_64>
   19e3c:	4621      	mov	r1, r4
   19e3e:	4628      	mov	r0, r5
   19e40:	f7fe fbae 	bl	185a0 <sp_2048_cmp_64>
   19e44:	43c0      	mvns	r0, r0
   19e46:	4622      	mov	r2, r4
   19e48:	0fc0      	lsrs	r0, r0, #31
   19e4a:	4629      	mov	r1, r5
   19e4c:	4243      	negs	r3, r0
   19e4e:	4628      	mov	r0, r5
   19e50:	f7ff fa0d 	bl	1926e <sp_2048_cond_sub_64.isra.0>
   19e54:	4638      	mov	r0, r7
   19e56:	f7f6 eade 	blx	10414 <free@plt>
   19e5a:	4640      	mov	r0, r8
   19e5c:	b00f      	add	sp, #60	; 0x3c
   19e5e:	e8bd 8ff0 	ldmia.w	sp!, {r4, r5, r6, r7, r8, r9, sl, fp, pc}
   19e62:	b91e      	cbnz	r6, 19e6c <sp_2048_mod_exp_64.constprop.0+0x1a2>
   19e64:	fa5f f389 	uxtb.w	r3, r9
   19e68:	e7ce      	b.n	19e08 <sp_2048_mod_exp_64.constprop.0+0x13e>
   19e6a:	261d      	movs	r6, #29
   19e6c:	fa29 f306 	lsr.w	r3, r9, r6
   19e70:	f1c6 0220 	rsb	r2, r6, #32
   19e74:	fa09 f902 	lsl.w	r9, r9, r2
   19e78:	b2db      	uxtb	r3, r3
   19e7a:	e7c5      	b.n	19e08 <sp_2048_mod_exp_64.constprop.0+0x13e>
   19e7c:	bb46      	cbnz	r6, 19ed0 <sp_2048_mod_exp_64.constprop.0+0x206>
   19e7e:	9b03      	ldr	r3, [sp, #12]
   19e80:	261d      	movs	r6, #29
   19e82:	f853 302a 	ldr.w	r3, [r3, sl, lsl #2]
   19e86:	f10a 3aff 	add.w	sl, sl, #4294967295
   19e8a:	ea4f 7b53 	mov.w	fp, r3, lsr #29
   19e8e:	ea4f 09c3 	mov.w	r9, r3, lsl #3
   19e92:	4622      	mov	r2, r4
   19e94:	4629      	mov	r1, r5
   19e96:	9b05      	ldr	r3, [sp, #20]
   19e98:	4628      	mov	r0, r5
   19e9a:	f7ff fa71 	bl	19380 <sp_2048_mont_sqr_64>
   19e9e:	4622      	mov	r2, r4
   19ea0:	4629      	mov	r1, r5
   19ea2:	9b05      	ldr	r3, [sp, #20]
   19ea4:	4628      	mov	r0, r5
   19ea6:	f7ff fa6b 	bl	19380 <sp_2048_mont_sqr_64>
   19eaa:	4622      	mov	r2, r4
   19eac:	4629      	mov	r1, r5
   19eae:	9b05      	ldr	r3, [sp, #20]
   19eb0:	4628      	mov	r0, r5
   19eb2:	f7ff fa65 	bl	19380 <sp_2048_mont_sqr_64>
   19eb6:	ab0e      	add	r3, sp, #56	; 0x38
   19eb8:	4629      	mov	r1, r5
   19eba:	eb03 0b8b 	add.w	fp, r3, fp, lsl #2
   19ebe:	9b05      	ldr	r3, [sp, #20]
   19ec0:	4628      	mov	r0, r5
   19ec2:	9300      	str	r3, [sp, #0]
   19ec4:	4623      	mov	r3, r4
   19ec6:	f85b 2c20 	ldr.w	r2, [fp, #-32]
   19eca:	f7ff fa65 	bl	19398 <sp_2048_mont_mul_64>
   19ece:	e7a5      	b.n	19e1c <sp_2048_mod_exp_64.constprop.0+0x152>
   19ed0:	2e02      	cmp	r6, #2
   19ed2:	ea4f 7b59 	mov.w	fp, r9, lsr #29
   19ed6:	dc10      	bgt.n	19efa <sp_2048_mod_exp_64.constprop.0+0x230>
   19ed8:	9b03      	ldr	r3, [sp, #12]
   19eda:	f1c6 0903 	rsb	r9, r6, #3
   19ede:	361d      	adds	r6, #29
   19ee0:	f853 302a 	ldr.w	r3, [r3, sl, lsl #2]
   19ee4:	f10a 3aff 	add.w	sl, sl, #4294967295
   19ee8:	fa23 f206 	lsr.w	r2, r3, r6
   19eec:	fa03 f909 	lsl.w	r9, r3, r9
   19ef0:	ea4b 0b02 	orr.w	fp, fp, r2
   19ef4:	fa5f fb8b 	uxtb.w	fp, fp
   19ef8:	e7cb      	b.n	19e92 <sp_2048_mod_exp_64.constprop.0+0x1c8>
   19efa:	ea4f 7b59 	mov.w	fp, r9, lsr #29
   19efe:	3e03      	subs	r6, #3
   19f00:	ea4f 09c9 	mov.w	r9, r9, lsl #3
   19f04:	e7c5      	b.n	19e92 <sp_2048_mod_exp_64.constprop.0+0x1c8>
   19f06:	f06f 0802 	mvn.w	r8, #2
   19f0a:	e7a6      	b.n	19e5a <sp_2048_mod_exp_64.constprop.0+0x190>
   19f0c:	f06f 087c 	mvn.w	r8, #124	; 0x7c
   19f10:	e7a3      	b.n	19e5a <sp_2048_mod_exp_64.constprop.0+0x190>

00019f12 <sp_2048_div_32.constprop.0>:
   19f12:	e92d 4ff0 	stmdb	sp!, {r4, r5, r6, r7, r8, r9, sl, fp, lr}
   19f16:	b0e5      	sub	sp, #404	; 0x194
   19f18:	460f      	mov	r7, r1
   19f1a:	460d      	mov	r5, r1
   19f1c:	4691      	mov	r9, r2
   19f1e:	4601      	mov	r1, r0
   19f20:	f44f 7280 	mov.w	r2, #256	; 0x100
   19f24:	a824      	add	r0, sp, #144	; 0x90
   19f26:	ac63      	add	r4, sp, #396	; 0x18c
   19f28:	f857 bf7c 	ldr.w	fp, [r7, #124]!
   19f2c:	f04f 0a1f 	mov.w	sl, #31
   19f30:	f7f6 ea7c 	blx	1042c <memcpy@plt>
   19f34:	6820      	ldr	r0, [r4, #0]
   19f36:	465a      	mov	r2, fp
   19f38:	f1a4 0680 	sub.w	r6, r4, #128	; 0x80
   19f3c:	f1a5 0804 	sub.w	r8, r5, #4
   19f40:	f854 1d04 	ldr.w	r1, [r4, #-4]!
   19f44:	4583      	cmp	fp, r0
   19f46:	bf08      	it	eq
   19f48:	3801      	subeq	r0, #1
   19f4a:	f7fe fac6 	bl	184da <div_2048_word_32>
   19f4e:	4602      	mov	r2, r0
   19f50:	4629      	mov	r1, r5
   19f52:	a803      	add	r0, sp, #12
   19f54:	f7fe faa1 	bl	1849a <sp_2048_mul_d_32>
   19f58:	a903      	add	r1, sp, #12
   19f5a:	4630      	mov	r0, r6
   19f5c:	f7fe f9f3 	bl	18346 <sp_2048_sub_in_place_32>
   19f60:	9b23      	ldr	r3, [sp, #140]	; 0x8c
   19f62:	4642      	mov	r2, r8
   19f64:	1ac0      	subs	r0, r0, r3
   19f66:	6863      	ldr	r3, [r4, #4]
   19f68:	4418      	add	r0, r3
   19f6a:	ab03      	add	r3, sp, #12
   19f6c:	469c      	mov	ip, r3
   19f6e:	6060      	str	r0, [r4, #4]
   19f70:	f852 1f04 	ldr.w	r1, [r2, #4]!
   19f74:	4001      	ands	r1, r0
   19f76:	42ba      	cmp	r2, r7
   19f78:	f84c 1b04 	str.w	r1, [ip], #4
   19f7c:	d1f8      	bne.n	19f70 <sp_2048_div_32.constprop.0+0x5e>
   19f7e:	aa03      	add	r2, sp, #12
   19f80:	4631      	mov	r1, r6
   19f82:	9301      	str	r3, [sp, #4]
   19f84:	4630      	mov	r0, r6
   19f86:	f7fe f9bf 	bl	18308 <sp_2048_add_32>
   19f8a:	6862      	ldr	r2, [r4, #4]
   19f8c:	9b01      	ldr	r3, [sp, #4]
   19f8e:	4410      	add	r0, r2
   19f90:	6060      	str	r0, [r4, #4]
   19f92:	f858 2f04 	ldr.w	r2, [r8, #4]!
   19f96:	4002      	ands	r2, r0
   19f98:	45b8      	cmp	r8, r7
   19f9a:	f843 2b04 	str.w	r2, [r3], #4
   19f9e:	d1f8      	bne.n	19f92 <sp_2048_div_32.constprop.0+0x80>
   19fa0:	aa03      	add	r2, sp, #12
   19fa2:	4631      	mov	r1, r6
   19fa4:	4630      	mov	r0, r6
   19fa6:	f10a 3aff 	add.w	sl, sl, #4294967295
   19faa:	f7fe f9ad 	bl	18308 <sp_2048_add_32>
   19fae:	6863      	ldr	r3, [r4, #4]
   19fb0:	f1ba 3fff 	cmp.w	sl, #4294967295
   19fb4:	4418      	add	r0, r3
   19fb6:	6060      	str	r0, [r4, #4]
   19fb8:	d1bc      	bne.n	19f34 <sp_2048_div_32.constprop.0+0x22>
   19fba:	4629      	mov	r1, r5
   19fbc:	a824      	add	r0, sp, #144	; 0x90
   19fbe:	f7fe fac5 	bl	1854c <sp_2048_cmp_32>
   19fc2:	43c0      	mvns	r0, r0
   19fc4:	462a      	mov	r2, r5
   19fc6:	0fc0      	lsrs	r0, r0, #31
   19fc8:	a924      	add	r1, sp, #144	; 0x90
   19fca:	4243      	negs	r3, r0
   19fcc:	4648      	mov	r0, r9
   19fce:	f7ff f9f0 	bl	193b2 <sp_2048_cond_sub_32.isra.0>
   19fd2:	2000      	movs	r0, #0
   19fd4:	b065      	add	sp, #404	; 0x194
   19fd6:	e8bd 8ff0 	ldmia.w	sp!, {r4, r5, r6, r7, r8, r9, sl, fp, pc}

00019fda <sp_2048_mod_exp_32>:
   19fda:	e92d 4ff0 	stmdb	sp!, {r4, r5, r6, r7, r8, r9, sl, fp, lr}
   19fde:	b099      	sub	sp, #100	; 0x64
   19fe0:	4605      	mov	r5, r0
   19fe2:	4689      	mov	r9, r1
   19fe4:	e9dd 4722 	ldrd	r4, r7, [sp, #136]	; 0x88
   19fe8:	e9cd 3204 	strd	r3, r2, [sp, #16]
   19fec:	2301      	movs	r3, #1
   19fee:	9307      	str	r3, [sp, #28]
   19ff0:	6823      	ldr	r3, [r4, #0]
   19ff2:	07db      	lsls	r3, r3, #31
   19ff4:	f140 816d 	bpl.w	1a2d2 <sp_2048_mod_exp_32+0x2f8>
   19ff8:	9b04      	ldr	r3, [sp, #16]
   19ffa:	2b00      	cmp	r3, #0
   19ffc:	f000 8169 	beq.w	1a2d2 <sp_2048_mod_exp_32+0x2f8>
   1a000:	f44f 5080 	mov.w	r0, #4096	; 0x1000
   1a004:	f7f6 ea1e 	blx	10444 <malloc@plt>
   1a008:	4603      	mov	r3, r0
   1a00a:	9003      	str	r0, [sp, #12]
   1a00c:	2800      	cmp	r0, #0
   1a00e:	f000 8163 	beq.w	1a2d8 <sp_2048_mod_exp_32+0x2fe>
   1a012:	aa08      	add	r2, sp, #32
   1a014:	f500 5180 	add.w	r1, r0, #4096	; 0x1000
   1a018:	f842 3b04 	str.w	r3, [r2], #4
   1a01c:	f503 7380 	add.w	r3, r3, #256	; 0x100
   1a020:	4299      	cmp	r1, r3
   1a022:	d1f9      	bne.n	1a018 <sp_2048_mod_exp_32+0x3e>
   1a024:	a907      	add	r1, sp, #28
   1a026:	6820      	ldr	r0, [r4, #0]
   1a028:	f7ff fa62 	bl	194f0 <sp_2048_mont_setup.isra.0>
   1a02c:	2280      	movs	r2, #128	; 0x80
   1a02e:	2100      	movs	r1, #0
   1a030:	9803      	ldr	r0, [sp, #12]
   1a032:	f7f6 ea1a 	blx	10468 <memset@plt>
   1a036:	4621      	mov	r1, r4
   1a038:	9803      	ldr	r0, [sp, #12]
   1a03a:	f7fe f984 	bl	18346 <sp_2048_sub_in_place_32>
   1a03e:	f8dd 8024 	ldr.w	r8, [sp, #36]	; 0x24
   1a042:	2280      	movs	r2, #128	; 0x80
   1a044:	2100      	movs	r1, #0
   1a046:	4640      	mov	r0, r8
   1a048:	f7f6 ea0e 	blx	10468 <memset@plt>
   1a04c:	f108 0080 	add.w	r0, r8, #128	; 0x80
   1a050:	2f00      	cmp	r7, #0
   1a052:	f000 80df 	beq.w	1a214 <sp_2048_mod_exp_32+0x23a>
   1a056:	4602      	mov	r2, r0
   1a058:	4621      	mov	r1, r4
   1a05a:	4648      	mov	r0, r9
   1a05c:	f7ff ff59 	bl	19f12 <sp_2048_div_32.constprop.0>
   1a060:	4606      	mov	r6, r0
   1a062:	2800      	cmp	r0, #0
   1a064:	f040 80cf 	bne.w	1a206 <sp_2048_mod_exp_32+0x22c>
   1a068:	4642      	mov	r2, r8
   1a06a:	4621      	mov	r1, r4
   1a06c:	4640      	mov	r0, r8
   1a06e:	f7ff ff50 	bl	19f12 <sp_2048_div_32.constprop.0>
   1a072:	4606      	mov	r6, r0
   1a074:	2800      	cmp	r0, #0
   1a076:	f040 80c6 	bne.w	1a206 <sp_2048_mod_exp_32+0x22c>
   1a07a:	4641      	mov	r1, r8
   1a07c:	4622      	mov	r2, r4
   1a07e:	9b07      	ldr	r3, [sp, #28]
   1a080:	9f0a      	ldr	r7, [sp, #40]	; 0x28
   1a082:	4638      	mov	r0, r7
   1a084:	f7ff fa1b 	bl	194be <sp_2048_mont_sqr_32>
   1a088:	9b07      	ldr	r3, [sp, #28]
   1a08a:	4642      	mov	r2, r8
   1a08c:	4639      	mov	r1, r7
   1a08e:	f8dd b02c 	ldr.w	fp, [sp, #44]	; 0x2c
   1a092:	9300      	str	r3, [sp, #0]
   1a094:	4623      	mov	r3, r4
   1a096:	4658      	mov	r0, fp
   1a098:	f7ff fa1d 	bl	194d6 <sp_2048_mont_mul_32>
   1a09c:	4639      	mov	r1, r7
   1a09e:	4622      	mov	r2, r4
   1a0a0:	9b07      	ldr	r3, [sp, #28]
   1a0a2:	f8dd a030 	ldr.w	sl, [sp, #48]	; 0x30
   1a0a6:	4650      	mov	r0, sl
   1a0a8:	f7ff fa09 	bl	194be <sp_2048_mont_sqr_32>
   1a0ac:	9b07      	ldr	r3, [sp, #28]
   1a0ae:	463a      	mov	r2, r7
   1a0b0:	4659      	mov	r1, fp
   1a0b2:	f8dd 9034 	ldr.w	r9, [sp, #52]	; 0x34
   1a0b6:	9300      	str	r3, [sp, #0]
   1a0b8:	4623      	mov	r3, r4
   1a0ba:	4648      	mov	r0, r9
   1a0bc:	f7ff fa0b 	bl	194d6 <sp_2048_mont_mul_32>
   1a0c0:	4659      	mov	r1, fp
   1a0c2:	4622      	mov	r2, r4
   1a0c4:	9b07      	ldr	r3, [sp, #28]
   1a0c6:	f8dd 8038 	ldr.w	r8, [sp, #56]	; 0x38
   1a0ca:	4640      	mov	r0, r8
   1a0cc:	f7ff f9f7 	bl	194be <sp_2048_mont_sqr_32>
   1a0d0:	9b07      	ldr	r3, [sp, #28]
   1a0d2:	465a      	mov	r2, fp
   1a0d4:	4651      	mov	r1, sl
   1a0d6:	9f0f      	ldr	r7, [sp, #60]	; 0x3c
   1a0d8:	9300      	str	r3, [sp, #0]
   1a0da:	4623      	mov	r3, r4
   1a0dc:	4638      	mov	r0, r7
   1a0de:	f7ff f9fa 	bl	194d6 <sp_2048_mont_mul_32>
   1a0e2:	4622      	mov	r2, r4
   1a0e4:	4651      	mov	r1, sl
   1a0e6:	9b07      	ldr	r3, [sp, #28]
   1a0e8:	f8dd b040 	ldr.w	fp, [sp, #64]	; 0x40
   1a0ec:	4658      	mov	r0, fp
   1a0ee:	f7ff f9e6 	bl	194be <sp_2048_mont_sqr_32>
   1a0f2:	9b07      	ldr	r3, [sp, #28]
   1a0f4:	4649      	mov	r1, r9
   1a0f6:	4652      	mov	r2, sl
   1a0f8:	9811      	ldr	r0, [sp, #68]	; 0x44
   1a0fa:	9300      	str	r3, [sp, #0]
   1a0fc:	4623      	mov	r3, r4
   1a0fe:	f7ff f9ea 	bl	194d6 <sp_2048_mont_mul_32>
   1a102:	4649      	mov	r1, r9
   1a104:	4622      	mov	r2, r4
   1a106:	9b07      	ldr	r3, [sp, #28]
   1a108:	9812      	ldr	r0, [sp, #72]	; 0x48
   1a10a:	f7ff f9d8 	bl	194be <sp_2048_mont_sqr_32>
   1a10e:	9b07      	ldr	r3, [sp, #28]
   1a110:	464a      	mov	r2, r9
   1a112:	4641      	mov	r1, r8
   1a114:	9813      	ldr	r0, [sp, #76]	; 0x4c
   1a116:	9300      	str	r3, [sp, #0]
   1a118:	4623      	mov	r3, r4
   1a11a:	f7ff f9dc 	bl	194d6 <sp_2048_mont_mul_32>
   1a11e:	4641      	mov	r1, r8
   1a120:	4622      	mov	r2, r4
   1a122:	9b07      	ldr	r3, [sp, #28]
   1a124:	9814      	ldr	r0, [sp, #80]	; 0x50
   1a126:	f7ff f9ca 	bl	194be <sp_2048_mont_sqr_32>
   1a12a:	9b07      	ldr	r3, [sp, #28]
   1a12c:	4642      	mov	r2, r8
   1a12e:	4639      	mov	r1, r7
   1a130:	9815      	ldr	r0, [sp, #84]	; 0x54
   1a132:	9300      	str	r3, [sp, #0]
   1a134:	4623      	mov	r3, r4
   1a136:	f7ff f9ce 	bl	194d6 <sp_2048_mont_mul_32>
   1a13a:	4639      	mov	r1, r7
   1a13c:	4622      	mov	r2, r4
   1a13e:	9b07      	ldr	r3, [sp, #28]
   1a140:	9816      	ldr	r0, [sp, #88]	; 0x58
   1a142:	f7ff f9bc 	bl	194be <sp_2048_mont_sqr_32>
   1a146:	9b07      	ldr	r3, [sp, #28]
   1a148:	463a      	mov	r2, r7
   1a14a:	4659      	mov	r1, fp
   1a14c:	9817      	ldr	r0, [sp, #92]	; 0x5c
   1a14e:	9300      	str	r3, [sp, #0]
   1a150:	4623      	mov	r3, r4
   1a152:	f7ff f9c0 	bl	194d6 <sp_2048_mont_mul_32>
   1a156:	9b04      	ldr	r3, [sp, #16]
   1a158:	1e59      	subs	r1, r3, #1
   1a15a:	bf48      	it	mi
   1a15c:	f103 011e 	addmi.w	r1, r3, #30
   1a160:	9b05      	ldr	r3, [sp, #20]
   1a162:	1149      	asrs	r1, r1, #5
   1a164:	0088      	lsls	r0, r1, #2
   1a166:	f101 39ff 	add.w	r9, r1, #4294967295
   1a16a:	f853 7021 	ldr.w	r7, [r3, r1, lsl #2]
   1a16e:	9b04      	ldr	r3, [sp, #16]
   1a170:	f013 021f 	ands.w	r2, r3, #31
   1a174:	bf08      	it	eq
   1a176:	2220      	moveq	r2, #32
   1a178:	f1d3 0c00 	rsbs	ip, r3, #0
   1a17c:	f00c 0c03 	and.w	ip, ip, #3
   1a180:	f003 0303 	and.w	r3, r3, #3
   1a184:	bf58      	it	pl
   1a186:	f1cc 0300 	rsbpl	r3, ip, #0
   1a18a:	eba2 0803 	sub.w	r8, r2, r3
   1a18e:	f1b8 0f20 	cmp.w	r8, #32
   1a192:	d047      	beq.n	1a224 <sp_2048_mod_exp_32+0x24a>
   1a194:	f1b8 0f00 	cmp.w	r8, #0
   1a198:	da41      	bge.n	1a21e <sp_2048_mod_exp_32+0x244>
   1a19a:	1a9b      	subs	r3, r3, r2
   1a19c:	9a05      	ldr	r2, [sp, #20]
   1a19e:	f1a1 0902 	sub.w	r9, r1, #2
   1a1a2:	f108 0840 	add.w	r8, r8, #64	; 0x40
   1a1a6:	409f      	lsls	r7, r3
   1a1a8:	1811      	adds	r1, r2, r0
   1a1aa:	f851 1c04 	ldr.w	r1, [r1, #-4]
   1a1ae:	fa21 f208 	lsr.w	r2, r1, r8
   1a1b2:	433a      	orrs	r2, r7
   1a1b4:	fa01 f703 	lsl.w	r7, r1, r3
   1a1b8:	f002 02ff 	and.w	r2, r2, #255	; 0xff
   1a1bc:	ab18      	add	r3, sp, #96	; 0x60
   1a1be:	4628      	mov	r0, r5
   1a1c0:	eb03 0382 	add.w	r3, r3, r2, lsl #2
   1a1c4:	2280      	movs	r2, #128	; 0x80
   1a1c6:	f853 1c40 	ldr.w	r1, [r3, #-64]
   1a1ca:	f7f6 e930 	blx	1042c <memcpy@plt>
   1a1ce:	f1b9 0f00 	cmp.w	r9, #0
   1a1d2:	da30      	bge.n	1a236 <sp_2048_mod_exp_32+0x25c>
   1a1d4:	f1b8 0f03 	cmp.w	r8, #3
   1a1d8:	dc75      	bgt.n	1a2c6 <sp_2048_mod_exp_32+0x2ec>
   1a1da:	2280      	movs	r2, #128	; 0x80
   1a1dc:	2100      	movs	r1, #0
   1a1de:	18a8      	adds	r0, r5, r2
   1a1e0:	f7f6 e942 	blx	10468 <memset@plt>
   1a1e4:	4621      	mov	r1, r4
   1a1e6:	4628      	mov	r0, r5
   1a1e8:	9a07      	ldr	r2, [sp, #28]
   1a1ea:	f7ff f8fd 	bl	193e8 <sp_2048_mont_reduce_32>
   1a1ee:	4621      	mov	r1, r4
   1a1f0:	4628      	mov	r0, r5
   1a1f2:	f7fe f9ab 	bl	1854c <sp_2048_cmp_32>
   1a1f6:	43c0      	mvns	r0, r0
   1a1f8:	4622      	mov	r2, r4
   1a1fa:	0fc0      	lsrs	r0, r0, #31
   1a1fc:	4629      	mov	r1, r5
   1a1fe:	4243      	negs	r3, r0
   1a200:	4628      	mov	r0, r5
   1a202:	f7ff f8d6 	bl	193b2 <sp_2048_cond_sub_32.isra.0>
   1a206:	9803      	ldr	r0, [sp, #12]
   1a208:	f7f6 e904 	blx	10414 <free@plt>
   1a20c:	4630      	mov	r0, r6
   1a20e:	b019      	add	sp, #100	; 0x64
   1a210:	e8bd 8ff0 	ldmia.w	sp!, {r4, r5, r6, r7, r8, r9, sl, fp, pc}
   1a214:	2280      	movs	r2, #128	; 0x80
   1a216:	4649      	mov	r1, r9
   1a218:	f7f6 e908 	blx	1042c <memcpy@plt>
   1a21c:	e724      	b.n	1a068 <sp_2048_mod_exp_32+0x8e>
   1a21e:	d103      	bne.n	1a228 <sp_2048_mod_exp_32+0x24e>
   1a220:	b2fa      	uxtb	r2, r7
   1a222:	e7cb      	b.n	1a1bc <sp_2048_mod_exp_32+0x1e2>
   1a224:	f04f 081c 	mov.w	r8, #28
   1a228:	fa27 f208 	lsr.w	r2, r7, r8
   1a22c:	f1c8 0320 	rsb	r3, r8, #32
   1a230:	409f      	lsls	r7, r3
   1a232:	b2d2      	uxtb	r2, r2
   1a234:	e7c2      	b.n	1a1bc <sp_2048_mod_exp_32+0x1e2>
   1a236:	f1b8 0f00 	cmp.w	r8, #0
   1a23a:	d12e      	bne.n	1a29a <sp_2048_mod_exp_32+0x2c0>
   1a23c:	9b05      	ldr	r3, [sp, #20]
   1a23e:	f04f 081c 	mov.w	r8, #28
   1a242:	f853 7029 	ldr.w	r7, [r3, r9, lsl #2]
   1a246:	f109 39ff 	add.w	r9, r9, #4294967295
   1a24a:	ea4f 7a17 	mov.w	sl, r7, lsr #28
   1a24e:	013f      	lsls	r7, r7, #4
   1a250:	4622      	mov	r2, r4
   1a252:	4629      	mov	r1, r5
   1a254:	9b07      	ldr	r3, [sp, #28]
   1a256:	4628      	mov	r0, r5
   1a258:	f7ff f931 	bl	194be <sp_2048_mont_sqr_32>
   1a25c:	4622      	mov	r2, r4
   1a25e:	4629      	mov	r1, r5
   1a260:	9b07      	ldr	r3, [sp, #28]
   1a262:	4628      	mov	r0, r5
   1a264:	f7ff f92b 	bl	194be <sp_2048_mont_sqr_32>
   1a268:	4622      	mov	r2, r4
   1a26a:	4629      	mov	r1, r5
   1a26c:	9b07      	ldr	r3, [sp, #28]
   1a26e:	4628      	mov	r0, r5
   1a270:	f7ff f925 	bl	194be <sp_2048_mont_sqr_32>
   1a274:	4622      	mov	r2, r4
   1a276:	4629      	mov	r1, r5
   1a278:	9b07      	ldr	r3, [sp, #28]
   1a27a:	4628      	mov	r0, r5
   1a27c:	f7ff f91f 	bl	194be <sp_2048_mont_sqr_32>
   1a280:	ab18      	add	r3, sp, #96	; 0x60
   1a282:	4629      	mov	r1, r5
   1a284:	eb03 0a8a 	add.w	sl, r3, sl, lsl #2
   1a288:	9b07      	ldr	r3, [sp, #28]
   1a28a:	4628      	mov	r0, r5
   1a28c:	9300      	str	r3, [sp, #0]
   1a28e:	4623      	mov	r3, r4
   1a290:	f85a 2c40 	ldr.w	r2, [sl, #-64]
   1a294:	f7ff f91f 	bl	194d6 <sp_2048_mont_mul_32>
   1a298:	e799      	b.n	1a1ce <sp_2048_mod_exp_32+0x1f4>
   1a29a:	f1b8 0f03 	cmp.w	r8, #3
   1a29e:	ea4f 7a17 	mov.w	sl, r7, lsr #28
   1a2a2:	dc10      	bgt.n	1a2c6 <sp_2048_mod_exp_32+0x2ec>
   1a2a4:	9b05      	ldr	r3, [sp, #20]
   1a2a6:	f853 7029 	ldr.w	r7, [r3, r9, lsl #2]
   1a2aa:	f1c8 0304 	rsb	r3, r8, #4
   1a2ae:	f108 081c 	add.w	r8, r8, #28
   1a2b2:	f109 39ff 	add.w	r9, r9, #4294967295
   1a2b6:	fa27 f208 	lsr.w	r2, r7, r8
   1a2ba:	409f      	lsls	r7, r3
   1a2bc:	ea4a 0a02 	orr.w	sl, sl, r2
   1a2c0:	fa5f fa8a 	uxtb.w	sl, sl
   1a2c4:	e7c4      	b.n	1a250 <sp_2048_mod_exp_32+0x276>
   1a2c6:	ea4f 7a17 	mov.w	sl, r7, lsr #28
   1a2ca:	f1a8 0804 	sub.w	r8, r8, #4
   1a2ce:	013f      	lsls	r7, r7, #4
   1a2d0:	e7be      	b.n	1a250 <sp_2048_mod_exp_32+0x276>
   1a2d2:	f06f 0602 	mvn.w	r6, #2
   1a2d6:	e799      	b.n	1a20c <sp_2048_mod_exp_32+0x232>
   1a2d8:	f06f 067c 	mvn.w	r6, #124	; 0x7c
   1a2dc:	e796      	b.n	1a20c <sp_2048_mod_exp_32+0x232>

0001a2de <sp_RsaPublic_2048>:
   1a2de:	e92d 4ff0 	stmdb	sp!, {r4, r5, r6, r7, r8, r9, sl, fp, lr}
   1a2e2:	b085      	sub	sp, #20
   1a2e4:	461f      	mov	r7, r3
   1a2e6:	4683      	mov	fp, r0
   1a2e8:	468a      	mov	sl, r1
   1a2ea:	4691      	mov	r9, r2
   1a2ec:	9b0f      	ldr	r3, [sp, #60]	; 0x3c
   1a2ee:	681b      	ldr	r3, [r3, #0]
   1a2f0:	2bff      	cmp	r3, #255	; 0xff
   1a2f2:	f240 80f2 	bls.w	1a4da <sp_RsaPublic_2048+0x1fc>
   1a2f6:	4610      	mov	r0, r2
   1a2f8:	f000 ff6d 	bl	1b1d6 <sp_count_bits>
   1a2fc:	2820      	cmp	r0, #32
   1a2fe:	dd05      	ble.n	1a30c <sp_RsaPublic_2048+0x2e>
   1a300:	f06f 076e 	mvn.w	r7, #110	; 0x6e
   1a304:	4638      	mov	r0, r7
   1a306:	b005      	add	sp, #20
   1a308:	e8bd 8ff0 	ldmia.w	sp!, {r4, r5, r6, r7, r8, r9, sl, fp, pc}
   1a30c:	f5ba 7f80 	cmp.w	sl, #256	; 0x100
   1a310:	d8f6      	bhi.n	1a300 <sp_RsaPublic_2048+0x22>
   1a312:	4638      	mov	r0, r7
   1a314:	f000 ff5f 	bl	1b1d6 <sp_count_bits>
   1a318:	f5b0 6f00 	cmp.w	r0, #2048	; 0x800
   1a31c:	d1f0      	bne.n	1a300 <sp_RsaPublic_2048+0x22>
   1a31e:	683b      	ldr	r3, [r7, #0]
   1a320:	b11b      	cbz	r3, 1a32a <sp_RsaPublic_2048+0x4c>
   1a322:	68bb      	ldr	r3, [r7, #8]
   1a324:	07d9      	lsls	r1, r3, #31
   1a326:	f140 80db 	bpl.w	1a4e0 <sp_RsaPublic_2048+0x202>
   1a32a:	f44f 60a0 	mov.w	r0, #1280	; 0x500
   1a32e:	f7f6 e88a 	blx	10444 <malloc@plt>
   1a332:	4605      	mov	r5, r0
   1a334:	2800      	cmp	r0, #0
   1a336:	f000 80d6 	beq.w	1a4e6 <sp_RsaPublic_2048+0x208>
   1a33a:	f500 7880 	add.w	r8, r0, #256	; 0x100
   1a33e:	f500 7400 	add.w	r4, r0, #512	; 0x200
   1a342:	f500 6680 	add.w	r6, r0, #1024	; 0x400
   1a346:	4653      	mov	r3, sl
   1a348:	465a      	mov	r2, fp
   1a34a:	2140      	movs	r1, #64	; 0x40
   1a34c:	4640      	mov	r0, r8
   1a34e:	f7fd fed9 	bl	18104 <sp_2048_from_bin>
   1a352:	f8d9 9008 	ldr.w	r9, [r9, #8]
   1a356:	f1b9 0f00 	cmp.w	r9, #0
   1a35a:	f000 80bb 	beq.w	1a4d4 <sp_RsaPublic_2048+0x1f6>
   1a35e:	463a      	mov	r2, r7
   1a360:	4630      	mov	r0, r6
   1a362:	f7fe fb9d 	bl	18aa0 <sp_2048_from_mp>
   1a366:	f1b9 1f01 	cmp.w	r9, #65537	; 0x10001
   1a36a:	d143      	bne.n	1a3f4 <sp_RsaPublic_2048+0x116>
   1a36c:	a903      	add	r1, sp, #12
   1a36e:	f8d5 0400 	ldr.w	r0, [r5, #1024]	; 0x400
   1a372:	f7ff f8bd 	bl	194f0 <sp_2048_mont_setup.isra.0>
   1a376:	f44f 7280 	mov.w	r2, #256	; 0x100
   1a37a:	2100      	movs	r1, #0
   1a37c:	4628      	mov	r0, r5
   1a37e:	f7f6 e874 	blx	10468 <memset@plt>
   1a382:	4622      	mov	r2, r4
   1a384:	4631      	mov	r1, r6
   1a386:	4628      	mov	r0, r5
   1a388:	f7fe ff0d 	bl	191a6 <sp_2048_div_64_cond.constprop.0>
   1a38c:	4607      	mov	r7, r0
   1a38e:	2800      	cmp	r0, #0
   1a390:	d14a      	bne.n	1a428 <sp_RsaPublic_2048+0x14a>
   1a392:	f04f 0910 	mov.w	r9, #16
   1a396:	4632      	mov	r2, r6
   1a398:	4621      	mov	r1, r4
   1a39a:	9b03      	ldr	r3, [sp, #12]
   1a39c:	4620      	mov	r0, r4
   1a39e:	f7fe ffef 	bl	19380 <sp_2048_mont_sqr_64>
   1a3a2:	f1b9 0901 	subs.w	r9, r9, #1
   1a3a6:	d1f6      	bne.n	1a396 <sp_RsaPublic_2048+0xb8>
   1a3a8:	9b03      	ldr	r3, [sp, #12]
   1a3aa:	4642      	mov	r2, r8
   1a3ac:	4621      	mov	r1, r4
   1a3ae:	4620      	mov	r0, r4
   1a3b0:	9300      	str	r3, [sp, #0]
   1a3b2:	4633      	mov	r3, r6
   1a3b4:	f7fe fff0 	bl	19398 <sp_2048_mont_mul_64>
   1a3b8:	f505 7240 	add.w	r2, r5, #768	; 0x300
   1a3bc:	233f      	movs	r3, #63	; 0x3f
   1a3be:	f852 0d04 	ldr.w	r0, [r2, #-4]!
   1a3c2:	f8d2 1200 	ldr.w	r1, [r2, #512]	; 0x200
   1a3c6:	4288      	cmp	r0, r1
   1a3c8:	d101      	bne.n	1a3ce <sp_RsaPublic_2048+0xf0>
   1a3ca:	3b01      	subs	r3, #1
   1a3cc:	d1f7      	bne.n	1a3be <sp_RsaPublic_2048+0xe0>
   1a3ce:	f854 2023 	ldr.w	r2, [r4, r3, lsl #2]
   1a3d2:	f856 3023 	ldr.w	r3, [r6, r3, lsl #2]
   1a3d6:	429a      	cmp	r2, r3
   1a3d8:	d303      	bcc.n	1a3e2 <sp_RsaPublic_2048+0x104>
   1a3da:	4631      	mov	r1, r6
   1a3dc:	4620      	mov	r0, r4
   1a3de:	f7fd feff 	bl	181e0 <sp_2048_sub_in_place_64>
   1a3e2:	4620      	mov	r0, r4
   1a3e4:	990e      	ldr	r1, [sp, #56]	; 0x38
   1a3e6:	f7fd fec6 	bl	18176 <sp_2048_to_bin_64>
   1a3ea:	9a0f      	ldr	r2, [sp, #60]	; 0x3c
   1a3ec:	f44f 7380 	mov.w	r3, #256	; 0x100
   1a3f0:	6013      	str	r3, [r2, #0]
   1a3f2:	e019      	b.n	1a428 <sp_RsaPublic_2048+0x14a>
   1a3f4:	f1b9 0f03 	cmp.w	r9, #3
   1a3f8:	d11a      	bne.n	1a430 <sp_RsaPublic_2048+0x152>
   1a3fa:	4641      	mov	r1, r8
   1a3fc:	4620      	mov	r0, r4
   1a3fe:	f7fd ff0b 	bl	18218 <sp_2048_sqr_64>
   1a402:	4622      	mov	r2, r4
   1a404:	4631      	mov	r1, r6
   1a406:	f7fe fece 	bl	191a6 <sp_2048_div_64_cond.constprop.0>
   1a40a:	4607      	mov	r7, r0
   1a40c:	b960      	cbnz	r0, 1a428 <sp_RsaPublic_2048+0x14a>
   1a40e:	4622      	mov	r2, r4
   1a410:	4641      	mov	r1, r8
   1a412:	4620      	mov	r0, r4
   1a414:	f7fe fb57 	bl	18ac6 <sp_2048_mul_64>
   1a418:	4622      	mov	r2, r4
   1a41a:	4631      	mov	r1, r6
   1a41c:	4620      	mov	r0, r4
   1a41e:	f7fe fec2 	bl	191a6 <sp_2048_div_64_cond.constprop.0>
   1a422:	4607      	mov	r7, r0
   1a424:	2800      	cmp	r0, #0
   1a426:	d0dc      	beq.n	1a3e2 <sp_RsaPublic_2048+0x104>
   1a428:	4628      	mov	r0, r5
   1a42a:	f7f5 eff4 	blx	10414 <free@plt>
   1a42e:	e769      	b.n	1a304 <sp_RsaPublic_2048+0x26>
   1a430:	a903      	add	r1, sp, #12
   1a432:	f8d5 0400 	ldr.w	r0, [r5, #1024]	; 0x400
   1a436:	f7ff f85b 	bl	194f0 <sp_2048_mont_setup.isra.0>
   1a43a:	f44f 7280 	mov.w	r2, #256	; 0x100
   1a43e:	2100      	movs	r1, #0
   1a440:	4628      	mov	r0, r5
   1a442:	f7f6 e812 	blx	10468 <memset@plt>
   1a446:	462a      	mov	r2, r5
   1a448:	4631      	mov	r1, r6
   1a44a:	4628      	mov	r0, r5
   1a44c:	f7fe feab 	bl	191a6 <sp_2048_div_64_cond.constprop.0>
   1a450:	4607      	mov	r7, r0
   1a452:	2800      	cmp	r0, #0
   1a454:	d1e8      	bne.n	1a428 <sp_RsaPublic_2048+0x14a>
   1a456:	231f      	movs	r3, #31
   1a458:	fa29 f203 	lsr.w	r2, r9, r3
   1a45c:	4698      	mov	r8, r3
   1a45e:	3b01      	subs	r3, #1
   1a460:	b912      	cbnz	r2, 1a468 <sp_RsaPublic_2048+0x18a>
   1a462:	1c5a      	adds	r2, r3, #1
   1a464:	d1f8      	bne.n	1a458 <sp_RsaPublic_2048+0x17a>
   1a466:	4698      	mov	r8, r3
   1a468:	f44f 7280 	mov.w	r2, #256	; 0x100
   1a46c:	4629      	mov	r1, r5
   1a46e:	4620      	mov	r0, r4
   1a470:	f7f5 efdc 	blx	1042c <memcpy@plt>
   1a474:	f108 38ff 	add.w	r8, r8, #4294967295
   1a478:	f1b8 0f00 	cmp.w	r8, #0
   1a47c:	da17      	bge.n	1a4ae <sp_RsaPublic_2048+0x1d0>
   1a47e:	f505 7040 	add.w	r0, r5, #768	; 0x300
   1a482:	f44f 7280 	mov.w	r2, #256	; 0x100
   1a486:	2100      	movs	r1, #0
   1a488:	4680      	mov	r8, r0
   1a48a:	f7f5 efee 	blx	10468 <memset@plt>
   1a48e:	4620      	mov	r0, r4
   1a490:	4631      	mov	r1, r6
   1a492:	9a03      	ldr	r2, [sp, #12]
   1a494:	f7fe ff08 	bl	192a8 <sp_2048_mont_reduce_64>
   1a498:	4640      	mov	r0, r8
   1a49a:	233f      	movs	r3, #63	; 0x3f
   1a49c:	f850 1d04 	ldr.w	r1, [r0, #-4]!
   1a4a0:	f8d0 2200 	ldr.w	r2, [r0, #512]	; 0x200
   1a4a4:	4291      	cmp	r1, r2
   1a4a6:	d192      	bne.n	1a3ce <sp_RsaPublic_2048+0xf0>
   1a4a8:	3b01      	subs	r3, #1
   1a4aa:	d1f7      	bne.n	1a49c <sp_RsaPublic_2048+0x1be>
   1a4ac:	e78f      	b.n	1a3ce <sp_RsaPublic_2048+0xf0>
   1a4ae:	4632      	mov	r2, r6
   1a4b0:	4621      	mov	r1, r4
   1a4b2:	9b03      	ldr	r3, [sp, #12]
   1a4b4:	4620      	mov	r0, r4
   1a4b6:	f7fe ff63 	bl	19380 <sp_2048_mont_sqr_64>
   1a4ba:	fa29 f308 	lsr.w	r3, r9, r8
   1a4be:	07db      	lsls	r3, r3, #31
   1a4c0:	d5d8      	bpl.n	1a474 <sp_RsaPublic_2048+0x196>
   1a4c2:	9b03      	ldr	r3, [sp, #12]
   1a4c4:	462a      	mov	r2, r5
   1a4c6:	4621      	mov	r1, r4
   1a4c8:	4620      	mov	r0, r4
   1a4ca:	9300      	str	r3, [sp, #0]
   1a4cc:	4633      	mov	r3, r6
   1a4ce:	f7fe ff63 	bl	19398 <sp_2048_mont_mul_64>
   1a4d2:	e7cf      	b.n	1a474 <sp_RsaPublic_2048+0x196>
   1a4d4:	f06f 076f 	mvn.w	r7, #111	; 0x6f
   1a4d8:	e7a6      	b.n	1a428 <sp_RsaPublic_2048+0x14a>
   1a4da:	f06f 0770 	mvn.w	r7, #112	; 0x70
   1a4de:	e711      	b.n	1a304 <sp_RsaPublic_2048+0x26>
   1a4e0:	f06f 0702 	mvn.w	r7, #2
   1a4e4:	e70e      	b.n	1a304 <sp_RsaPublic_2048+0x26>
   1a4e6:	f06f 077c 	mvn.w	r7, #124	; 0x7c
   1a4ea:	e70b      	b.n	1a304 <sp_RsaPublic_2048+0x26>

0001a4ec <sp_RsaPrivate_2048>:
   1a4ec:	e92d 4ff0 	stmdb	sp!, {r4, r5, r6, r7, r8, r9, sl, fp, lr}
   1a4f0:	b085      	sub	sp, #20
   1a4f2:	469b      	mov	fp, r3
   1a4f4:	4602      	mov	r2, r0
   1a4f6:	4688      	mov	r8, r1
   1a4f8:	9c12      	ldr	r4, [sp, #72]	; 0x48
   1a4fa:	9b14      	ldr	r3, [sp, #80]	; 0x50
   1a4fc:	681b      	ldr	r3, [r3, #0]
   1a4fe:	2bff      	cmp	r3, #255	; 0xff
   1a500:	f240 809c 	bls.w	1a63c <sp_RsaPrivate_2048+0x150>
   1a504:	f5b1 7f80 	cmp.w	r1, #256	; 0x100
   1a508:	d905      	bls.n	1a516 <sp_RsaPrivate_2048+0x2a>
   1a50a:	f06f 0b6e 	mvn.w	fp, #110	; 0x6e
   1a50e:	4658      	mov	r0, fp
   1a510:	b005      	add	sp, #20
   1a512:	e8bd 8ff0 	ldmia.w	sp!, {r4, r5, r6, r7, r8, r9, sl, fp, pc}
   1a516:	4620      	mov	r0, r4
   1a518:	9203      	str	r2, [sp, #12]
   1a51a:	f000 fe5c 	bl	1b1d6 <sp_count_bits>
   1a51e:	f5b0 6f00 	cmp.w	r0, #2048	; 0x800
   1a522:	9a03      	ldr	r2, [sp, #12]
   1a524:	d1f1      	bne.n	1a50a <sp_RsaPrivate_2048+0x1e>
   1a526:	6823      	ldr	r3, [r4, #0]
   1a528:	b11b      	cbz	r3, 1a532 <sp_RsaPrivate_2048+0x46>
   1a52a:	68a3      	ldr	r3, [r4, #8]
   1a52c:	07db      	lsls	r3, r3, #31
   1a52e:	f140 8088 	bpl.w	1a642 <sp_RsaPrivate_2048+0x156>
   1a532:	f44f 60b0 	mov.w	r0, #1408	; 0x580
   1a536:	9203      	str	r2, [sp, #12]
   1a538:	f7f5 ef84 	blx	10444 <malloc@plt>
   1a53c:	4604      	mov	r4, r0
   1a53e:	2800      	cmp	r0, #0
   1a540:	f000 8082 	beq.w	1a648 <sp_RsaPrivate_2048+0x15c>
   1a544:	4643      	mov	r3, r8
   1a546:	f500 7700 	add.w	r7, r0, #512	; 0x200
   1a54a:	9a03      	ldr	r2, [sp, #12]
   1a54c:	2140      	movs	r1, #64	; 0x40
   1a54e:	f500 7640 	add.w	r6, r0, #768	; 0x300
   1a552:	f7fd fdd7 	bl	18104 <sp_2048_from_bin>
   1a556:	f500 7a20 	add.w	sl, r0, #640	; 0x280
   1a55a:	465a      	mov	r2, fp
   1a55c:	f500 7560 	add.w	r5, r0, #896	; 0x380
   1a560:	2120      	movs	r1, #32
   1a562:	f500 6990 	add.w	r9, r0, #1152	; 0x480
   1a566:	4638      	mov	r0, r7
   1a568:	f7fe fa9a 	bl	18aa0 <sp_2048_from_mp>
   1a56c:	f04f 0801 	mov.w	r8, #1
   1a570:	2120      	movs	r1, #32
   1a572:	9a0e      	ldr	r2, [sp, #56]	; 0x38
   1a574:	4650      	mov	r0, sl
   1a576:	f7fe fa93 	bl	18aa0 <sp_2048_from_mp>
   1a57a:	2120      	movs	r1, #32
   1a57c:	4630      	mov	r0, r6
   1a57e:	9a0f      	ldr	r2, [sp, #60]	; 0x3c
   1a580:	f7fe fa8e 	bl	18aa0 <sp_2048_from_mp>
   1a584:	f44f 6380 	mov.w	r3, #1024	; 0x400
   1a588:	4632      	mov	r2, r6
   1a58a:	e9cd 7800 	strd	r7, r8, [sp]
   1a58e:	4621      	mov	r1, r4
   1a590:	4628      	mov	r0, r5
   1a592:	f7ff fd22 	bl	19fda <sp_2048_mod_exp_32>
   1a596:	4683      	mov	fp, r0
   1a598:	2800      	cmp	r0, #0
   1a59a:	d146      	bne.n	1a62a <sp_RsaPrivate_2048+0x13e>
   1a59c:	2120      	movs	r1, #32
   1a59e:	4630      	mov	r0, r6
   1a5a0:	9a10      	ldr	r2, [sp, #64]	; 0x40
   1a5a2:	f7fe fa7d 	bl	18aa0 <sp_2048_from_mp>
   1a5a6:	f44f 6380 	mov.w	r3, #1024	; 0x400
   1a5aa:	4632      	mov	r2, r6
   1a5ac:	e9cd a800 	strd	sl, r8, [sp]
   1a5b0:	4621      	mov	r1, r4
   1a5b2:	4648      	mov	r0, r9
   1a5b4:	f7ff fd11 	bl	19fda <sp_2048_mod_exp_32>
   1a5b8:	4683      	mov	fp, r0
   1a5ba:	bbb0      	cbnz	r0, 1a62a <sp_RsaPrivate_2048+0x13e>
   1a5bc:	4649      	mov	r1, r9
   1a5be:	4628      	mov	r0, r5
   1a5c0:	f7fd fec1 	bl	18346 <sp_2048_sub_in_place_32>
   1a5c4:	4603      	mov	r3, r0
   1a5c6:	463a      	mov	r2, r7
   1a5c8:	4629      	mov	r1, r5
   1a5ca:	4628      	mov	r0, r5
   1a5cc:	f7fe f812 	bl	185f4 <sp_2048_cond_add_32>
   1a5d0:	4403      	add	r3, r0
   1a5d2:	4628      	mov	r0, r5
   1a5d4:	f7fe f80e 	bl	185f4 <sp_2048_cond_add_32>
   1a5d8:	2120      	movs	r1, #32
   1a5da:	4630      	mov	r0, r6
   1a5dc:	9a11      	ldr	r2, [sp, #68]	; 0x44
   1a5de:	f7fe fa5f 	bl	18aa0 <sp_2048_from_mp>
   1a5e2:	4632      	mov	r2, r6
   1a5e4:	4629      	mov	r1, r5
   1a5e6:	4628      	mov	r0, r5
   1a5e8:	f7fe fac5 	bl	18b76 <sp_2048_mul_32>
   1a5ec:	462a      	mov	r2, r5
   1a5ee:	4639      	mov	r1, r7
   1a5f0:	4628      	mov	r0, r5
   1a5f2:	f7ff fc8e 	bl	19f12 <sp_2048_div_32.constprop.0>
   1a5f6:	4683      	mov	fp, r0
   1a5f8:	b9b8      	cbnz	r0, 1a62a <sp_RsaPrivate_2048+0x13e>
   1a5fa:	462a      	mov	r2, r5
   1a5fc:	4651      	mov	r1, sl
   1a5fe:	4628      	mov	r0, r5
   1a600:	f7fe fab9 	bl	18b76 <sp_2048_mul_32>
   1a604:	2280      	movs	r2, #128	; 0x80
   1a606:	4659      	mov	r1, fp
   1a608:	f504 60a0 	add.w	r0, r4, #1280	; 0x500
   1a60c:	f7f5 ef2c 	blx	10468 <memset@plt>
   1a610:	462a      	mov	r2, r5
   1a612:	4649      	mov	r1, r9
   1a614:	4620      	mov	r0, r4
   1a616:	f7fd fdc4 	bl	181a2 <sp_2048_add_64>
   1a61a:	4620      	mov	r0, r4
   1a61c:	9913      	ldr	r1, [sp, #76]	; 0x4c
   1a61e:	f7fd fdaa 	bl	18176 <sp_2048_to_bin_64>
   1a622:	9a14      	ldr	r2, [sp, #80]	; 0x50
   1a624:	f44f 7380 	mov.w	r3, #256	; 0x100
   1a628:	6013      	str	r3, [r2, #0]
   1a62a:	4620      	mov	r0, r4
   1a62c:	f44f 61b0 	mov.w	r1, #1408	; 0x580
   1a630:	f7fd fd60 	bl	180f4 <ForceZero>
   1a634:	4620      	mov	r0, r4
   1a636:	f7f5 eeee 	blx	10414 <free@plt>
   1a63a:	e768      	b.n	1a50e <sp_RsaPrivate_2048+0x22>
   1a63c:	f06f 0b70 	mvn.w	fp, #112	; 0x70
   1a640:	e765      	b.n	1a50e <sp_RsaPrivate_2048+0x22>
   1a642:	f06f 0b02 	mvn.w	fp, #2
   1a646:	e762      	b.n	1a50e <sp_RsaPrivate_2048+0x22>
   1a648:	f06f 0b7c 	mvn.w	fp, #124	; 0x7c
   1a64c:	e75f      	b.n	1a50e <sp_RsaPrivate_2048+0x22>

0001a64e <sp_ModExp_2048>:
   1a64e:	e92d 41f0 	stmdb	sp!, {r4, r5, r6, r7, r8, lr}
   1a652:	4607      	mov	r7, r0
   1a654:	f5ad 6d81 	sub.w	sp, sp, #1032	; 0x408
   1a658:	4608      	mov	r0, r1
   1a65a:	460e      	mov	r6, r1
   1a65c:	4614      	mov	r4, r2
   1a65e:	4698      	mov	r8, r3
   1a660:	f000 fdb9 	bl	1b1d6 <sp_count_bits>
   1a664:	4605      	mov	r5, r0
   1a666:	4638      	mov	r0, r7
   1a668:	f000 fdb5 	bl	1b1d6 <sp_count_bits>
   1a66c:	f5b0 6f00 	cmp.w	r0, #2048	; 0x800
   1a670:	dd0c      	ble.n	1a68c <sp_ModExp_2048+0x3e>
   1a672:	f06f 046e 	mvn.w	r4, #110	; 0x6e
   1a676:	f44f 7280 	mov.w	r2, #256	; 0x100
   1a67a:	2100      	movs	r1, #0
   1a67c:	a802      	add	r0, sp, #8
   1a67e:	f7f5 eef4 	blx	10468 <memset@plt>
   1a682:	4620      	mov	r0, r4
   1a684:	f50d 6d81 	add.w	sp, sp, #1032	; 0x408
   1a688:	e8bd 81f0 	ldmia.w	sp!, {r4, r5, r6, r7, r8, pc}
   1a68c:	f5b5 6f00 	cmp.w	r5, #2048	; 0x800
   1a690:	dcef      	bgt.n	1a672 <sp_ModExp_2048+0x24>
   1a692:	4620      	mov	r0, r4
   1a694:	f000 fd9f 	bl	1b1d6 <sp_count_bits>
   1a698:	f5b0 6f00 	cmp.w	r0, #2048	; 0x800
   1a69c:	d1e9      	bne.n	1a672 <sp_ModExp_2048+0x24>
   1a69e:	6823      	ldr	r3, [r4, #0]
   1a6a0:	b113      	cbz	r3, 1a6a8 <sp_ModExp_2048+0x5a>
   1a6a2:	68a3      	ldr	r3, [r4, #8]
   1a6a4:	07db      	lsls	r3, r3, #31
   1a6a6:	d51f      	bpl.n	1a6e8 <sp_ModExp_2048+0x9a>
   1a6a8:	463a      	mov	r2, r7
   1a6aa:	2140      	movs	r1, #64	; 0x40
   1a6ac:	a882      	add	r0, sp, #520	; 0x208
   1a6ae:	f7fe f9f7 	bl	18aa0 <sp_2048_from_mp>
   1a6b2:	4632      	mov	r2, r6
   1a6b4:	2140      	movs	r1, #64	; 0x40
   1a6b6:	a802      	add	r0, sp, #8
   1a6b8:	ae42      	add	r6, sp, #264	; 0x108
   1a6ba:	f7fe f9f1 	bl	18aa0 <sp_2048_from_mp>
   1a6be:	4622      	mov	r2, r4
   1a6c0:	2140      	movs	r1, #64	; 0x40
   1a6c2:	4630      	mov	r0, r6
   1a6c4:	f7fe f9ec 	bl	18aa0 <sp_2048_from_mp>
   1a6c8:	a982      	add	r1, sp, #520	; 0x208
   1a6ca:	462b      	mov	r3, r5
   1a6cc:	9600      	str	r6, [sp, #0]
   1a6ce:	aa02      	add	r2, sp, #8
   1a6d0:	4608      	mov	r0, r1
   1a6d2:	f7ff fafa 	bl	19cca <sp_2048_mod_exp_64.constprop.0>
   1a6d6:	4604      	mov	r4, r0
   1a6d8:	2800      	cmp	r0, #0
   1a6da:	d1cc      	bne.n	1a676 <sp_ModExp_2048+0x28>
   1a6dc:	4641      	mov	r1, r8
   1a6de:	a882      	add	r0, sp, #520	; 0x208
   1a6e0:	f7fe fb4b 	bl	18d7a <sp_2048_to_mp>
   1a6e4:	4604      	mov	r4, r0
   1a6e6:	e7c6      	b.n	1a676 <sp_ModExp_2048+0x28>
   1a6e8:	f06f 0402 	mvn.w	r4, #2
   1a6ec:	e7c3      	b.n	1a676 <sp_ModExp_2048+0x28>

0001a6ee <sp_ModExp_1024>:
   1a6ee:	e92d 41f0 	stmdb	sp!, {r4, r5, r6, r7, r8, lr}
   1a6f2:	4680      	mov	r8, r0
   1a6f4:	f5ad 7d02 	sub.w	sp, sp, #520	; 0x208
   1a6f8:	4608      	mov	r0, r1
   1a6fa:	460f      	mov	r7, r1
   1a6fc:	4615      	mov	r5, r2
   1a6fe:	461e      	mov	r6, r3
   1a700:	f000 fd69 	bl	1b1d6 <sp_count_bits>
   1a704:	4604      	mov	r4, r0
   1a706:	4640      	mov	r0, r8
   1a708:	f000 fd65 	bl	1b1d6 <sp_count_bits>
   1a70c:	f5b0 6f80 	cmp.w	r0, #1024	; 0x400
   1a710:	dd0b      	ble.n	1a72a <sp_ModExp_1024+0x3c>
   1a712:	f06f 046e 	mvn.w	r4, #110	; 0x6e
   1a716:	2280      	movs	r2, #128	; 0x80
   1a718:	2100      	movs	r1, #0
   1a71a:	a802      	add	r0, sp, #8
   1a71c:	f7f5 eea4 	blx	10468 <memset@plt>
   1a720:	4620      	mov	r0, r4
   1a722:	f50d 7d02 	add.w	sp, sp, #520	; 0x208
   1a726:	e8bd 81f0 	ldmia.w	sp!, {r4, r5, r6, r7, r8, pc}
   1a72a:	f5b4 6f80 	cmp.w	r4, #1024	; 0x400
   1a72e:	dcf0      	bgt.n	1a712 <sp_ModExp_1024+0x24>
   1a730:	4628      	mov	r0, r5
   1a732:	f000 fd50 	bl	1b1d6 <sp_count_bits>
   1a736:	f5b0 6f80 	cmp.w	r0, #1024	; 0x400
   1a73a:	d1ea      	bne.n	1a712 <sp_ModExp_1024+0x24>
   1a73c:	682b      	ldr	r3, [r5, #0]
   1a73e:	b113      	cbz	r3, 1a746 <sp_ModExp_1024+0x58>
   1a740:	68ab      	ldr	r3, [r5, #8]
   1a742:	07db      	lsls	r3, r3, #31
   1a744:	d534      	bpl.n	1a7b0 <sp_ModExp_1024+0xc2>
   1a746:	4642      	mov	r2, r8
   1a748:	2120      	movs	r1, #32
   1a74a:	a842      	add	r0, sp, #264	; 0x108
   1a74c:	f7fe f9a8 	bl	18aa0 <sp_2048_from_mp>
   1a750:	463a      	mov	r2, r7
   1a752:	2120      	movs	r1, #32
   1a754:	a802      	add	r0, sp, #8
   1a756:	af22      	add	r7, sp, #136	; 0x88
   1a758:	f7fe f9a2 	bl	18aa0 <sp_2048_from_mp>
   1a75c:	462a      	mov	r2, r5
   1a75e:	2120      	movs	r1, #32
   1a760:	4638      	mov	r0, r7
   1a762:	f7fe f99d 	bl	18aa0 <sp_2048_from_mp>
   1a766:	2300      	movs	r3, #0
   1a768:	a942      	add	r1, sp, #264	; 0x108
   1a76a:	aa02      	add	r2, sp, #8
   1a76c:	4608      	mov	r0, r1
   1a76e:	e9cd 7300 	strd	r7, r3, [sp]
   1a772:	4623      	mov	r3, r4
   1a774:	f7ff fc31 	bl	19fda <sp_2048_mod_exp_32>
   1a778:	4604      	mov	r4, r0
   1a77a:	2800      	cmp	r0, #0
   1a77c:	d1cb      	bne.n	1a716 <sp_ModExp_1024+0x28>
   1a77e:	2280      	movs	r2, #128	; 0x80
   1a780:	4601      	mov	r1, r0
   1a782:	a862      	add	r0, sp, #392	; 0x188
   1a784:	f7f5 ee70 	blx	10468 <memset@plt>
   1a788:	4631      	mov	r1, r6
   1a78a:	a842      	add	r0, sp, #264	; 0x108
   1a78c:	f7fe faf5 	bl	18d7a <sp_2048_to_mp>
   1a790:	682a      	ldr	r2, [r5, #0]
   1a792:	4604      	mov	r4, r0
   1a794:	f106 0108 	add.w	r1, r6, #8
   1a798:	3a01      	subs	r2, #1
   1a79a:	2a00      	cmp	r2, #0
   1a79c:	da02      	bge.n	1a7a4 <sp_ModExp_1024+0xb6>
   1a79e:	3201      	adds	r2, #1
   1a7a0:	6032      	str	r2, [r6, #0]
   1a7a2:	e7b8      	b.n	1a716 <sp_ModExp_1024+0x28>
   1a7a4:	f851 3022 	ldr.w	r3, [r1, r2, lsl #2]
   1a7a8:	2b00      	cmp	r3, #0
   1a7aa:	d1f8      	bne.n	1a79e <sp_ModExp_1024+0xb0>
   1a7ac:	3a01      	subs	r2, #1
   1a7ae:	e7f4      	b.n	1a79a <sp_ModExp_1024+0xac>
   1a7b0:	f06f 0402 	mvn.w	r4, #2
   1a7b4:	e7af      	b.n	1a716 <sp_ModExp_1024+0x28>

0001a7b6 <sp_RsaPublic_3072>:
   1a7b6:	e92d 4ff0 	stmdb	sp!, {r4, r5, r6, r7, r8, r9, sl, fp, lr}
   1a7ba:	b085      	sub	sp, #20
   1a7bc:	461f      	mov	r7, r3
   1a7be:	4683      	mov	fp, r0
   1a7c0:	468a      	mov	sl, r1
   1a7c2:	4691      	mov	r9, r2
   1a7c4:	9b0f      	ldr	r3, [sp, #60]	; 0x3c
   1a7c6:	681b      	ldr	r3, [r3, #0]
   1a7c8:	f5b3 7fc0 	cmp.w	r3, #384	; 0x180
   1a7cc:	f0c0 80f2 	bcc.w	1a9b4 <sp_RsaPublic_3072+0x1fe>
   1a7d0:	4610      	mov	r0, r2
   1a7d2:	f000 fd00 	bl	1b1d6 <sp_count_bits>
   1a7d6:	2820      	cmp	r0, #32
   1a7d8:	dd05      	ble.n	1a7e6 <sp_RsaPublic_3072+0x30>
   1a7da:	f06f 076e 	mvn.w	r7, #110	; 0x6e
   1a7de:	4638      	mov	r0, r7
   1a7e0:	b005      	add	sp, #20
   1a7e2:	e8bd 8ff0 	ldmia.w	sp!, {r4, r5, r6, r7, r8, r9, sl, fp, pc}
   1a7e6:	f5ba 7fc0 	cmp.w	sl, #384	; 0x180
   1a7ea:	d8f6      	bhi.n	1a7da <sp_RsaPublic_3072+0x24>
   1a7ec:	4638      	mov	r0, r7
   1a7ee:	f000 fcf2 	bl	1b1d6 <sp_count_bits>
   1a7f2:	f5b0 6f40 	cmp.w	r0, #3072	; 0xc00
   1a7f6:	d1f0      	bne.n	1a7da <sp_RsaPublic_3072+0x24>
   1a7f8:	683b      	ldr	r3, [r7, #0]
   1a7fa:	b11b      	cbz	r3, 1a804 <sp_RsaPublic_3072+0x4e>
   1a7fc:	68bb      	ldr	r3, [r7, #8]
   1a7fe:	07d9      	lsls	r1, r3, #31
   1a800:	f140 80db 	bpl.w	1a9ba <sp_RsaPublic_3072+0x204>
   1a804:	f44f 60f0 	mov.w	r0, #1920	; 0x780
   1a808:	f7f5 ee1c 	blx	10444 <malloc@plt>
   1a80c:	4605      	mov	r5, r0
   1a80e:	2800      	cmp	r0, #0
   1a810:	f000 80d6 	beq.w	1a9c0 <sp_RsaPublic_3072+0x20a>
   1a814:	f500 78c0 	add.w	r8, r0, #384	; 0x180
   1a818:	f500 7440 	add.w	r4, r0, #768	; 0x300
   1a81c:	f500 66c0 	add.w	r6, r0, #1536	; 0x600
   1a820:	4653      	mov	r3, sl
   1a822:	465a      	mov	r2, fp
   1a824:	2160      	movs	r1, #96	; 0x60
   1a826:	4640      	mov	r0, r8
   1a828:	f7fd fc6c 	bl	18104 <sp_2048_from_bin>
   1a82c:	f8d9 9008 	ldr.w	r9, [r9, #8]
   1a830:	f1b9 0f00 	cmp.w	r9, #0
   1a834:	f000 80bb 	beq.w	1a9ae <sp_RsaPublic_3072+0x1f8>
   1a838:	463a      	mov	r2, r7
   1a83a:	4630      	mov	r0, r6
   1a83c:	f7fe f930 	bl	18aa0 <sp_2048_from_mp>
   1a840:	f1b9 1f01 	cmp.w	r9, #65537	; 0x10001
   1a844:	d143      	bne.n	1a8ce <sp_RsaPublic_3072+0x118>
   1a846:	a903      	add	r1, sp, #12
   1a848:	f8d5 0600 	ldr.w	r0, [r5, #1536]	; 0x600
   1a84c:	f7fe fe50 	bl	194f0 <sp_2048_mont_setup.isra.0>
   1a850:	f44f 72c0 	mov.w	r2, #384	; 0x180
   1a854:	2100      	movs	r1, #0
   1a856:	4628      	mov	r0, r5
   1a858:	f7f5 ee06 	blx	10468 <memset@plt>
   1a85c:	4622      	mov	r2, r4
   1a85e:	4631      	mov	r1, r6
   1a860:	4628      	mov	r0, r5
   1a862:	f7fe fade 	bl	18e22 <sp_3072_div_96_cond.constprop.0>
   1a866:	4607      	mov	r7, r0
   1a868:	2800      	cmp	r0, #0
   1a86a:	d14a      	bne.n	1a902 <sp_RsaPublic_3072+0x14c>
   1a86c:	f04f 0910 	mov.w	r9, #16
   1a870:	4632      	mov	r2, r6
   1a872:	4621      	mov	r1, r4
   1a874:	9b03      	ldr	r3, [sp, #12]
   1a876:	4620      	mov	r0, r4
   1a878:	f7fe fbc3 	bl	19002 <sp_3072_mont_sqr_96>
   1a87c:	f1b9 0901 	subs.w	r9, r9, #1
   1a880:	d1f6      	bne.n	1a870 <sp_RsaPublic_3072+0xba>
   1a882:	9b03      	ldr	r3, [sp, #12]
   1a884:	4642      	mov	r2, r8
   1a886:	4621      	mov	r1, r4
   1a888:	4620      	mov	r0, r4
   1a88a:	9300      	str	r3, [sp, #0]
   1a88c:	4633      	mov	r3, r6
   1a88e:	f7fe fbc4 	bl	1901a <sp_3072_mont_mul_96>
   1a892:	f505 6290 	add.w	r2, r5, #1152	; 0x480
   1a896:	235f      	movs	r3, #95	; 0x5f
   1a898:	f852 0d04 	ldr.w	r0, [r2, #-4]!
   1a89c:	f8d2 1300 	ldr.w	r1, [r2, #768]	; 0x300
   1a8a0:	4288      	cmp	r0, r1
   1a8a2:	d101      	bne.n	1a8a8 <sp_RsaPublic_3072+0xf2>
   1a8a4:	3b01      	subs	r3, #1
   1a8a6:	d1f7      	bne.n	1a898 <sp_RsaPublic_3072+0xe2>
   1a8a8:	f854 2023 	ldr.w	r2, [r4, r3, lsl #2]
   1a8ac:	f856 3023 	ldr.w	r3, [r6, r3, lsl #2]
   1a8b0:	429a      	cmp	r2, r3
   1a8b2:	d303      	bcc.n	1a8bc <sp_RsaPublic_3072+0x106>
   1a8b4:	4631      	mov	r1, r6
   1a8b6:	4620      	mov	r0, r4
   1a8b8:	f7fd feee 	bl	18698 <sp_3072_sub_in_place_96>
   1a8bc:	4620      	mov	r0, r4
   1a8be:	990e      	ldr	r1, [sp, #56]	; 0x38
   1a8c0:	f7fd feb5 	bl	1862e <sp_3072_to_bin_96>
   1a8c4:	9a0f      	ldr	r2, [sp, #60]	; 0x3c
   1a8c6:	f44f 73c0 	mov.w	r3, #384	; 0x180
   1a8ca:	6013      	str	r3, [r2, #0]
   1a8cc:	e019      	b.n	1a902 <sp_RsaPublic_3072+0x14c>
   1a8ce:	f1b9 0f03 	cmp.w	r9, #3
   1a8d2:	d11a      	bne.n	1a90a <sp_RsaPublic_3072+0x154>
   1a8d4:	4641      	mov	r1, r8
   1a8d6:	4620      	mov	r0, r4
   1a8d8:	f7fd fefa 	bl	186d0 <sp_3072_sqr_96>
   1a8dc:	4622      	mov	r2, r4
   1a8de:	4631      	mov	r1, r6
   1a8e0:	f7fe fa9f 	bl	18e22 <sp_3072_div_96_cond.constprop.0>
   1a8e4:	4607      	mov	r7, r0
   1a8e6:	b960      	cbnz	r0, 1a902 <sp_RsaPublic_3072+0x14c>
   1a8e8:	4622      	mov	r2, r4
   1a8ea:	4641      	mov	r1, r8
   1a8ec:	4620      	mov	r0, r4
   1a8ee:	f7fe f992 	bl	18c16 <sp_3072_mul_96>
   1a8f2:	4622      	mov	r2, r4
   1a8f4:	4631      	mov	r1, r6
   1a8f6:	4620      	mov	r0, r4
   1a8f8:	f7fe fa93 	bl	18e22 <sp_3072_div_96_cond.constprop.0>
   1a8fc:	4607      	mov	r7, r0
   1a8fe:	2800      	cmp	r0, #0
   1a900:	d0dc      	beq.n	1a8bc <sp_RsaPublic_3072+0x106>
   1a902:	4628      	mov	r0, r5
   1a904:	f7f5 ed86 	blx	10414 <free@plt>
   1a908:	e769      	b.n	1a7de <sp_RsaPublic_3072+0x28>
   1a90a:	a903      	add	r1, sp, #12
   1a90c:	f8d5 0600 	ldr.w	r0, [r5, #1536]	; 0x600
   1a910:	f7fe fdee 	bl	194f0 <sp_2048_mont_setup.isra.0>
   1a914:	f44f 72c0 	mov.w	r2, #384	; 0x180
   1a918:	2100      	movs	r1, #0
   1a91a:	4628      	mov	r0, r5
   1a91c:	f7f5 eda4 	blx	10468 <memset@plt>
   1a920:	462a      	mov	r2, r5
   1a922:	4631      	mov	r1, r6
   1a924:	4628      	mov	r0, r5
   1a926:	f7fe fa7c 	bl	18e22 <sp_3072_div_96_cond.constprop.0>
   1a92a:	4607      	mov	r7, r0
   1a92c:	2800      	cmp	r0, #0
   1a92e:	d1e8      	bne.n	1a902 <sp_RsaPublic_3072+0x14c>
   1a930:	231f      	movs	r3, #31
   1a932:	fa29 f203 	lsr.w	r2, r9, r3
   1a936:	4698      	mov	r8, r3
   1a938:	3b01      	subs	r3, #1
   1a93a:	b912      	cbnz	r2, 1a942 <sp_RsaPublic_3072+0x18c>
   1a93c:	1c5a      	adds	r2, r3, #1
   1a93e:	d1f8      	bne.n	1a932 <sp_RsaPublic_3072+0x17c>
   1a940:	4698      	mov	r8, r3
   1a942:	f44f 72c0 	mov.w	r2, #384	; 0x180
   1a946:	4629      	mov	r1, r5
   1a948:	4620      	mov	r0, r4
   1a94a:	f7f5 ed70 	blx	1042c <memcpy@plt>
   1a94e:	f108 38ff 	add.w	r8, r8, #4294967295
   1a952:	f1b8 0f00 	cmp.w	r8, #0
   1a956:	da17      	bge.n	1a988 <sp_RsaPublic_3072+0x1d2>
   1a958:	f505 6090 	add.w	r0, r5, #1152	; 0x480
   1a95c:	f44f 72c0 	mov.w	r2, #384	; 0x180
   1a960:	2100      	movs	r1, #0
   1a962:	4680      	mov	r8, r0
   1a964:	f7f5 ed80 	blx	10468 <memset@plt>
   1a968:	4620      	mov	r0, r4
   1a96a:	4631      	mov	r1, r6
   1a96c:	9a03      	ldr	r2, [sp, #12]
   1a96e:	f7fe fadc 	bl	18f2a <sp_3072_mont_reduce_96>
   1a972:	4640      	mov	r0, r8
   1a974:	235f      	movs	r3, #95	; 0x5f
   1a976:	f850 1d04 	ldr.w	r1, [r0, #-4]!
   1a97a:	f8d0 2300 	ldr.w	r2, [r0, #768]	; 0x300
   1a97e:	4291      	cmp	r1, r2
   1a980:	d192      	bne.n	1a8a8 <sp_RsaPublic_3072+0xf2>
   1a982:	3b01      	subs	r3, #1
   1a984:	d1f7      	bne.n	1a976 <sp_RsaPublic_3072+0x1c0>
   1a986:	e78f      	b.n	1a8a8 <sp_RsaPublic_3072+0xf2>
   1a988:	4632      	mov	r2, r6
   1a98a:	4621      	mov	r1, r4
   1a98c:	9b03      	ldr	r3, [sp, #12]
   1a98e:	4620      	mov	r0, r4
   1a990:	f7fe fb37 	bl	19002 <sp_3072_mont_sqr_96>
   1a994:	fa29 f308 	lsr.w	r3, r9, r8
   1a998:	07db      	lsls	r3, r3, #31
   1a99a:	d5d8      	bpl.n	1a94e <sp_RsaPublic_3072+0x198>
   1a99c:	9b03      	ldr	r3, [sp, #12]
   1a99e:	462a      	mov	r2, r5
   1a9a0:	4621      	mov	r1, r4
   1a9a2:	4620      	mov	r0, r4
   1a9a4:	9300      	str	r3, [sp, #0]
   1a9a6:	4633      	mov	r3, r6
   1a9a8:	f7fe fb37 	bl	1901a <sp_3072_mont_mul_96>
   1a9ac:	e7cf      	b.n	1a94e <sp_RsaPublic_3072+0x198>
   1a9ae:	f06f 076f 	mvn.w	r7, #111	; 0x6f
   1a9b2:	e7a6      	b.n	1a902 <sp_RsaPublic_3072+0x14c>
   1a9b4:	f06f 0770 	mvn.w	r7, #112	; 0x70
   1a9b8:	e711      	b.n	1a7de <sp_RsaPublic_3072+0x28>
   1a9ba:	f06f 0702 	mvn.w	r7, #2
   1a9be:	e70e      	b.n	1a7de <sp_RsaPublic_3072+0x28>
   1a9c0:	f06f 077c 	mvn.w	r7, #124	; 0x7c
   1a9c4:	e70b      	b.n	1a7de <sp_RsaPublic_3072+0x28>

0001a9c6 <sp_RsaPrivate_3072>:
   1a9c6:	e92d 4ff0 	stmdb	sp!, {r4, r5, r6, r7, r8, r9, sl, fp, lr}
   1a9ca:	b085      	sub	sp, #20
   1a9cc:	469b      	mov	fp, r3
   1a9ce:	4602      	mov	r2, r0
   1a9d0:	4688      	mov	r8, r1
   1a9d2:	9c12      	ldr	r4, [sp, #72]	; 0x48
   1a9d4:	9b14      	ldr	r3, [sp, #80]	; 0x50
   1a9d6:	681b      	ldr	r3, [r3, #0]
   1a9d8:	f5b3 7fc0 	cmp.w	r3, #384	; 0x180
   1a9dc:	f0c0 809c 	bcc.w	1ab18 <sp_RsaPrivate_3072+0x152>
   1a9e0:	f5b1 7fc0 	cmp.w	r1, #384	; 0x180
   1a9e4:	d905      	bls.n	1a9f2 <sp_RsaPrivate_3072+0x2c>
   1a9e6:	f06f 0b6e 	mvn.w	fp, #110	; 0x6e
   1a9ea:	4658      	mov	r0, fp
   1a9ec:	b005      	add	sp, #20
   1a9ee:	e8bd 8ff0 	ldmia.w	sp!, {r4, r5, r6, r7, r8, r9, sl, fp, pc}
   1a9f2:	4620      	mov	r0, r4
   1a9f4:	9203      	str	r2, [sp, #12]
   1a9f6:	f000 fbee 	bl	1b1d6 <sp_count_bits>
   1a9fa:	f5b0 6f40 	cmp.w	r0, #3072	; 0xc00
   1a9fe:	9a03      	ldr	r2, [sp, #12]
   1aa00:	d1f1      	bne.n	1a9e6 <sp_RsaPrivate_3072+0x20>
   1aa02:	6823      	ldr	r3, [r4, #0]
   1aa04:	b11b      	cbz	r3, 1aa0e <sp_RsaPrivate_3072+0x48>
   1aa06:	68a3      	ldr	r3, [r4, #8]
   1aa08:	07db      	lsls	r3, r3, #31
   1aa0a:	f140 8088 	bpl.w	1ab1e <sp_RsaPrivate_3072+0x158>
   1aa0e:	f44f 6004 	mov.w	r0, #2112	; 0x840
   1aa12:	9203      	str	r2, [sp, #12]
   1aa14:	f7f5 ed16 	blx	10444 <malloc@plt>
   1aa18:	4604      	mov	r4, r0
   1aa1a:	2800      	cmp	r0, #0
   1aa1c:	f000 8082 	beq.w	1ab24 <sp_RsaPrivate_3072+0x15e>
   1aa20:	4643      	mov	r3, r8
   1aa22:	f500 7740 	add.w	r7, r0, #768	; 0x300
   1aa26:	9a03      	ldr	r2, [sp, #12]
   1aa28:	2160      	movs	r1, #96	; 0x60
   1aa2a:	f500 6690 	add.w	r6, r0, #1152	; 0x480
   1aa2e:	f7fd fb69 	bl	18104 <sp_2048_from_bin>
   1aa32:	f500 7a70 	add.w	sl, r0, #960	; 0x3c0
   1aa36:	465a      	mov	r2, fp
   1aa38:	f500 65a8 	add.w	r5, r0, #1344	; 0x540
   1aa3c:	2130      	movs	r1, #48	; 0x30
   1aa3e:	f500 69d8 	add.w	r9, r0, #1728	; 0x6c0
   1aa42:	4638      	mov	r0, r7
   1aa44:	f7fe f82c 	bl	18aa0 <sp_2048_from_mp>
   1aa48:	f04f 0801 	mov.w	r8, #1
   1aa4c:	2130      	movs	r1, #48	; 0x30
   1aa4e:	9a0e      	ldr	r2, [sp, #56]	; 0x38
   1aa50:	4650      	mov	r0, sl
   1aa52:	f7fe f825 	bl	18aa0 <sp_2048_from_mp>
   1aa56:	2130      	movs	r1, #48	; 0x30
   1aa58:	4630      	mov	r0, r6
   1aa5a:	9a0f      	ldr	r2, [sp, #60]	; 0x3c
   1aa5c:	f7fe f820 	bl	18aa0 <sp_2048_from_mp>
   1aa60:	f44f 63c0 	mov.w	r3, #1536	; 0x600
   1aa64:	4632      	mov	r2, r6
   1aa66:	e9cd 7800 	strd	r7, r8, [sp]
   1aa6a:	4621      	mov	r1, r4
   1aa6c:	4628      	mov	r0, r5
   1aa6e:	f7fe ff44 	bl	198fa <sp_3072_mod_exp_48>
   1aa72:	4683      	mov	fp, r0
   1aa74:	2800      	cmp	r0, #0
   1aa76:	d146      	bne.n	1ab06 <sp_RsaPrivate_3072+0x140>
   1aa78:	2130      	movs	r1, #48	; 0x30
   1aa7a:	4630      	mov	r0, r6
   1aa7c:	9a10      	ldr	r2, [sp, #64]	; 0x40
   1aa7e:	f7fe f80f 	bl	18aa0 <sp_2048_from_mp>
   1aa82:	f44f 63c0 	mov.w	r3, #1536	; 0x600
   1aa86:	4632      	mov	r2, r6
   1aa88:	e9cd a800 	strd	sl, r8, [sp]
   1aa8c:	4621      	mov	r1, r4
   1aa8e:	4648      	mov	r0, r9
   1aa90:	f7fe ff33 	bl	198fa <sp_3072_mod_exp_48>
   1aa94:	4683      	mov	fp, r0
   1aa96:	bbb0      	cbnz	r0, 1ab06 <sp_RsaPrivate_3072+0x140>
   1aa98:	4649      	mov	r1, r9
   1aa9a:	4628      	mov	r0, r5
   1aa9c:	f7fd feb5 	bl	1880a <sp_3072_sub_in_place_48>
   1aaa0:	4603      	mov	r3, r0
   1aaa2:	463a      	mov	r2, r7
   1aaa4:	4629      	mov	r1, r5
   1aaa6:	4628      	mov	r0, r5
   1aaa8:	f7fd ffdd 	bl	18a66 <sp_3072_cond_add_48>
   1aaac:	4403      	add	r3, r0
   1aaae:	4628      	mov	r0, r5
   1aab0:	f7fd ffd9 	bl	18a66 <sp_3072_cond_add_48>
   1aab4:	2130      	movs	r1, #48	; 0x30
   1aab6:	4630      	mov	r0, r6
   1aab8:	9a11      	ldr	r2, [sp, #68]	; 0x44
   1aaba:	f7fd fff1 	bl	18aa0 <sp_2048_from_mp>
   1aabe:	4632      	mov	r2, r6
   1aac0:	4629      	mov	r1, r5
   1aac2:	4628      	mov	r0, r5
   1aac4:	f7fe f905 	bl	18cd2 <sp_3072_mul_48>
   1aac8:	462a      	mov	r2, r5
   1aaca:	4639      	mov	r1, r7
   1aacc:	4628      	mov	r0, r5
   1aace:	f7fe feae 	bl	1982e <sp_3072_div_48.constprop.0>
   1aad2:	4683      	mov	fp, r0
   1aad4:	b9b8      	cbnz	r0, 1ab06 <sp_RsaPrivate_3072+0x140>
   1aad6:	462a      	mov	r2, r5
   1aad8:	4651      	mov	r1, sl
   1aada:	4628      	mov	r0, r5
   1aadc:	f7fe f8f9 	bl	18cd2 <sp_3072_mul_48>
   1aae0:	22c0      	movs	r2, #192	; 0xc0
   1aae2:	4659      	mov	r1, fp
   1aae4:	f504 60f0 	add.w	r0, r4, #1920	; 0x780
   1aae8:	f7f5 ecbe 	blx	10468 <memset@plt>
   1aaec:	462a      	mov	r2, r5
   1aaee:	4649      	mov	r1, r9
   1aaf0:	4620      	mov	r0, r4
   1aaf2:	f7fd fdb2 	bl	1865a <sp_3072_add_96>
   1aaf6:	4620      	mov	r0, r4
   1aaf8:	9913      	ldr	r1, [sp, #76]	; 0x4c
   1aafa:	f7fd fd98 	bl	1862e <sp_3072_to_bin_96>
   1aafe:	9a14      	ldr	r2, [sp, #80]	; 0x50
   1ab00:	f44f 73c0 	mov.w	r3, #384	; 0x180
   1ab04:	6013      	str	r3, [r2, #0]
   1ab06:	4620      	mov	r0, r4
   1ab08:	f44f 6104 	mov.w	r1, #2112	; 0x840
   1ab0c:	f7fd faf2 	bl	180f4 <ForceZero>
   1ab10:	4620      	mov	r0, r4
   1ab12:	f7f5 ec80 	blx	10414 <free@plt>
   1ab16:	e768      	b.n	1a9ea <sp_RsaPrivate_3072+0x24>
   1ab18:	f06f 0b70 	mvn.w	fp, #112	; 0x70
   1ab1c:	e765      	b.n	1a9ea <sp_RsaPrivate_3072+0x24>
   1ab1e:	f06f 0b02 	mvn.w	fp, #2
   1ab22:	e762      	b.n	1a9ea <sp_RsaPrivate_3072+0x24>
   1ab24:	f06f 0b7c 	mvn.w	fp, #124	; 0x7c
   1ab28:	e75f      	b.n	1a9ea <sp_RsaPrivate_3072+0x24>

0001ab2a <sp_ModExp_3072>:
   1ab2a:	e92d 41f0 	stmdb	sp!, {r4, r5, r6, r7, r8, lr}
   1ab2e:	4607      	mov	r7, r0
   1ab30:	f5ad 6dc1 	sub.w	sp, sp, #1544	; 0x608
   1ab34:	4608      	mov	r0, r1
   1ab36:	460e      	mov	r6, r1
   1ab38:	4614      	mov	r4, r2
   1ab3a:	4698      	mov	r8, r3
   1ab3c:	f000 fb4b 	bl	1b1d6 <sp_count_bits>
   1ab40:	4605      	mov	r5, r0
   1ab42:	4638      	mov	r0, r7
   1ab44:	f000 fb47 	bl	1b1d6 <sp_count_bits>
   1ab48:	f5b0 6f40 	cmp.w	r0, #3072	; 0xc00
   1ab4c:	dd0c      	ble.n	1ab68 <sp_ModExp_3072+0x3e>
   1ab4e:	f06f 046e 	mvn.w	r4, #110	; 0x6e
   1ab52:	f44f 72c0 	mov.w	r2, #384	; 0x180
   1ab56:	2100      	movs	r1, #0
   1ab58:	a802      	add	r0, sp, #8
   1ab5a:	f7f5 ec86 	blx	10468 <memset@plt>
   1ab5e:	4620      	mov	r0, r4
   1ab60:	f50d 6dc1 	add.w	sp, sp, #1544	; 0x608
   1ab64:	e8bd 81f0 	ldmia.w	sp!, {r4, r5, r6, r7, r8, pc}
   1ab68:	f5b5 6f40 	cmp.w	r5, #3072	; 0xc00
   1ab6c:	dcef      	bgt.n	1ab4e <sp_ModExp_3072+0x24>
   1ab6e:	4620      	mov	r0, r4
   1ab70:	f000 fb31 	bl	1b1d6 <sp_count_bits>
   1ab74:	f5b0 6f40 	cmp.w	r0, #3072	; 0xc00
   1ab78:	d1e9      	bne.n	1ab4e <sp_ModExp_3072+0x24>
   1ab7a:	6823      	ldr	r3, [r4, #0]
   1ab7c:	b113      	cbz	r3, 1ab84 <sp_ModExp_3072+0x5a>
   1ab7e:	68a3      	ldr	r3, [r4, #8]
   1ab80:	07db      	lsls	r3, r3, #31
   1ab82:	d51f      	bpl.n	1abc4 <sp_ModExp_3072+0x9a>
   1ab84:	463a      	mov	r2, r7
   1ab86:	2160      	movs	r1, #96	; 0x60
   1ab88:	a8c2      	add	r0, sp, #776	; 0x308
   1ab8a:	f7fd ff89 	bl	18aa0 <sp_2048_from_mp>
   1ab8e:	4632      	mov	r2, r6
   1ab90:	2160      	movs	r1, #96	; 0x60
   1ab92:	a802      	add	r0, sp, #8
   1ab94:	ae62      	add	r6, sp, #392	; 0x188
   1ab96:	f7fd ff83 	bl	18aa0 <sp_2048_from_mp>
   1ab9a:	4622      	mov	r2, r4
   1ab9c:	2160      	movs	r1, #96	; 0x60
   1ab9e:	4630      	mov	r0, r6
   1aba0:	f7fd ff7e 	bl	18aa0 <sp_2048_from_mp>
   1aba4:	a9c2      	add	r1, sp, #776	; 0x308
   1aba6:	462b      	mov	r3, r5
   1aba8:	9600      	str	r6, [sp, #0]
   1abaa:	aa02      	add	r2, sp, #8
   1abac:	4608      	mov	r0, r1
   1abae:	f7fe fd1a 	bl	195e6 <sp_3072_mod_exp_96.constprop.0>
   1abb2:	4604      	mov	r4, r0
   1abb4:	2800      	cmp	r0, #0
   1abb6:	d1cc      	bne.n	1ab52 <sp_ModExp_3072+0x28>
   1abb8:	4641      	mov	r1, r8
   1abba:	a8c2      	add	r0, sp, #776	; 0x308
   1abbc:	f7fe f8f9 	bl	18db2 <sp_3072_to_mp>
   1abc0:	4604      	mov	r4, r0
   1abc2:	e7c6      	b.n	1ab52 <sp_ModExp_3072+0x28>
   1abc4:	f06f 0402 	mvn.w	r4, #2
   1abc8:	e7c3      	b.n	1ab52 <sp_ModExp_3072+0x28>

0001abca <sp_ModExp_1536>:
   1abca:	e92d 41f0 	stmdb	sp!, {r4, r5, r6, r7, r8, lr}
   1abce:	4680      	mov	r8, r0
   1abd0:	f5ad 7d42 	sub.w	sp, sp, #776	; 0x308
   1abd4:	4608      	mov	r0, r1
   1abd6:	460f      	mov	r7, r1
   1abd8:	4615      	mov	r5, r2
   1abda:	461e      	mov	r6, r3
   1abdc:	f000 fafb 	bl	1b1d6 <sp_count_bits>
   1abe0:	4604      	mov	r4, r0
   1abe2:	4640      	mov	r0, r8
   1abe4:	f000 faf7 	bl	1b1d6 <sp_count_bits>
   1abe8:	f5b0 6fc0 	cmp.w	r0, #1536	; 0x600
   1abec:	dd0b      	ble.n	1ac06 <sp_ModExp_1536+0x3c>
   1abee:	f06f 046e 	mvn.w	r4, #110	; 0x6e
   1abf2:	22c0      	movs	r2, #192	; 0xc0
   1abf4:	2100      	movs	r1, #0
   1abf6:	a802      	add	r0, sp, #8
   1abf8:	f7f5 ec36 	blx	10468 <memset@plt>
   1abfc:	4620      	mov	r0, r4
   1abfe:	f50d 7d42 	add.w	sp, sp, #776	; 0x308
   1ac02:	e8bd 81f0 	ldmia.w	sp!, {r4, r5, r6, r7, r8, pc}
   1ac06:	f5b4 6fc0 	cmp.w	r4, #1536	; 0x600
   1ac0a:	dcf0      	bgt.n	1abee <sp_ModExp_1536+0x24>
   1ac0c:	4628      	mov	r0, r5
   1ac0e:	f000 fae2 	bl	1b1d6 <sp_count_bits>
   1ac12:	f5b0 6fc0 	cmp.w	r0, #1536	; 0x600
   1ac16:	d1ea      	bne.n	1abee <sp_ModExp_1536+0x24>
   1ac18:	682b      	ldr	r3, [r5, #0]
   1ac1a:	b113      	cbz	r3, 1ac22 <sp_ModExp_1536+0x58>
   1ac1c:	68ab      	ldr	r3, [r5, #8]
   1ac1e:	07db      	lsls	r3, r3, #31
   1ac20:	d534      	bpl.n	1ac8c <sp_ModExp_1536+0xc2>
   1ac22:	4642      	mov	r2, r8
   1ac24:	2130      	movs	r1, #48	; 0x30
   1ac26:	a862      	add	r0, sp, #392	; 0x188
   1ac28:	f7fd ff3a 	bl	18aa0 <sp_2048_from_mp>
   1ac2c:	463a      	mov	r2, r7
   1ac2e:	2130      	movs	r1, #48	; 0x30
   1ac30:	a802      	add	r0, sp, #8
   1ac32:	af32      	add	r7, sp, #200	; 0xc8
   1ac34:	f7fd ff34 	bl	18aa0 <sp_2048_from_mp>
   1ac38:	462a      	mov	r2, r5
   1ac3a:	2130      	movs	r1, #48	; 0x30
   1ac3c:	4638      	mov	r0, r7
   1ac3e:	f7fd ff2f 	bl	18aa0 <sp_2048_from_mp>
   1ac42:	2300      	movs	r3, #0
   1ac44:	a962      	add	r1, sp, #392	; 0x188
   1ac46:	aa02      	add	r2, sp, #8
   1ac48:	4608      	mov	r0, r1
   1ac4a:	e9cd 7300 	strd	r7, r3, [sp]
   1ac4e:	4623      	mov	r3, r4
   1ac50:	f7fe fe53 	bl	198fa <sp_3072_mod_exp_48>
   1ac54:	4604      	mov	r4, r0
   1ac56:	2800      	cmp	r0, #0
   1ac58:	d1cb      	bne.n	1abf2 <sp_ModExp_1536+0x28>
   1ac5a:	22c0      	movs	r2, #192	; 0xc0
   1ac5c:	4601      	mov	r1, r0
   1ac5e:	a892      	add	r0, sp, #584	; 0x248
   1ac60:	f7f5 ec02 	blx	10468 <memset@plt>
   1ac64:	4631      	mov	r1, r6
   1ac66:	a862      	add	r0, sp, #392	; 0x188
   1ac68:	f7fe f8a3 	bl	18db2 <sp_3072_to_mp>
   1ac6c:	682a      	ldr	r2, [r5, #0]
   1ac6e:	4604      	mov	r4, r0
   1ac70:	f106 0108 	add.w	r1, r6, #8
   1ac74:	3a01      	subs	r2, #1
   1ac76:	2a00      	cmp	r2, #0
   1ac78:	da02      	bge.n	1ac80 <sp_ModExp_1536+0xb6>
   1ac7a:	3201      	adds	r2, #1
   1ac7c:	6032      	str	r2, [r6, #0]
   1ac7e:	e7b8      	b.n	1abf2 <sp_ModExp_1536+0x28>
   1ac80:	f851 3022 	ldr.w	r3, [r1, r2, lsl #2]
   1ac84:	2b00      	cmp	r3, #0
   1ac86:	d1f8      	bne.n	1ac7a <sp_ModExp_1536+0xb0>
   1ac88:	3a01      	subs	r2, #1
   1ac8a:	e7f4      	b.n	1ac76 <sp_ModExp_1536+0xac>
   1ac8c:	f06f 0402 	mvn.w	r4, #2
   1ac90:	e7af      	b.n	1abf2 <sp_ModExp_1536+0x28>

0001ac92 <_sp_cmp_abs>:
   1ac92:	6803      	ldr	r3, [r0, #0]
   1ac94:	b510      	push	{r4, lr}
   1ac96:	680a      	ldr	r2, [r1, #0]
   1ac98:	4293      	cmp	r3, r2
   1ac9a:	dc10      	bgt.n	1acbe <_sp_cmp_abs+0x2c>
   1ac9c:	db11      	blt.n	1acc2 <_sp_cmp_abs+0x30>
   1ac9e:	3b01      	subs	r3, #1
   1aca0:	3008      	adds	r0, #8
   1aca2:	3108      	adds	r1, #8
   1aca4:	2b00      	cmp	r3, #0
   1aca6:	da01      	bge.n	1acac <_sp_cmp_abs+0x1a>
   1aca8:	2000      	movs	r0, #0
   1acaa:	bd10      	pop	{r4, pc}
   1acac:	f850 4023 	ldr.w	r4, [r0, r3, lsl #2]
   1acb0:	f851 2023 	ldr.w	r2, [r1, r3, lsl #2]
   1acb4:	4294      	cmp	r4, r2
   1acb6:	d802      	bhi.n	1acbe <_sp_cmp_abs+0x2c>
   1acb8:	d303      	bcc.n	1acc2 <_sp_cmp_abs+0x30>
   1acba:	3b01      	subs	r3, #1
   1acbc:	e7f2      	b.n	1aca4 <_sp_cmp_abs+0x12>
   1acbe:	2001      	movs	r0, #1
   1acc0:	e7f3      	b.n	1acaa <_sp_cmp_abs+0x18>
   1acc2:	f04f 30ff 	mov.w	r0, #4294967295
   1acc6:	e7f0      	b.n	1acaa <_sp_cmp_abs+0x18>

0001acc8 <_sp_sub_d>:
   1acc8:	6803      	ldr	r3, [r0, #0]
   1acca:	b5f0      	push	{r4, r5, r6, r7, lr}
   1accc:	6013      	str	r3, [r2, #0]
   1acce:	b90b      	cbnz	r3, 1acd4 <_sp_sub_d+0xc>
   1acd0:	6093      	str	r3, [r2, #8]
   1acd2:	bdf0      	pop	{r4, r5, r6, r7, pc}
   1acd4:	6884      	ldr	r4, [r0, #8]
   1acd6:	1a64      	subs	r4, r4, r1
   1acd8:	d30e      	bcc.n	1acf8 <_sp_sub_d+0x30>
   1acda:	2100      	movs	r1, #0
   1acdc:	4290      	cmp	r0, r2
   1acde:	6094      	str	r4, [r2, #8]
   1ace0:	d11a      	bne.n	1ad18 <_sp_sub_d+0x50>
   1ace2:	3b01      	subs	r3, #1
   1ace4:	f102 0008 	add.w	r0, r2, #8
   1ace8:	2b00      	cmp	r3, #0
   1acea:	db02      	blt.n	1acf2 <_sp_sub_d+0x2a>
   1acec:	f850 1023 	ldr.w	r1, [r0, r3, lsl #2]
   1acf0:	b1e9      	cbz	r1, 1ad2e <_sp_sub_d+0x66>
   1acf2:	3301      	adds	r3, #1
   1acf4:	6013      	str	r3, [r2, #0]
   1acf6:	e7ec      	b.n	1acd2 <_sp_sub_d+0xa>
   1acf8:	f100 060c 	add.w	r6, r0, #12
   1acfc:	f102 070c 	add.w	r7, r2, #12
   1ad00:	2101      	movs	r1, #1
   1ad02:	428b      	cmp	r3, r1
   1ad04:	ddea      	ble.n	1acdc <_sp_sub_d+0x14>
   1ad06:	f856 5b04 	ldr.w	r5, [r6], #4
   1ad0a:	3d01      	subs	r5, #1
   1ad0c:	f847 5b04 	str.w	r5, [r7], #4
   1ad10:	3501      	adds	r5, #1
   1ad12:	d1e3      	bne.n	1acdc <_sp_sub_d+0x14>
   1ad14:	3101      	adds	r1, #1
   1ad16:	e7f4      	b.n	1ad02 <_sp_sub_d+0x3a>
   1ad18:	3102      	adds	r1, #2
   1ad1a:	1c4c      	adds	r4, r1, #1
   1ad1c:	3901      	subs	r1, #1
   1ad1e:	428b      	cmp	r3, r1
   1ad20:	dddf      	ble.n	1ace2 <_sp_sub_d+0x1a>
   1ad22:	f850 1024 	ldr.w	r1, [r0, r4, lsl #2]
   1ad26:	f842 1024 	str.w	r1, [r2, r4, lsl #2]
   1ad2a:	4621      	mov	r1, r4
   1ad2c:	e7f5      	b.n	1ad1a <_sp_sub_d+0x52>
   1ad2e:	3b01      	subs	r3, #1
   1ad30:	e7da      	b.n	1ace8 <_sp_sub_d+0x20>

0001ad32 <_sp_mul_d>:
   1ad32:	e92d 41f0 	stmdb	sp!, {r4, r5, r6, r7, r8, lr}
   1ad36:	f102 0708 	add.w	r7, r2, #8
   1ad3a:	2400      	movs	r4, #0
   1ad3c:	463d      	mov	r5, r7
   1ad3e:	4626      	mov	r6, r4
   1ad40:	429c      	cmp	r4, r3
   1ad42:	db23      	blt.n	1ad8c <_sp_mul_d+0x5a>
   1ad44:	f8d0 e000 	ldr.w	lr, [r0]
   1ad48:	2400      	movs	r4, #0
   1ad4a:	eb02 0883 	add.w	r8, r2, r3, lsl #2
   1ad4e:	2501      	movs	r5, #1
   1ad50:	4626      	mov	r6, r4
   1ad52:	f105 0c01 	add.w	ip, r5, #1
   1ad56:	3d01      	subs	r5, #1
   1ad58:	45ae      	cmp	lr, r5
   1ad5a:	dc1b      	bgt.n	1ad94 <_sp_mul_d+0x62>
   1ad5c:	f1be 0f00 	cmp.w	lr, #0
   1ad60:	bfa8      	it	ge
   1ad62:	4473      	addge	r3, lr
   1ad64:	b134      	cbz	r4, 1ad74 <_sp_mul_d+0x42>
   1ad66:	6851      	ldr	r1, [r2, #4]
   1ad68:	4299      	cmp	r1, r3
   1ad6a:	d01d      	beq.n	1ada8 <_sp_mul_d+0x76>
   1ad6c:	1c99      	adds	r1, r3, #2
   1ad6e:	3301      	adds	r3, #1
   1ad70:	f842 4021 	str.w	r4, [r2, r1, lsl #2]
   1ad74:	2000      	movs	r0, #0
   1ad76:	3b01      	subs	r3, #1
   1ad78:	2b00      	cmp	r3, #0
   1ad7a:	db03      	blt.n	1ad84 <_sp_mul_d+0x52>
   1ad7c:	f857 1023 	ldr.w	r1, [r7, r3, lsl #2]
   1ad80:	2900      	cmp	r1, #0
   1ad82:	d0f8      	beq.n	1ad76 <_sp_mul_d+0x44>
   1ad84:	3301      	adds	r3, #1
   1ad86:	6013      	str	r3, [r2, #0]
   1ad88:	e8bd 81f0 	ldmia.w	sp!, {r4, r5, r6, r7, r8, pc}
   1ad8c:	3401      	adds	r4, #1
   1ad8e:	f845 6b04 	str.w	r6, [r5], #4
   1ad92:	e7d5      	b.n	1ad40 <_sp_mul_d+0xe>
   1ad94:	f850 502c 	ldr.w	r5, [r0, ip, lsl #2]
   1ad98:	fbe5 4601 	umlal	r4, r6, r5, r1
   1ad9c:	4665      	mov	r5, ip
   1ad9e:	f848 402c 	str.w	r4, [r8, ip, lsl #2]
   1ada2:	4634      	mov	r4, r6
   1ada4:	2600      	movs	r6, #0
   1ada6:	e7d4      	b.n	1ad52 <_sp_mul_d+0x20>
   1ada8:	f06f 0002 	mvn.w	r0, #2
   1adac:	e7e3      	b.n	1ad76 <_sp_mul_d+0x44>

0001adae <_sp_sub_off>:
   1adae:	e92d 4ff7 	stmdb	sp!, {r0, r1, r2, r4, r5, r6, r7, r8, r9, sl, fp, lr}
   1adb2:	f102 0c08 	add.w	ip, r2, #8
   1adb6:	f100 0e08 	add.w	lr, r0, #8
   1adba:	4676      	mov	r6, lr
   1adbc:	4667      	mov	r7, ip
   1adbe:	2400      	movs	r4, #0
   1adc0:	429c      	cmp	r4, r3
   1adc2:	6805      	ldr	r5, [r0, #0]
   1adc4:	da01      	bge.n	1adca <_sp_sub_off+0x1c>
   1adc6:	42ac      	cmp	r4, r5
   1adc8:	db36      	blt.n	1ae38 <_sp_sub_off+0x8a>
   1adca:	2000      	movs	r0, #0
   1adcc:	4623      	mov	r3, r4
   1adce:	f101 0808 	add.w	r8, r1, #8
   1add2:	43e4      	mvns	r4, r4
   1add4:	4607      	mov	r7, r0
   1add6:	f102 0904 	add.w	r9, r2, #4
   1adda:	9401      	str	r4, [sp, #4]
   1addc:	42ab      	cmp	r3, r5
   1adde:	da1e      	bge.n	1ae1e <_sp_sub_off+0x70>
   1ade0:	f85e 4023 	ldr.w	r4, [lr, r3, lsl #2]
   1ade4:	1c5e      	adds	r6, r3, #1
   1ade6:	1824      	adds	r4, r4, r0
   1ade8:	f147 0b00 	adc.w	fp, r7, #0
   1adec:	9400      	str	r4, [sp, #0]
   1adee:	9c01      	ldr	r4, [sp, #4]
   1adf0:	eb04 0a06 	add.w	sl, r4, r6
   1adf4:	680c      	ldr	r4, [r1, #0]
   1adf6:	4554      	cmp	r4, sl
   1adf8:	dc24      	bgt.n	1ae44 <_sp_sub_off+0x96>
   1adfa:	461c      	mov	r4, r3
   1adfc:	f85e 1024 	ldr.w	r1, [lr, r4, lsl #2]
   1ae00:	1809      	adds	r1, r1, r0
   1ae02:	f147 0000 	adc.w	r0, r7, #0
   1ae06:	f84c 1024 	str.w	r1, [ip, r4, lsl #2]
   1ae0a:	3401      	adds	r4, #1
   1ae0c:	17c7      	asrs	r7, r0, #31
   1ae0e:	42a5      	cmp	r5, r4
   1ae10:	dcf4      	bgt.n	1adfc <_sp_sub_off+0x4e>
   1ae12:	1e69      	subs	r1, r5, #1
   1ae14:	1ac9      	subs	r1, r1, r3
   1ae16:	42ab      	cmp	r3, r5
   1ae18:	bfa8      	it	ge
   1ae1a:	2100      	movge	r1, #0
   1ae1c:	1873      	adds	r3, r6, r1
   1ae1e:	3b01      	subs	r3, #1
   1ae20:	2b00      	cmp	r3, #0
   1ae22:	db03      	blt.n	1ae2c <_sp_sub_off+0x7e>
   1ae24:	f85c 1023 	ldr.w	r1, [ip, r3, lsl #2]
   1ae28:	2900      	cmp	r1, #0
   1ae2a:	d0f8      	beq.n	1ae1e <_sp_sub_off+0x70>
   1ae2c:	3301      	adds	r3, #1
   1ae2e:	2000      	movs	r0, #0
   1ae30:	6013      	str	r3, [r2, #0]
   1ae32:	b003      	add	sp, #12
   1ae34:	e8bd 8ff0 	ldmia.w	sp!, {r4, r5, r6, r7, r8, r9, sl, fp, pc}
   1ae38:	f856 5b04 	ldr.w	r5, [r6], #4
   1ae3c:	3401      	adds	r4, #1
   1ae3e:	f847 5b04 	str.w	r5, [r7], #4
   1ae42:	e7bd      	b.n	1adc0 <_sp_sub_off+0x12>
   1ae44:	f858 3b04 	ldr.w	r3, [r8], #4
   1ae48:	9800      	ldr	r0, [sp, #0]
   1ae4a:	1ac4      	subs	r4, r0, r3
   1ae4c:	4633      	mov	r3, r6
   1ae4e:	f16b 0000 	sbc.w	r0, fp, #0
   1ae52:	17c7      	asrs	r7, r0, #31
   1ae54:	f849 4026 	str.w	r4, [r9, r6, lsl #2]
   1ae58:	e7c0      	b.n	1addc <_sp_sub_off+0x2e>

0001ae5a <sp_lshb>:
   1ae5a:	e92d 43f8 	stmdb	sp!, {r3, r4, r5, r6, r7, r8, r9, lr}
   1ae5e:	6803      	ldr	r3, [r0, #0]
   1ae60:	b36b      	cbz	r3, 1aebe <sp_lshb+0x64>
   1ae62:	6844      	ldr	r4, [r0, #4]
   1ae64:	eb03 1561 	add.w	r5, r3, r1, asr #5
   1ae68:	114a      	asrs	r2, r1, #5
   1ae6a:	42a5      	cmp	r5, r4
   1ae6c:	da47      	bge.n	1aefe <sp_lshb+0xa4>
   1ae6e:	f011 011f 	ands.w	r1, r1, #31
   1ae72:	d036      	beq.n	1aee2 <sp_lshb+0x88>
   1ae74:	1c5f      	adds	r7, r3, #1
   1ae76:	f1c1 0e20 	rsb	lr, r1, #32
   1ae7a:	f850 4027 	ldr.w	r4, [r0, r7, lsl #2]
   1ae7e:	462e      	mov	r6, r5
   1ae80:	f1a3 0802 	sub.w	r8, r3, #2
   1ae84:	3601      	adds	r6, #1
   1ae86:	eb00 0383 	add.w	r3, r0, r3, lsl #2
   1ae8a:	fa24 fc0e 	lsr.w	ip, r4, lr
   1ae8e:	408c      	lsls	r4, r1
   1ae90:	f840 4026 	str.w	r4, [r0, r6, lsl #2]
   1ae94:	eb00 0486 	add.w	r4, r0, r6, lsl #2
   1ae98:	f1b8 0f00 	cmp.w	r8, #0
   1ae9c:	da12      	bge.n	1aec4 <sp_lshb+0x6a>
   1ae9e:	f1bc 0f00 	cmp.w	ip, #0
   1aea2:	d003      	beq.n	1aeac <sp_lshb+0x52>
   1aea4:	3502      	adds	r5, #2
   1aea6:	f840 c025 	str.w	ip, [r0, r5, lsl #2]
   1aeaa:	6007      	str	r7, [r0, #0]
   1aeac:	6803      	ldr	r3, [r0, #0]
   1aeae:	2100      	movs	r1, #0
   1aeb0:	4413      	add	r3, r2
   1aeb2:	0092      	lsls	r2, r2, #2
   1aeb4:	f840 3b08 	str.w	r3, [r0], #8
   1aeb8:	f7f5 ead6 	blx	10468 <memset@plt>
   1aebc:	2300      	movs	r3, #0
   1aebe:	4618      	mov	r0, r3
   1aec0:	e8bd 83f8 	ldmia.w	sp!, {r3, r4, r5, r6, r7, r8, r9, pc}
   1aec4:	681e      	ldr	r6, [r3, #0]
   1aec6:	f108 38ff 	add.w	r8, r8, #4294967295
   1aeca:	fa26 f90e 	lsr.w	r9, r6, lr
   1aece:	6826      	ldr	r6, [r4, #0]
   1aed0:	ea46 0609 	orr.w	r6, r6, r9
   1aed4:	6026      	str	r6, [r4, #0]
   1aed6:	f853 6904 	ldr.w	r6, [r3], #-4
   1aeda:	408e      	lsls	r6, r1
   1aedc:	f844 6d04 	str.w	r6, [r4, #-4]!
   1aee0:	e7da      	b.n	1ae98 <sp_lshb+0x3e>
   1aee2:	2a01      	cmp	r2, #1
   1aee4:	d1e2      	bne.n	1aeac <sp_lshb+0x52>
   1aee6:	1e59      	subs	r1, r3, #1
   1aee8:	3302      	adds	r3, #2
   1aeea:	eb00 0383 	add.w	r3, r0, r3, lsl #2
   1aeee:	2900      	cmp	r1, #0
   1aef0:	dbdc      	blt.n	1aeac <sp_lshb+0x52>
   1aef2:	f853 4c04 	ldr.w	r4, [r3, #-4]
   1aef6:	3901      	subs	r1, #1
   1aef8:	f843 4904 	str.w	r4, [r3], #-4
   1aefc:	e7f7      	b.n	1aeee <sp_lshb+0x94>
   1aefe:	f06f 0302 	mvn.w	r3, #2
   1af02:	e7dc      	b.n	1aebe <sp_lshb+0x64>

0001af04 <sp_mod_d>:
   1af04:	e92d 41f0 	stmdb	sp!, {r4, r5, r6, r7, r8, lr}
   1af08:	4603      	mov	r3, r0
   1af0a:	460d      	mov	r5, r1
   1af0c:	4617      	mov	r7, r2
   1af0e:	2800      	cmp	r0, #0
   1af10:	d03d      	beq.n	1af8e <sp_mod_d+0x8a>
   1af12:	2900      	cmp	r1, #0
   1af14:	d03b      	beq.n	1af8e <sp_mod_d+0x8a>
   1af16:	1e4a      	subs	r2, r1, #1
   1af18:	6800      	ldr	r0, [r0, #0]
   1af1a:	ea12 0105 	ands.w	r1, r2, r5
   1af1e:	d108      	bne.n	1af32 <sp_mod_d+0x2e>
   1af20:	b910      	cbnz	r0, 1af28 <sp_mod_d+0x24>
   1af22:	6038      	str	r0, [r7, #0]
   1af24:	e8bd 81f0 	ldmia.w	sp!, {r4, r5, r6, r7, r8, pc}
   1af28:	689b      	ldr	r3, [r3, #8]
   1af2a:	4013      	ands	r3, r2
   1af2c:	603b      	str	r3, [r7, #0]
   1af2e:	2000      	movs	r0, #0
   1af30:	e7f8      	b.n	1af24 <sp_mod_d+0x20>
   1af32:	f5b5 3f80 	cmp.w	r5, #65536	; 0x10000
   1af36:	f100 34ff 	add.w	r4, r0, #4294967295
   1af3a:	d224      	bcs.n	1af86 <sp_mod_d+0x82>
   1af3c:	f04f 30ff 	mov.w	r0, #4294967295
   1af40:	2100      	movs	r1, #0
   1af42:	3308      	adds	r3, #8
   1af44:	fbb0 f0f5 	udiv	r0, r0, r5
   1af48:	2c00      	cmp	r4, #0
   1af4a:	da01      	bge.n	1af50 <sp_mod_d+0x4c>
   1af4c:	6039      	str	r1, [r7, #0]
   1af4e:	e7ee      	b.n	1af2e <sp_mod_d+0x2a>
   1af50:	f853 2024 	ldr.w	r2, [r3, r4, lsl #2]
   1af54:	3c01      	subs	r4, #1
   1af56:	fba0 c602 	umull	ip, r6, r0, r2
   1af5a:	fb00 6101 	mla	r1, r0, r1, r6
   1af5e:	fb01 2215 	mls	r2, r1, r5, r2
   1af62:	fbb2 f1f5 	udiv	r1, r2, r5
   1af66:	fb05 2111 	mls	r1, r5, r1, r2
   1af6a:	e7ed      	b.n	1af48 <sp_mod_d+0x44>
   1af6c:	f856 8024 	ldr.w	r8, [r6, r4, lsl #2]
   1af70:	462a      	mov	r2, r5
   1af72:	2300      	movs	r3, #0
   1af74:	3c01      	subs	r4, #1
   1af76:	4640      	mov	r0, r8
   1af78:	f001 ebda 	blx	1c730 <__aeabi_uldivmod>
   1af7c:	fb00 8115 	mls	r1, r0, r5, r8
   1af80:	2c00      	cmp	r4, #0
   1af82:	daf3      	bge.n	1af6c <sp_mod_d+0x68>
   1af84:	e7e2      	b.n	1af4c <sp_mod_d+0x48>
   1af86:	2100      	movs	r1, #0
   1af88:	f103 0608 	add.w	r6, r3, #8
   1af8c:	e7f8      	b.n	1af80 <sp_mod_d+0x7c>
   1af8e:	f06f 0002 	mvn.w	r0, #2
   1af92:	e7c7      	b.n	1af24 <sp_mod_d+0x20>

0001af94 <_sp_add_off.constprop.0>:
   1af94:	e92d 4ff7 	stmdb	sp!, {r0, r1, r2, r4, r5, r6, r7, r8, r9, sl, fp, lr}
   1af98:	2300      	movs	r3, #0
   1af9a:	f101 0e08 	add.w	lr, r1, #8
   1af9e:	f102 0c08 	add.w	ip, r2, #8
   1afa2:	46f1      	mov	r9, lr
   1afa4:	46e2      	mov	sl, ip
   1afa6:	461c      	mov	r4, r3
   1afa8:	f850 7b08 	ldr.w	r7, [r0], #8
   1afac:	461d      	mov	r5, r3
   1afae:	469b      	mov	fp, r3
   1afb0:	9101      	str	r1, [sp, #4]
   1afb2:	4680      	mov	r8, r0
   1afb4:	9901      	ldr	r1, [sp, #4]
   1afb6:	42bb      	cmp	r3, r7
   1afb8:	680e      	ldr	r6, [r1, #0]
   1afba:	da47      	bge.n	1b04c <_sp_add_off.constprop.0+0xb8>
   1afbc:	42b3      	cmp	r3, r6
   1afbe:	f858 1b04 	ldr.w	r1, [r8], #4
   1afc2:	db35      	blt.n	1b030 <_sp_add_off.constprop.0+0x9c>
   1afc4:	4698      	mov	r8, r3
   1afc6:	f850 1028 	ldr.w	r1, [r0, r8, lsl #2]
   1afca:	1909      	adds	r1, r1, r4
   1afcc:	f145 0400 	adc.w	r4, r5, #0
   1afd0:	2500      	movs	r5, #0
   1afd2:	f84c 1028 	str.w	r1, [ip, r8, lsl #2]
   1afd6:	f108 0801 	add.w	r8, r8, #1
   1afda:	4547      	cmp	r7, r8
   1afdc:	dcf3      	bgt.n	1afc6 <_sp_add_off.constprop.0+0x32>
   1afde:	1e79      	subs	r1, r7, #1
   1afe0:	1c58      	adds	r0, r3, #1
   1afe2:	1ac9      	subs	r1, r1, r3
   1afe4:	42bb      	cmp	r3, r7
   1afe6:	bfa8      	it	ge
   1afe8:	4629      	movge	r1, r5
   1afea:	4408      	add	r0, r1
   1afec:	f100 0802 	add.w	r8, r0, #2
   1aff0:	461f      	mov	r7, r3
   1aff2:	eb02 0888 	add.w	r8, r2, r8, lsl #2
   1aff6:	42be      	cmp	r6, r7
   1aff8:	dc2a      	bgt.n	1b050 <_sp_add_off.constprop.0+0xbc>
   1affa:	1af1      	subs	r1, r6, r3
   1affc:	42b3      	cmp	r3, r6
   1affe:	bfc8      	it	gt
   1b000:	2100      	movgt	r1, #0
   1b002:	180b      	adds	r3, r1, r0
   1b004:	6013      	str	r3, [r2, #0]
   1b006:	b12c      	cbz	r4, 1b014 <_sp_add_off.constprop.0+0x80>
   1b008:	2001      	movs	r0, #1
   1b00a:	1c99      	adds	r1, r3, #2
   1b00c:	4403      	add	r3, r0
   1b00e:	f842 0021 	str.w	r0, [r2, r1, lsl #2]
   1b012:	6013      	str	r3, [r2, #0]
   1b014:	6813      	ldr	r3, [r2, #0]
   1b016:	3b01      	subs	r3, #1
   1b018:	2b00      	cmp	r3, #0
   1b01a:	db03      	blt.n	1b024 <_sp_add_off.constprop.0+0x90>
   1b01c:	f85c 1023 	ldr.w	r1, [ip, r3, lsl #2]
   1b020:	2900      	cmp	r1, #0
   1b022:	d0f8      	beq.n	1b016 <_sp_add_off.constprop.0+0x82>
   1b024:	3301      	adds	r3, #1
   1b026:	2000      	movs	r0, #0
   1b028:	6013      	str	r3, [r2, #0]
   1b02a:	b003      	add	sp, #12
   1b02c:	e8bd 8ff0 	ldmia.w	sp!, {r4, r5, r6, r7, r8, r9, sl, fp, pc}
   1b030:	f859 5b04 	ldr.w	r5, [r9], #4
   1b034:	3301      	adds	r3, #1
   1b036:	186d      	adds	r5, r5, r1
   1b038:	eb4b 060b 	adc.w	r6, fp, fp
   1b03c:	192c      	adds	r4, r5, r4
   1b03e:	f04f 0500 	mov.w	r5, #0
   1b042:	f84a 4b04 	str.w	r4, [sl], #4
   1b046:	f146 0400 	adc.w	r4, r6, #0
   1b04a:	e7b3      	b.n	1afb4 <_sp_add_off.constprop.0+0x20>
   1b04c:	4618      	mov	r0, r3
   1b04e:	e7cd      	b.n	1afec <_sp_add_off.constprop.0+0x58>
   1b050:	f85e 1027 	ldr.w	r1, [lr, r7, lsl #2]
   1b054:	3701      	adds	r7, #1
   1b056:	1909      	adds	r1, r1, r4
   1b058:	f145 0400 	adc.w	r4, r5, #0
   1b05c:	2500      	movs	r5, #0
   1b05e:	f848 1b04 	str.w	r1, [r8], #4
   1b062:	e7c8      	b.n	1aff6 <_sp_add_off.constprop.0+0x62>

0001b064 <sp_div_2.isra.0>:
   1b064:	f850 2b08 	ldr.w	r2, [r0], #8
   1b068:	2300      	movs	r3, #0
   1b06a:	b5f0      	push	{r4, r5, r6, r7, lr}
   1b06c:	f101 0508 	add.w	r5, r1, #8
   1b070:	462e      	mov	r6, r5
   1b072:	f102 3cff 	add.w	ip, r2, #4294967295
   1b076:	f850 4b04 	ldr.w	r4, [r0], #4
   1b07a:	4563      	cmp	r3, ip
   1b07c:	ea4f 0454 	mov.w	r4, r4, lsr #1
   1b080:	db0e      	blt.n	1b0a0 <sp_div_2.isra.0+0x3c>
   1b082:	2a01      	cmp	r2, #1
   1b084:	bfb8      	it	lt
   1b086:	2201      	movlt	r2, #1
   1b088:	1e53      	subs	r3, r2, #1
   1b08a:	3201      	adds	r2, #1
   1b08c:	f841 4022 	str.w	r4, [r1, r2, lsl #2]
   1b090:	f855 2023 	ldr.w	r2, [r5, r3, lsl #2]
   1b094:	b90a      	cbnz	r2, 1b09a <sp_div_2.isra.0+0x36>
   1b096:	3b01      	subs	r3, #1
   1b098:	d2fa      	bcs.n	1b090 <sp_div_2.isra.0+0x2c>
   1b09a:	3301      	adds	r3, #1
   1b09c:	600b      	str	r3, [r1, #0]
   1b09e:	bdf0      	pop	{r4, r5, r6, r7, pc}
   1b0a0:	6807      	ldr	r7, [r0, #0]
   1b0a2:	3301      	adds	r3, #1
   1b0a4:	ea44 74c7 	orr.w	r4, r4, r7, lsl #31
   1b0a8:	f846 4b04 	str.w	r4, [r6], #4
   1b0ac:	e7e3      	b.n	1b076 <sp_div_2.isra.0+0x12>

0001b0ae <sp_init>:
   1b0ae:	b130      	cbz	r0, 1b0be <sp_init+0x10>
   1b0b0:	2300      	movs	r3, #0
   1b0b2:	22c2      	movs	r2, #194	; 0xc2
   1b0b4:	e9c0 3200 	strd	r3, r2, [r0]
   1b0b8:	6083      	str	r3, [r0, #8]
   1b0ba:	4618      	mov	r0, r3
   1b0bc:	4770      	bx	lr
   1b0be:	f06f 0002 	mvn.w	r0, #2
   1b0c2:	4770      	bx	lr

0001b0c4 <sp_init_size>:
   1b0c4:	b510      	push	{r4, lr}
   1b0c6:	4604      	mov	r4, r0
   1b0c8:	f7ff fff1 	bl	1b0ae <sp_init>
   1b0cc:	b900      	cbnz	r0, 1b0d0 <sp_init_size+0xc>
   1b0ce:	6061      	str	r1, [r4, #4]
   1b0d0:	bd10      	pop	{r4, pc}

0001b0d2 <sp_init_multi>:
   1b0d2:	b570      	push	{r4, r5, r6, lr}
   1b0d4:	e9dd 5404 	ldrd	r5, r4, [sp, #16]
   1b0d8:	b120      	cbz	r0, 1b0e4 <sp_init_multi+0x12>
   1b0da:	2600      	movs	r6, #0
   1b0dc:	6006      	str	r6, [r0, #0]
   1b0de:	6086      	str	r6, [r0, #8]
   1b0e0:	26c2      	movs	r6, #194	; 0xc2
   1b0e2:	6046      	str	r6, [r0, #4]
   1b0e4:	b121      	cbz	r1, 1b0f0 <sp_init_multi+0x1e>
   1b0e6:	2000      	movs	r0, #0
   1b0e8:	6008      	str	r0, [r1, #0]
   1b0ea:	6088      	str	r0, [r1, #8]
   1b0ec:	20c2      	movs	r0, #194	; 0xc2
   1b0ee:	6048      	str	r0, [r1, #4]
   1b0f0:	b122      	cbz	r2, 1b0fc <sp_init_multi+0x2a>
   1b0f2:	2100      	movs	r1, #0
   1b0f4:	6011      	str	r1, [r2, #0]
   1b0f6:	6091      	str	r1, [r2, #8]
   1b0f8:	21c2      	movs	r1, #194	; 0xc2
   1b0fa:	6051      	str	r1, [r2, #4]
   1b0fc:	b123      	cbz	r3, 1b108 <sp_init_multi+0x36>
   1b0fe:	2200      	movs	r2, #0
   1b100:	601a      	str	r2, [r3, #0]
   1b102:	609a      	str	r2, [r3, #8]
   1b104:	22c2      	movs	r2, #194	; 0xc2
   1b106:	605a      	str	r2, [r3, #4]
   1b108:	b125      	cbz	r5, 1b114 <sp_init_multi+0x42>
   1b10a:	2300      	movs	r3, #0
   1b10c:	602b      	str	r3, [r5, #0]
   1b10e:	60ab      	str	r3, [r5, #8]
   1b110:	23c2      	movs	r3, #194	; 0xc2
   1b112:	606b      	str	r3, [r5, #4]
   1b114:	b124      	cbz	r4, 1b120 <sp_init_multi+0x4e>
   1b116:	2300      	movs	r3, #0
   1b118:	6023      	str	r3, [r4, #0]
   1b11a:	60a3      	str	r3, [r4, #8]
   1b11c:	23c2      	movs	r3, #194	; 0xc2
   1b11e:	6063      	str	r3, [r4, #4]
   1b120:	2000      	movs	r0, #0
   1b122:	bd70      	pop	{r4, r5, r6, pc}

0001b124 <sp_grow>:
   1b124:	b168      	cbz	r0, 1b142 <sp_grow+0x1e>
   1b126:	6843      	ldr	r3, [r0, #4]
   1b128:	428b      	cmp	r3, r1
   1b12a:	db0d      	blt.n	1b148 <sp_grow+0x24>
   1b12c:	f850 3b08 	ldr.w	r3, [r0], #8
   1b130:	2200      	movs	r2, #0
   1b132:	428b      	cmp	r3, r1
   1b134:	db01      	blt.n	1b13a <sp_grow+0x16>
   1b136:	2000      	movs	r0, #0
   1b138:	4770      	bx	lr
   1b13a:	f840 2023 	str.w	r2, [r0, r3, lsl #2]
   1b13e:	3301      	adds	r3, #1
   1b140:	e7f7      	b.n	1b132 <sp_grow+0xe>
   1b142:	f06f 0002 	mvn.w	r0, #2
   1b146:	4770      	bx	lr
   1b148:	f06f 0001 	mvn.w	r0, #1
   1b14c:	4770      	bx	lr

0001b14e <sp_clear>:
   1b14e:	b510      	push	{r4, lr}
   1b150:	b140      	cbz	r0, 1b164 <sp_clear+0x16>
   1b152:	4602      	mov	r2, r0
   1b154:	2300      	movs	r3, #0
   1b156:	4619      	mov	r1, r3
   1b158:	f852 4b08 	ldr.w	r4, [r2], #8
   1b15c:	42a3      	cmp	r3, r4
   1b15e:	db02      	blt.n	1b166 <sp_clear+0x18>
   1b160:	6001      	str	r1, [r0, #0]
   1b162:	6081      	str	r1, [r0, #8]
   1b164:	bd10      	pop	{r4, pc}
   1b166:	3301      	adds	r3, #1
   1b168:	f842 1b04 	str.w	r1, [r2], #4
   1b16c:	e7f6      	b.n	1b15c <sp_clear+0xe>

0001b16e <sp_forcezero>:
   1b16e:	4603      	mov	r3, r0
   1b170:	2100      	movs	r1, #0
   1b172:	f853 2b08 	ldr.w	r2, [r3], #8
   1b176:	eb00 0282 	add.w	r2, r0, r2, lsl #2
   1b17a:	3208      	adds	r2, #8
   1b17c:	429a      	cmp	r2, r3
   1b17e:	d102      	bne.n	1b186 <sp_forcezero+0x18>
   1b180:	6001      	str	r1, [r0, #0]
   1b182:	6081      	str	r1, [r0, #8]
   1b184:	4770      	bx	lr
   1b186:	f803 1b01 	strb.w	r1, [r3], #1
   1b18a:	e7f7      	b.n	1b17c <sp_forcezero+0xe>

0001b18c <sp_copy>:
   1b18c:	b538      	push	{r3, r4, r5, lr}
   1b18e:	460c      	mov	r4, r1
   1b190:	4605      	mov	r5, r0
   1b192:	b180      	cbz	r0, 1b1b6 <sp_copy+0x2a>
   1b194:	b179      	cbz	r1, 1b1b6 <sp_copy+0x2a>
   1b196:	4288      	cmp	r0, r1
   1b198:	d00b      	beq.n	1b1b2 <sp_copy+0x26>
   1b19a:	4601      	mov	r1, r0
   1b19c:	f104 0008 	add.w	r0, r4, #8
   1b1a0:	f851 2b08 	ldr.w	r2, [r1], #8
   1b1a4:	0092      	lsls	r2, r2, #2
   1b1a6:	f7f5 e942 	blx	1042c <memcpy@plt>
   1b1aa:	682b      	ldr	r3, [r5, #0]
   1b1ac:	b903      	cbnz	r3, 1b1b0 <sp_copy+0x24>
   1b1ae:	60a3      	str	r3, [r4, #8]
   1b1b0:	6023      	str	r3, [r4, #0]
   1b1b2:	2000      	movs	r0, #0
   1b1b4:	e001      	b.n	1b1ba <sp_copy+0x2e>
   1b1b6:	f06f 0002 	mvn.w	r0, #2
   1b1ba:	bd38      	pop	{r3, r4, r5, pc}

0001b1bc <sp_cmp>:
   1b1bc:	4288      	cmp	r0, r1
   1b1be:	d003      	beq.n	1b1c8 <sp_cmp+0xc>
   1b1c0:	b120      	cbz	r0, 1b1cc <sp_cmp+0x10>
   1b1c2:	b131      	cbz	r1, 1b1d2 <sp_cmp+0x16>
   1b1c4:	f7ff bd65 	b.w	1ac92 <_sp_cmp_abs>
   1b1c8:	2000      	movs	r0, #0
   1b1ca:	4770      	bx	lr
   1b1cc:	f04f 30ff 	mov.w	r0, #4294967295
   1b1d0:	4770      	bx	lr
   1b1d2:	2001      	movs	r0, #1
   1b1d4:	4770      	bx	lr

0001b1d6 <sp_count_bits>:
   1b1d6:	b1d8      	cbz	r0, 1b210 <sp_count_bits+0x3a>
   1b1d8:	f850 2b08 	ldr.w	r2, [r0], #8
   1b1dc:	3a01      	subs	r2, #1
   1b1de:	2a00      	cmp	r2, #0
   1b1e0:	db14      	blt.n	1b20c <sp_count_bits+0x36>
   1b1e2:	f850 3022 	ldr.w	r3, [r0, r2, lsl #2]
   1b1e6:	2b00      	cmp	r3, #0
   1b1e8:	d0f8      	beq.n	1b1dc <sp_count_bits+0x6>
   1b1ea:	f5b3 3f80 	cmp.w	r3, #65536	; 0x10000
   1b1ee:	ea4f 1042 	mov.w	r0, r2, lsl #5
   1b1f2:	d204      	bcs.n	1b1fe <sp_count_bits+0x28>
   1b1f4:	085b      	lsrs	r3, r3, #1
   1b1f6:	f100 0001 	add.w	r0, r0, #1
   1b1fa:	d1fb      	bne.n	1b1f4 <sp_count_bits+0x1e>
   1b1fc:	4770      	bx	lr
   1b1fe:	3020      	adds	r0, #32
   1b200:	2b00      	cmp	r3, #0
   1b202:	da00      	bge.n	1b206 <sp_count_bits+0x30>
   1b204:	4770      	bx	lr
   1b206:	005b      	lsls	r3, r3, #1
   1b208:	3801      	subs	r0, #1
   1b20a:	e7f9      	b.n	1b200 <sp_count_bits+0x2a>
   1b20c:	2000      	movs	r0, #0
   1b20e:	4770      	bx	lr
   1b210:	4770      	bx	lr

0001b212 <sp_set_bit>:
   1b212:	114b      	asrs	r3, r1, #5
   1b214:	b570      	push	{r4, r5, r6, lr}
   1b216:	b1f0      	cbz	r0, 1b256 <sp_set_bit+0x44>
   1b218:	6842      	ldr	r2, [r0, #4]
   1b21a:	429a      	cmp	r2, r3
   1b21c:	dd1b      	ble.n	1b256 <sp_set_bit+0x44>
   1b21e:	4604      	mov	r4, r0
   1b220:	f001 011f 	and.w	r1, r1, #31
   1b224:	f854 5b08 	ldr.w	r5, [r4], #8
   1b228:	2600      	movs	r6, #0
   1b22a:	462a      	mov	r2, r5
   1b22c:	429a      	cmp	r2, r3
   1b22e:	dd0e      	ble.n	1b24e <sp_set_bit+0x3c>
   1b230:	eb00 0483 	add.w	r4, r0, r3, lsl #2
   1b234:	2201      	movs	r2, #1
   1b236:	42ab      	cmp	r3, r5
   1b238:	fa02 f101 	lsl.w	r1, r2, r1
   1b23c:	68a2      	ldr	r2, [r4, #8]
   1b23e:	ea42 0201 	orr.w	r2, r2, r1
   1b242:	60a2      	str	r2, [r4, #8]
   1b244:	db01      	blt.n	1b24a <sp_set_bit+0x38>
   1b246:	3301      	adds	r3, #1
   1b248:	6003      	str	r3, [r0, #0]
   1b24a:	2000      	movs	r0, #0
   1b24c:	e005      	b.n	1b25a <sp_set_bit+0x48>
   1b24e:	f844 6022 	str.w	r6, [r4, r2, lsl #2]
   1b252:	3201      	adds	r2, #1
   1b254:	e7ea      	b.n	1b22c <sp_set_bit+0x1a>
   1b256:	f06f 0002 	mvn.w	r0, #2
   1b25a:	bd70      	pop	{r4, r5, r6, pc}

0001b25c <sp_2expt>:
   1b25c:	b120      	cbz	r0, 1b268 <sp_2expt+0xc>
   1b25e:	2200      	movs	r2, #0
   1b260:	6002      	str	r2, [r0, #0]
   1b262:	6082      	str	r2, [r0, #8]
   1b264:	f7ff bfd5 	b.w	1b212 <sp_set_bit>
   1b268:	f06f 0002 	mvn.w	r0, #2
   1b26c:	4770      	bx	lr

0001b26e <sp_set>:
   1b26e:	b130      	cbz	r0, 1b27e <sp_set+0x10>
   1b270:	6081      	str	r1, [r0, #8]
   1b272:	3900      	subs	r1, #0
   1b274:	bf18      	it	ne
   1b276:	2101      	movne	r1, #1
   1b278:	6001      	str	r1, [r0, #0]
   1b27a:	2000      	movs	r0, #0
   1b27c:	4770      	bx	lr
   1b27e:	f06f 0002 	mvn.w	r0, #2
   1b282:	4770      	bx	lr

0001b284 <sp_set_int>:
   1b284:	b130      	cbz	r0, 1b294 <sp_set_int+0x10>
   1b286:	6081      	str	r1, [r0, #8]
   1b288:	3900      	subs	r1, #0
   1b28a:	bf18      	it	ne
   1b28c:	2101      	movne	r1, #1
   1b28e:	6001      	str	r1, [r0, #0]
   1b290:	2000      	movs	r0, #0
   1b292:	4770      	bx	lr
   1b294:	f06f 0002 	mvn.w	r0, #2
   1b298:	4770      	bx	lr

0001b29a <sp_cmp_d>:
   1b29a:	b180      	cbz	r0, 1b2be <sp_cmp_d+0x24>
   1b29c:	6803      	ldr	r3, [r0, #0]
   1b29e:	b923      	cbnz	r3, 1b2aa <sp_cmp_d+0x10>
   1b2a0:	1e08      	subs	r0, r1, #0
   1b2a2:	bf18      	it	ne
   1b2a4:	2001      	movne	r0, #1
   1b2a6:	4240      	negs	r0, r0
   1b2a8:	4770      	bx	lr
   1b2aa:	2b01      	cmp	r3, #1
   1b2ac:	dc0a      	bgt.n	1b2c4 <sp_cmp_d+0x2a>
   1b2ae:	6883      	ldr	r3, [r0, #8]
   1b2b0:	4299      	cmp	r1, r3
   1b2b2:	d307      	bcc.n	1b2c4 <sp_cmp_d+0x2a>
   1b2b4:	bf8c      	ite	hi
   1b2b6:	f04f 30ff 	movhi.w	r0, #4294967295
   1b2ba:	2000      	movls	r0, #0
   1b2bc:	4770      	bx	lr
   1b2be:	f04f 30ff 	mov.w	r0, #4294967295
   1b2c2:	4770      	bx	lr
   1b2c4:	2001      	movs	r0, #1
   1b2c6:	4770      	bx	lr

0001b2c8 <sp_add_d>:
   1b2c8:	b5f0      	push	{r4, r5, r6, r7, lr}
   1b2ca:	b910      	cbnz	r0, 1b2d2 <sp_add_d+0xa>
   1b2cc:	f06f 0002 	mvn.w	r0, #2
   1b2d0:	bdf0      	pop	{r4, r5, r6, r7, pc}
   1b2d2:	2a00      	cmp	r2, #0
   1b2d4:	d0fa      	beq.n	1b2cc <sp_add_d+0x4>
   1b2d6:	6803      	ldr	r3, [r0, #0]
   1b2d8:	b14b      	cbz	r3, 1b2ee <sp_add_d+0x26>
   1b2da:	6013      	str	r3, [r2, #0]
   1b2dc:	6883      	ldr	r3, [r0, #8]
   1b2de:	18c9      	adds	r1, r1, r3
   1b2e0:	d209      	bcs.n	1b2f6 <sp_add_d+0x2e>
   1b2e2:	2300      	movs	r3, #0
   1b2e4:	4290      	cmp	r0, r2
   1b2e6:	6091      	str	r1, [r2, #8]
   1b2e8:	d122      	bne.n	1b330 <sp_add_d+0x68>
   1b2ea:	2000      	movs	r0, #0
   1b2ec:	e7f0      	b.n	1b2d0 <sp_add_d+0x8>
   1b2ee:	1e0b      	subs	r3, r1, #0
   1b2f0:	bf18      	it	ne
   1b2f2:	2301      	movne	r3, #1
   1b2f4:	e7f1      	b.n	1b2da <sp_add_d+0x12>
   1b2f6:	4604      	mov	r4, r0
   1b2f8:	f102 060c 	add.w	r6, r2, #12
   1b2fc:	f854 7b0c 	ldr.w	r7, [r4], #12
   1b300:	2301      	movs	r3, #1
   1b302:	42bb      	cmp	r3, r7
   1b304:	db0b      	blt.n	1b31e <sp_add_d+0x56>
   1b306:	d1ed      	bne.n	1b2e4 <sp_add_d+0x1c>
   1b308:	6854      	ldr	r4, [r2, #4]
   1b30a:	42a3      	cmp	r3, r4
   1b30c:	dade      	bge.n	1b2cc <sp_add_d+0x4>
   1b30e:	6814      	ldr	r4, [r2, #0]
   1b310:	2501      	movs	r5, #1
   1b312:	3401      	adds	r4, #1
   1b314:	6014      	str	r4, [r2, #0]
   1b316:	1c9c      	adds	r4, r3, #2
   1b318:	f842 5024 	str.w	r5, [r2, r4, lsl #2]
   1b31c:	e7e2      	b.n	1b2e4 <sp_add_d+0x1c>
   1b31e:	f854 5b04 	ldr.w	r5, [r4], #4
   1b322:	3501      	adds	r5, #1
   1b324:	f846 5b04 	str.w	r5, [r6], #4
   1b328:	2d00      	cmp	r5, #0
   1b32a:	d1db      	bne.n	1b2e4 <sp_add_d+0x1c>
   1b32c:	3301      	adds	r3, #1
   1b32e:	e7e8      	b.n	1b302 <sp_add_d+0x3a>
   1b330:	6804      	ldr	r4, [r0, #0]
   1b332:	3302      	adds	r3, #2
   1b334:	1c59      	adds	r1, r3, #1
   1b336:	3b01      	subs	r3, #1
   1b338:	429c      	cmp	r4, r3
   1b33a:	ddd6      	ble.n	1b2ea <sp_add_d+0x22>
   1b33c:	f850 3021 	ldr.w	r3, [r0, r1, lsl #2]
   1b340:	f842 3021 	str.w	r3, [r2, r1, lsl #2]
   1b344:	460b      	mov	r3, r1
   1b346:	e7f5      	b.n	1b334 <sp_add_d+0x6c>

0001b348 <sp_sub_d>:
   1b348:	b508      	push	{r3, lr}
   1b34a:	b120      	cbz	r0, 1b356 <sp_sub_d+0xe>
   1b34c:	b11a      	cbz	r2, 1b356 <sp_sub_d+0xe>
   1b34e:	f7ff fcbb 	bl	1acc8 <_sp_sub_d>
   1b352:	2000      	movs	r0, #0
   1b354:	bd08      	pop	{r3, pc}
   1b356:	f06f 0002 	mvn.w	r0, #2
   1b35a:	e7fb      	b.n	1b354 <sp_sub_d+0xc>

0001b35c <sp_mul_d>:
   1b35c:	b410      	push	{r4}
   1b35e:	b148      	cbz	r0, 1b374 <sp_mul_d+0x18>
   1b360:	b142      	cbz	r2, 1b374 <sp_mul_d+0x18>
   1b362:	6804      	ldr	r4, [r0, #0]
   1b364:	6853      	ldr	r3, [r2, #4]
   1b366:	429c      	cmp	r4, r3
   1b368:	da04      	bge.n	1b374 <sp_mul_d+0x18>
   1b36a:	2300      	movs	r3, #0
   1b36c:	f85d 4b04 	ldr.w	r4, [sp], #4
   1b370:	f7ff bcdf 	b.w	1ad32 <_sp_mul_d>
   1b374:	f06f 0002 	mvn.w	r0, #2
   1b378:	f85d 4b04 	ldr.w	r4, [sp], #4
   1b37c:	4770      	bx	lr

0001b37e <sp_sub>:
   1b37e:	b410      	push	{r4}
   1b380:	b130      	cbz	r0, 1b390 <sp_sub+0x12>
   1b382:	b129      	cbz	r1, 1b390 <sp_sub+0x12>
   1b384:	b122      	cbz	r2, 1b390 <sp_sub+0x12>
   1b386:	2300      	movs	r3, #0
   1b388:	f85d 4b04 	ldr.w	r4, [sp], #4
   1b38c:	f7ff bd0f 	b.w	1adae <_sp_sub_off>
   1b390:	f06f 0002 	mvn.w	r0, #2
   1b394:	f85d 4b04 	ldr.w	r4, [sp], #4
   1b398:	4770      	bx	lr

0001b39a <sp_rshb>:
   1b39a:	6803      	ldr	r3, [r0, #0]
   1b39c:	e92d 41f0 	stmdb	sp!, {r4, r5, r6, r7, r8, lr}
   1b3a0:	114d      	asrs	r5, r1, #5
   1b3a2:	ebb3 1f61 	cmp.w	r3, r1, asr #5
   1b3a6:	dc04      	bgt.n	1b3b2 <sp_rshb+0x18>
   1b3a8:	2300      	movs	r3, #0
   1b3aa:	6013      	str	r3, [r2, #0]
   1b3ac:	6093      	str	r3, [r2, #8]
   1b3ae:	e8bd 81f0 	ldmia.w	sp!, {r4, r5, r6, r7, r8, pc}
   1b3b2:	f011 011f 	ands.w	r1, r1, #31
   1b3b6:	f102 0608 	add.w	r6, r2, #8
   1b3ba:	d019      	beq.n	1b3f0 <sp_rshb+0x56>
   1b3bc:	1cac      	adds	r4, r5, #2
   1b3be:	46ac      	mov	ip, r5
   1b3c0:	eb00 0084 	add.w	r0, r0, r4, lsl #2
   1b3c4:	46b6      	mov	lr, r6
   1b3c6:	3b01      	subs	r3, #1
   1b3c8:	f1c1 0820 	rsb	r8, r1, #32
   1b3cc:	f850 7b04 	ldr.w	r7, [r0], #4
   1b3d0:	42ab      	cmp	r3, r5
   1b3d2:	fa27 f701 	lsr.w	r7, r7, r1
   1b3d6:	dc17      	bgt.n	1b408 <sp_rshb+0x6e>
   1b3d8:	eba3 030c 	sub.w	r3, r3, ip
   1b3dc:	1c99      	adds	r1, r3, #2
   1b3de:	f842 7021 	str.w	r7, [r2, r1, lsl #2]
   1b3e2:	f856 1023 	ldr.w	r1, [r6, r3, lsl #2]
   1b3e6:	b909      	cbnz	r1, 1b3ec <sp_rshb+0x52>
   1b3e8:	3b01      	subs	r3, #1
   1b3ea:	d2fa      	bcs.n	1b3e2 <sp_rshb+0x48>
   1b3ec:	3301      	adds	r3, #1
   1b3ee:	e009      	b.n	1b404 <sp_rshb+0x6a>
   1b3f0:	4629      	mov	r1, r5
   1b3f2:	3008      	adds	r0, #8
   1b3f4:	f850 4021 	ldr.w	r4, [r0, r1, lsl #2]
   1b3f8:	3101      	adds	r1, #1
   1b3fa:	428b      	cmp	r3, r1
   1b3fc:	f846 4b04 	str.w	r4, [r6], #4
   1b400:	d1f8      	bne.n	1b3f4 <sp_rshb+0x5a>
   1b402:	1b5b      	subs	r3, r3, r5
   1b404:	6013      	str	r3, [r2, #0]
   1b406:	e7d2      	b.n	1b3ae <sp_rshb+0x14>
   1b408:	6804      	ldr	r4, [r0, #0]
   1b40a:	3501      	adds	r5, #1
   1b40c:	fa04 f408 	lsl.w	r4, r4, r8
   1b410:	433c      	orrs	r4, r7
   1b412:	f84e 4b04 	str.w	r4, [lr], #4
   1b416:	e7d9      	b.n	1b3cc <sp_rshb+0x32>

0001b418 <sp_div>:
   1b418:	e92d 4ff0 	stmdb	sp!, {r4, r5, r6, r7, r8, r9, sl, fp, lr}
   1b41c:	4690      	mov	r8, r2
   1b41e:	b08b      	sub	sp, #44	; 0x2c
   1b420:	2200      	movs	r2, #0
   1b422:	461f      	mov	r7, r3
   1b424:	2300      	movs	r3, #0
   1b426:	460d      	mov	r5, r1
   1b428:	4681      	mov	r9, r0
   1b42a:	e9cd 2306 	strd	r2, r3, [sp, #24]
   1b42e:	e9cd 2308 	strd	r2, r3, [sp, #32]
   1b432:	2800      	cmp	r0, #0
   1b434:	f000 80d0 	beq.w	1b5d8 <sp_div+0x1c0>
   1b438:	2900      	cmp	r1, #0
   1b43a:	f000 80d2 	beq.w	1b5e2 <sp_div+0x1ca>
   1b43e:	f1b8 0f00 	cmp.w	r8, #0
   1b442:	d102      	bne.n	1b44a <sp_div+0x32>
   1b444:	2f00      	cmp	r7, #0
   1b446:	f000 80cf 	beq.w	1b5e8 <sp_div+0x1d0>
   1b44a:	682a      	ldr	r2, [r5, #0]
   1b44c:	b332      	cbz	r2, 1b49c <sp_div+0x84>
   1b44e:	f8d9 4000 	ldr.w	r4, [r9]
   1b452:	f1b8 0f00 	cmp.w	r8, #0
   1b456:	d005      	beq.n	1b464 <sp_div+0x4c>
   1b458:	1aa3      	subs	r3, r4, r2
   1b45a:	f8d8 1004 	ldr.w	r1, [r8, #4]
   1b45e:	3301      	adds	r3, #1
   1b460:	428b      	cmp	r3, r1
   1b462:	da1a      	bge.n	1b49a <sp_div+0x82>
   1b464:	b127      	cbz	r7, 1b470 <sp_div+0x58>
   1b466:	42a2      	cmp	r2, r4
   1b468:	687b      	ldr	r3, [r7, #4]
   1b46a:	db14      	blt.n	1b496 <sp_div+0x7e>
   1b46c:	42a3      	cmp	r3, r4
   1b46e:	dd14      	ble.n	1b49a <sp_div+0x82>
   1b470:	2cc2      	cmp	r4, #194	; 0xc2
   1b472:	d012      	beq.n	1b49a <sp_div+0x82>
   1b474:	4629      	mov	r1, r5
   1b476:	4648      	mov	r0, r9
   1b478:	f7ff fc0b 	bl	1ac92 <_sp_cmp_abs>
   1b47c:	1c42      	adds	r2, r0, #1
   1b47e:	d16d      	bne.n	1b55c <sp_div+0x144>
   1b480:	b11f      	cbz	r7, 1b48a <sp_div+0x72>
   1b482:	4639      	mov	r1, r7
   1b484:	4648      	mov	r0, r9
   1b486:	f7ff fe81 	bl	1b18c <sp_copy>
   1b48a:	f1b8 0f00 	cmp.w	r8, #0
   1b48e:	d107      	bne.n	1b4a0 <sp_div+0x88>
   1b490:	2201      	movs	r2, #1
   1b492:	2400      	movs	r4, #0
   1b494:	e00a      	b.n	1b4ac <sp_div+0x94>
   1b496:	429a      	cmp	r2, r3
   1b498:	dbea      	blt.n	1b470 <sp_div+0x58>
   1b49a:	2200      	movs	r2, #0
   1b49c:	4614      	mov	r4, r2
   1b49e:	e09d      	b.n	1b5dc <sp_div+0x1c4>
   1b4a0:	2400      	movs	r4, #0
   1b4a2:	2201      	movs	r2, #1
   1b4a4:	f8c8 4000 	str.w	r4, [r8]
   1b4a8:	f8c8 4008 	str.w	r4, [r8, #8]
   1b4ac:	4623      	mov	r3, r4
   1b4ae:	ea53 0102 	orrs.w	r1, r3, r2
   1b4b2:	9103      	str	r1, [sp, #12]
   1b4b4:	f040 809f 	bne.w	1b5f6 <sp_div+0x1de>
   1b4b8:	f8d9 1000 	ldr.w	r1, [r9]
   1b4bc:	9204      	str	r2, [sp, #16]
   1b4be:	e9dd 6b06 	ldrd	r6, fp, [sp, #24]
   1b4c2:	e9dd a308 	ldrd	sl, r3, [sp, #32]
   1b4c6:	3101      	adds	r1, #1
   1b4c8:	4630      	mov	r0, r6
   1b4ca:	9301      	str	r3, [sp, #4]
   1b4cc:	f7ff fdfa 	bl	1b0c4 <sp_init_size>
   1b4d0:	6829      	ldr	r1, [r5, #0]
   1b4d2:	4658      	mov	r0, fp
   1b4d4:	3101      	adds	r1, #1
   1b4d6:	f7ff fdf5 	bl	1b0c4 <sp_init_size>
   1b4da:	682b      	ldr	r3, [r5, #0]
   1b4dc:	4650      	mov	r0, sl
   1b4de:	f8d9 1000 	ldr.w	r1, [r9]
   1b4e2:	1ac9      	subs	r1, r1, r3
   1b4e4:	3102      	adds	r1, #2
   1b4e6:	f7ff fded 	bl	1b0c4 <sp_init_size>
   1b4ea:	f8d9 1000 	ldr.w	r1, [r9]
   1b4ee:	9801      	ldr	r0, [sp, #4]
   1b4f0:	3101      	adds	r1, #1
   1b4f2:	f7ff fde7 	bl	1b0c4 <sp_init_size>
   1b4f6:	4628      	mov	r0, r5
   1b4f8:	4631      	mov	r1, r6
   1b4fa:	f7ff fe6c 	bl	1b1d6 <sp_count_bits>
   1b4fe:	f000 001f 	and.w	r0, r0, #31
   1b502:	f1c0 0320 	rsb	r3, r0, #32
   1b506:	4648      	mov	r0, r9
   1b508:	9302      	str	r3, [sp, #8]
   1b50a:	f7ff fe3f 	bl	1b18c <sp_copy>
   1b50e:	9b02      	ldr	r3, [sp, #8]
   1b510:	9a04      	ldr	r2, [sp, #16]
   1b512:	2b20      	cmp	r3, #32
   1b514:	d075      	beq.n	1b602 <sp_div+0x1ea>
   1b516:	4619      	mov	r1, r3
   1b518:	4630      	mov	r0, r6
   1b51a:	9203      	str	r2, [sp, #12]
   1b51c:	f7ff fc9d 	bl	1ae5a <sp_lshb>
   1b520:	4603      	mov	r3, r0
   1b522:	9a03      	ldr	r2, [sp, #12]
   1b524:	b950      	cbnz	r0, 1b53c <sp_div+0x124>
   1b526:	4659      	mov	r1, fp
   1b528:	4628      	mov	r0, r5
   1b52a:	f7ff fe2f 	bl	1b18c <sp_copy>
   1b52e:	4658      	mov	r0, fp
   1b530:	9902      	ldr	r1, [sp, #8]
   1b532:	465d      	mov	r5, fp
   1b534:	f7ff fc91 	bl	1ae5a <sp_lshb>
   1b538:	9a03      	ldr	r2, [sp, #12]
   1b53a:	4603      	mov	r3, r0
   1b53c:	431a      	orrs	r2, r3
   1b53e:	d103      	bne.n	1b548 <sp_div+0x130>
   1b540:	682a      	ldr	r2, [r5, #0]
   1b542:	2a00      	cmp	r2, #0
   1b544:	dc5f      	bgt.n	1b606 <sp_div+0x1ee>
   1b546:	2300      	movs	r3, #0
   1b548:	b124      	cbz	r4, 1b554 <sp_div+0x13c>
   1b54a:	4620      	mov	r0, r4
   1b54c:	9301      	str	r3, [sp, #4]
   1b54e:	f7f4 ef62 	blx	10414 <free@plt>
   1b552:	9b01      	ldr	r3, [sp, #4]
   1b554:	4618      	mov	r0, r3
   1b556:	b00b      	add	sp, #44	; 0x2c
   1b558:	e8bd 8ff0 	ldmia.w	sp!, {r4, r5, r6, r7, r8, r9, sl, fp, pc}
   1b55c:	b958      	cbnz	r0, 1b576 <sp_div+0x15e>
   1b55e:	b10f      	cbz	r7, 1b564 <sp_div+0x14c>
   1b560:	6038      	str	r0, [r7, #0]
   1b562:	60b8      	str	r0, [r7, #8]
   1b564:	f1b8 0f00 	cmp.w	r8, #0
   1b568:	d092      	beq.n	1b490 <sp_div+0x78>
   1b56a:	2201      	movs	r2, #1
   1b56c:	f8c8 2000 	str.w	r2, [r8]
   1b570:	f8c8 2008 	str.w	r2, [r8, #8]
   1b574:	e78d      	b.n	1b492 <sp_div+0x7a>
   1b576:	4648      	mov	r0, r9
   1b578:	f7ff fe2d 	bl	1b1d6 <sp_count_bits>
   1b57c:	4601      	mov	r1, r0
   1b57e:	4628      	mov	r0, r5
   1b580:	f7ff fe29 	bl	1b1d6 <sp_count_bits>
   1b584:	4281      	cmp	r1, r0
   1b586:	d108      	bne.n	1b59a <sp_div+0x182>
   1b588:	2f00      	cmp	r7, #0
   1b58a:	d0eb      	beq.n	1b564 <sp_div+0x14c>
   1b58c:	2300      	movs	r3, #0
   1b58e:	463a      	mov	r2, r7
   1b590:	4629      	mov	r1, r5
   1b592:	4648      	mov	r0, r9
   1b594:	f7ff fc0b 	bl	1adae <_sp_sub_off>
   1b598:	e7e4      	b.n	1b564 <sp_div+0x14c>
   1b59a:	1c63      	adds	r3, r4, #1
   1b59c:	bf16      	itet	ne
   1b59e:	1ce0      	addne	r0, r4, #3
   1b5a0:	2030      	moveq	r0, #48	; 0x30
   1b5a2:	0100      	lslne	r0, r0, #4
   1b5a4:	f7f4 ef4e 	blx	10444 <malloc@plt>
   1b5a8:	4604      	mov	r4, r0
   1b5aa:	b300      	cbz	r0, 1b5ee <sp_div+0x1d6>
   1b5ac:	f8d9 0000 	ldr.w	r0, [r9]
   1b5b0:	1cc3      	adds	r3, r0, #3
   1b5b2:	1c41      	adds	r1, r0, #1
   1b5b4:	009a      	lsls	r2, r3, #2
   1b5b6:	3001      	adds	r0, #1
   1b5b8:	bf08      	it	eq
   1b5ba:	220c      	moveq	r2, #12
   1b5bc:	6061      	str	r1, [r4, #4]
   1b5be:	18a3      	adds	r3, r4, r2
   1b5c0:	6059      	str	r1, [r3, #4]
   1b5c2:	e9cd 4306 	strd	r4, r3, [sp, #24]
   1b5c6:	4413      	add	r3, r2
   1b5c8:	6059      	str	r1, [r3, #4]
   1b5ca:	9308      	str	r3, [sp, #32]
   1b5cc:	4413      	add	r3, r2
   1b5ce:	2200      	movs	r2, #0
   1b5d0:	6059      	str	r1, [r3, #4]
   1b5d2:	9309      	str	r3, [sp, #36]	; 0x24
   1b5d4:	4613      	mov	r3, r2
   1b5d6:	e76a      	b.n	1b4ae <sp_div+0x96>
   1b5d8:	4604      	mov	r4, r0
   1b5da:	4602      	mov	r2, r0
   1b5dc:	f06f 0302 	mvn.w	r3, #2
   1b5e0:	e765      	b.n	1b4ae <sp_div+0x96>
   1b5e2:	460c      	mov	r4, r1
   1b5e4:	460a      	mov	r2, r1
   1b5e6:	e7f9      	b.n	1b5dc <sp_div+0x1c4>
   1b5e8:	463c      	mov	r4, r7
   1b5ea:	463a      	mov	r2, r7
   1b5ec:	e7f6      	b.n	1b5dc <sp_div+0x1c4>
   1b5ee:	4602      	mov	r2, r0
   1b5f0:	f06f 0301 	mvn.w	r3, #1
   1b5f4:	e75b      	b.n	1b4ae <sp_div+0x96>
   1b5f6:	2100      	movs	r1, #0
   1b5f8:	468a      	mov	sl, r1
   1b5fa:	460e      	mov	r6, r1
   1b5fc:	e9cd 1101 	strd	r1, r1, [sp, #4]
   1b600:	e79c      	b.n	1b53c <sp_div+0x124>
   1b602:	9b03      	ldr	r3, [sp, #12]
   1b604:	e79a      	b.n	1b53c <sp_div+0x124>
   1b606:	6833      	ldr	r3, [r6, #0]
   1b608:	4650      	mov	r0, sl
   1b60a:	1a9b      	subs	r3, r3, r2
   1b60c:	3301      	adds	r3, #1
   1b60e:	f8ca 3000 	str.w	r3, [sl]
   1b612:	f7ff fd9c 	bl	1b14e <sp_clear>
   1b616:	682a      	ldr	r2, [r5, #0]
   1b618:	f105 0008 	add.w	r0, r5, #8
   1b61c:	6833      	ldr	r3, [r6, #0]
   1b61e:	1a9b      	subs	r3, r3, r2
   1b620:	3301      	adds	r3, #1
   1b622:	f8ca 3000 	str.w	r3, [sl]
   1b626:	682b      	ldr	r3, [r5, #0]
   1b628:	f8d6 b000 	ldr.w	fp, [r6]
   1b62c:	1c5a      	adds	r2, r3, #1
   1b62e:	1e59      	subs	r1, r3, #1
   1b630:	f855 2022 	ldr.w	r2, [r5, r2, lsl #2]
   1b634:	ebab 0303 	sub.w	r3, fp, r3
   1b638:	9204      	str	r2, [sp, #16]
   1b63a:	18ca      	adds	r2, r1, r3
   1b63c:	2900      	cmp	r1, #0
   1b63e:	f102 0202 	add.w	r2, r2, #2
   1b642:	f856 c022 	ldr.w	ip, [r6, r2, lsl #2]
   1b646:	f850 2021 	ldr.w	r2, [r0, r1, lsl #2]
   1b64a:	dc57      	bgt.n	1b6fc <sp_div+0x2e4>
   1b64c:	4594      	cmp	ip, r2
   1b64e:	d310      	bcc.n	1b672 <sp_div+0x25a>
   1b650:	4632      	mov	r2, r6
   1b652:	4629      	mov	r1, r5
   1b654:	4630      	mov	r0, r6
   1b656:	f7ff fbaa 	bl	1adae <_sp_sub_off>
   1b65a:	f8c6 b000 	str.w	fp, [r6]
   1b65e:	f1b8 0f00 	cmp.w	r8, #0
   1b662:	d006      	beq.n	1b672 <sp_div+0x25a>
   1b664:	682b      	ldr	r3, [r5, #0]
   1b666:	2201      	movs	r2, #1
   1b668:	ebab 0303 	sub.w	r3, fp, r3
   1b66c:	3302      	adds	r3, #2
   1b66e:	f84a 2023 	str.w	r2, [sl, r3, lsl #2]
   1b672:	f10b 39ff 	add.w	r9, fp, #4294967295
   1b676:	f10b 0b01 	add.w	fp, fp, #1
   1b67a:	eb06 038b 	add.w	r3, r6, fp, lsl #2
   1b67e:	9303      	str	r3, [sp, #12]
   1b680:	682b      	ldr	r3, [r5, #0]
   1b682:	454b      	cmp	r3, r9
   1b684:	dd3e      	ble.n	1b704 <sp_div+0x2ec>
   1b686:	2300      	movs	r3, #0
   1b688:	f109 0201 	add.w	r2, r9, #1
   1b68c:	6032      	str	r2, [r6, #0]
   1b68e:	2b00      	cmp	r3, #0
   1b690:	f47f af5a 	bne.w	1b548 <sp_div+0x130>
   1b694:	b1df      	cbz	r7, 1b6ce <sp_div+0x2b6>
   1b696:	9a02      	ldr	r2, [sp, #8]
   1b698:	2a20      	cmp	r2, #32
   1b69a:	d006      	beq.n	1b6aa <sp_div+0x292>
   1b69c:	4632      	mov	r2, r6
   1b69e:	4630      	mov	r0, r6
   1b6a0:	9902      	ldr	r1, [sp, #8]
   1b6a2:	9301      	str	r3, [sp, #4]
   1b6a4:	f7ff fe79 	bl	1b39a <sp_rshb>
   1b6a8:	9b01      	ldr	r3, [sp, #4]
   1b6aa:	4639      	mov	r1, r7
   1b6ac:	4630      	mov	r0, r6
   1b6ae:	9301      	str	r3, [sp, #4]
   1b6b0:	f7ff fd6c 	bl	1b18c <sp_copy>
   1b6b4:	4639      	mov	r1, r7
   1b6b6:	9b01      	ldr	r3, [sp, #4]
   1b6b8:	f851 2b08 	ldr.w	r2, [r1], #8
   1b6bc:	3a01      	subs	r2, #1
   1b6be:	2a00      	cmp	r2, #0
   1b6c0:	db03      	blt.n	1b6ca <sp_div+0x2b2>
   1b6c2:	f851 0022 	ldr.w	r0, [r1, r2, lsl #2]
   1b6c6:	2800      	cmp	r0, #0
   1b6c8:	d043      	beq.n	1b752 <sp_div+0x33a>
   1b6ca:	3201      	adds	r2, #1
   1b6cc:	603a      	str	r2, [r7, #0]
   1b6ce:	f1b8 0f00 	cmp.w	r8, #0
   1b6d2:	f43f af38 	beq.w	1b546 <sp_div+0x12e>
   1b6d6:	4641      	mov	r1, r8
   1b6d8:	4650      	mov	r0, sl
   1b6da:	9301      	str	r3, [sp, #4]
   1b6dc:	f7ff fd56 	bl	1b18c <sp_copy>
   1b6e0:	4641      	mov	r1, r8
   1b6e2:	9b01      	ldr	r3, [sp, #4]
   1b6e4:	f851 2b08 	ldr.w	r2, [r1], #8
   1b6e8:	3a01      	subs	r2, #1
   1b6ea:	2a00      	cmp	r2, #0
   1b6ec:	db02      	blt.n	1b6f4 <sp_div+0x2dc>
   1b6ee:	f851 0022 	ldr.w	r0, [r1, r2, lsl #2]
   1b6f2:	b380      	cbz	r0, 1b756 <sp_div+0x33e>
   1b6f4:	3201      	adds	r2, #1
   1b6f6:	f8c8 2000 	str.w	r2, [r8]
   1b6fa:	e725      	b.n	1b548 <sp_div+0x130>
   1b6fc:	4594      	cmp	ip, r2
   1b6fe:	d1a5      	bne.n	1b64c <sp_div+0x234>
   1b700:	3901      	subs	r1, #1
   1b702:	e79a      	b.n	1b63a <sp_div+0x222>
   1b704:	9b03      	ldr	r3, [sp, #12]
   1b706:	f853 1904 	ldr.w	r1, [r3], #-4
   1b70a:	9303      	str	r3, [sp, #12]
   1b70c:	9b04      	ldr	r3, [sp, #16]
   1b70e:	4299      	cmp	r1, r3
   1b710:	d01c      	beq.n	1b74c <sp_div+0x334>
   1b712:	9803      	ldr	r0, [sp, #12]
   1b714:	461a      	mov	r2, r3
   1b716:	2300      	movs	r3, #0
   1b718:	6800      	ldr	r0, [r0, #0]
   1b71a:	f001 e80a 	blx	1c730 <__aeabi_uldivmod>
   1b71e:	4683      	mov	fp, r0
   1b720:	682b      	ldr	r3, [r5, #0]
   1b722:	4659      	mov	r1, fp
   1b724:	4628      	mov	r0, r5
   1b726:	9a01      	ldr	r2, [sp, #4]
   1b728:	eba9 0303 	sub.w	r3, r9, r3
   1b72c:	f7ff fb01 	bl	1ad32 <_sp_mul_d>
   1b730:	4603      	mov	r3, r0
   1b732:	2800      	cmp	r0, #0
   1b734:	d1a8      	bne.n	1b688 <sp_div+0x270>
   1b736:	4631      	mov	r1, r6
   1b738:	9801      	ldr	r0, [sp, #4]
   1b73a:	9305      	str	r3, [sp, #20]
   1b73c:	f7ff faa9 	bl	1ac92 <_sp_cmp_abs>
   1b740:	2801      	cmp	r0, #1
   1b742:	9b05      	ldr	r3, [sp, #20]
   1b744:	d109      	bne.n	1b75a <sp_div+0x342>
   1b746:	f10b 3bff 	add.w	fp, fp, #4294967295
   1b74a:	e7e9      	b.n	1b720 <sp_div+0x308>
   1b74c:	f04f 3bff 	mov.w	fp, #4294967295
   1b750:	e7e6      	b.n	1b720 <sp_div+0x308>
   1b752:	3a01      	subs	r2, #1
   1b754:	e7b3      	b.n	1b6be <sp_div+0x2a6>
   1b756:	3a01      	subs	r2, #1
   1b758:	e7c7      	b.n	1b6ea <sp_div+0x2d2>
   1b75a:	4632      	mov	r2, r6
   1b75c:	4630      	mov	r0, r6
   1b75e:	9901      	ldr	r1, [sp, #4]
   1b760:	f7ff fb25 	bl	1adae <_sp_sub_off>
   1b764:	6829      	ldr	r1, [r5, #0]
   1b766:	eba9 0201 	sub.w	r2, r9, r1
   1b76a:	eb0a 0282 	add.w	r2, sl, r2, lsl #2
   1b76e:	6890      	ldr	r0, [r2, #8]
   1b770:	eb10 000b 	adds.w	r0, r0, fp
   1b774:	6090      	str	r0, [r2, #8]
   1b776:	d307      	bcc.n	1b788 <sp_div+0x370>
   1b778:	f109 0301 	add.w	r3, r9, #1
   1b77c:	1a5b      	subs	r3, r3, r1
   1b77e:	eb0a 0383 	add.w	r3, sl, r3, lsl #2
   1b782:	689a      	ldr	r2, [r3, #8]
   1b784:	3201      	adds	r2, #1
   1b786:	609a      	str	r2, [r3, #8]
   1b788:	f109 39ff 	add.w	r9, r9, #4294967295
   1b78c:	e778      	b.n	1b680 <sp_div+0x268>

0001b78e <sp_mod>:
   1b78e:	b128      	cbz	r0, 1b79c <sp_mod+0xe>
   1b790:	b121      	cbz	r1, 1b79c <sp_mod+0xe>
   1b792:	b11a      	cbz	r2, 1b79c <sp_mod+0xe>
   1b794:	4613      	mov	r3, r2
   1b796:	2200      	movs	r2, #0
   1b798:	f7ff be3e 	b.w	1b418 <sp_div>
   1b79c:	f06f 0002 	mvn.w	r0, #2
   1b7a0:	4770      	bx	lr

0001b7a2 <sp_mul>:
   1b7a2:	e92d 4ff0 	stmdb	sp!, {r4, r5, r6, r7, r8, r9, sl, fp, lr}
   1b7a6:	460d      	mov	r5, r1
   1b7a8:	b085      	sub	sp, #20
   1b7aa:	4616      	mov	r6, r2
   1b7ac:	4604      	mov	r4, r0
   1b7ae:	2800      	cmp	r0, #0
   1b7b0:	d07d      	beq.n	1b8ae <sp_mul+0x10c>
   1b7b2:	2900      	cmp	r1, #0
   1b7b4:	d07b      	beq.n	1b8ae <sp_mul+0x10c>
   1b7b6:	2a00      	cmp	r2, #0
   1b7b8:	d079      	beq.n	1b8ae <sp_mul+0x10c>
   1b7ba:	680b      	ldr	r3, [r1, #0]
   1b7bc:	6802      	ldr	r2, [r0, #0]
   1b7be:	6871      	ldr	r1, [r6, #4]
   1b7c0:	18d0      	adds	r0, r2, r3
   1b7c2:	4288      	cmp	r0, r1
   1b7c4:	dc73      	bgt.n	1b8ae <sp_mul+0x10c>
   1b7c6:	b102      	cbz	r2, 1b7ca <sp_mul+0x28>
   1b7c8:	b92b      	cbnz	r3, 1b7d6 <sp_mul+0x34>
   1b7ca:	2000      	movs	r0, #0
   1b7cc:	6030      	str	r0, [r6, #0]
   1b7ce:	60b0      	str	r0, [r6, #8]
   1b7d0:	b005      	add	sp, #20
   1b7d2:	e8bd 8ff0 	ldmia.w	sp!, {r4, r5, r6, r7, r8, r9, sl, fp, pc}
   1b7d6:	0080      	lsls	r0, r0, #2
   1b7d8:	f7f4 ee34 	blx	10444 <malloc@plt>
   1b7dc:	4607      	mov	r7, r0
   1b7de:	2800      	cmp	r0, #0
   1b7e0:	d068      	beq.n	1b8b4 <sp_mul+0x112>
   1b7e2:	68a2      	ldr	r2, [r4, #8]
   1b7e4:	f04f 0801 	mov.w	r8, #1
   1b7e8:	68ab      	ldr	r3, [r5, #8]
   1b7ea:	f854 1b08 	ldr.w	r1, [r4], #8
   1b7ee:	fba2 2303 	umull	r2, r3, r2, r3
   1b7f2:	9101      	str	r1, [sp, #4]
   1b7f4:	6002      	str	r2, [r0, #0]
   1b7f6:	2200      	movs	r2, #0
   1b7f8:	9801      	ldr	r0, [sp, #4]
   1b7fa:	4696      	mov	lr, r2
   1b7fc:	4691      	mov	r9, r2
   1b7fe:	4693      	mov	fp, r2
   1b800:	f855 1b08 	ldr.w	r1, [r5], #8
   1b804:	4408      	add	r0, r1
   1b806:	eba8 0101 	sub.w	r1, r8, r1
   1b80a:	3802      	subs	r0, #2
   1b80c:	e9cd 0102 	strd	r0, r1, [sp, #8]
   1b810:	9902      	ldr	r1, [sp, #8]
   1b812:	4588      	cmp	r8, r1
   1b814:	dd19      	ble.n	1b84a <sp_mul+0xa8>
   1b816:	ea21 71e1 	bic.w	r1, r1, r1, asr #31
   1b81a:	4634      	mov	r4, r6
   1b81c:	1c48      	adds	r0, r1, #1
   1b81e:	3102      	adds	r1, #2
   1b820:	0082      	lsls	r2, r0, #2
   1b822:	f847 3020 	str.w	r3, [r7, r0, lsl #2]
   1b826:	3204      	adds	r2, #4
   1b828:	f844 1b08 	str.w	r1, [r4], #8
   1b82c:	4639      	mov	r1, r7
   1b82e:	4620      	mov	r0, r4
   1b830:	f7f4 edfc 	blx	1042c <memcpy@plt>
   1b834:	6833      	ldr	r3, [r6, #0]
   1b836:	3b01      	subs	r3, #1
   1b838:	2b00      	cmp	r3, #0
   1b83a:	da33      	bge.n	1b8a4 <sp_mul+0x102>
   1b83c:	3301      	adds	r3, #1
   1b83e:	4638      	mov	r0, r7
   1b840:	6033      	str	r3, [r6, #0]
   1b842:	f7f4 ede8 	blx	10414 <free@plt>
   1b846:	2000      	movs	r0, #0
   1b848:	e7c2      	b.n	1b7d0 <sp_mul+0x2e>
   1b84a:	9903      	ldr	r1, [sp, #12]
   1b84c:	eb01 0c08 	add.w	ip, r1, r8
   1b850:	ea4f 71ec 	mov.w	r1, ip, asr #31
   1b854:	ea2c 0c01 	bic.w	ip, ip, r1
   1b858:	eba8 0a0c 	sub.w	sl, r8, ip
   1b85c:	9901      	ldr	r1, [sp, #4]
   1b85e:	458c      	cmp	ip, r1
   1b860:	db0b      	blt.n	1b87a <sp_mul+0xd8>
   1b862:	f847 3028 	str.w	r3, [r7, r8, lsl #2]
   1b866:	eb1e 0302 	adds.w	r3, lr, r2
   1b86a:	f108 0801 	add.w	r8, r8, #1
   1b86e:	46ce      	mov	lr, r9
   1b870:	eb4b 020b 	adc.w	r2, fp, fp
   1b874:	f04f 0900 	mov.w	r9, #0
   1b878:	e7ca      	b.n	1b810 <sp_mul+0x6e>
   1b87a:	f1ba 0f00 	cmp.w	sl, #0
   1b87e:	dbf0      	blt.n	1b862 <sp_mul+0xc0>
   1b880:	f855 102a 	ldr.w	r1, [r5, sl, lsl #2]
   1b884:	f10a 3aff 	add.w	sl, sl, #4294967295
   1b888:	f854 002c 	ldr.w	r0, [r4, ip, lsl #2]
   1b88c:	f10c 0c01 	add.w	ip, ip, #1
   1b890:	fba0 0101 	umull	r0, r1, r0, r1
   1b894:	18c3      	adds	r3, r0, r3
   1b896:	f142 0200 	adc.w	r2, r2, #0
   1b89a:	eb11 0e0e 	adds.w	lr, r1, lr
   1b89e:	f149 0900 	adc.w	r9, r9, #0
   1b8a2:	e7db      	b.n	1b85c <sp_mul+0xba>
   1b8a4:	f854 2023 	ldr.w	r2, [r4, r3, lsl #2]
   1b8a8:	2a00      	cmp	r2, #0
   1b8aa:	d0c4      	beq.n	1b836 <sp_mul+0x94>
   1b8ac:	e7c6      	b.n	1b83c <sp_mul+0x9a>
   1b8ae:	f06f 0002 	mvn.w	r0, #2
   1b8b2:	e78d      	b.n	1b7d0 <sp_mul+0x2e>
   1b8b4:	f06f 0001 	mvn.w	r0, #1
   1b8b8:	e78a      	b.n	1b7d0 <sp_mul+0x2e>

0001b8ba <sp_mulmod>:
   1b8ba:	e92d 43f8 	stmdb	sp!, {r3, r4, r5, r6, r7, r8, r9, lr}
   1b8be:	460f      	mov	r7, r1
   1b8c0:	4616      	mov	r6, r2
   1b8c2:	461d      	mov	r5, r3
   1b8c4:	4680      	mov	r8, r0
   1b8c6:	b368      	cbz	r0, 1b924 <sp_mulmod+0x6a>
   1b8c8:	b361      	cbz	r1, 1b924 <sp_mulmod+0x6a>
   1b8ca:	b35a      	cbz	r2, 1b924 <sp_mulmod+0x6a>
   1b8cc:	b353      	cbz	r3, 1b924 <sp_mulmod+0x6a>
   1b8ce:	6808      	ldr	r0, [r1, #0]
   1b8d0:	f8d8 4000 	ldr.w	r4, [r8]
   1b8d4:	685b      	ldr	r3, [r3, #4]
   1b8d6:	4420      	add	r0, r4
   1b8d8:	4298      	cmp	r0, r3
   1b8da:	dc23      	bgt.n	1b924 <sp_mulmod+0x6a>
   1b8dc:	b300      	cbz	r0, 1b920 <sp_mulmod+0x66>
   1b8de:	3002      	adds	r0, #2
   1b8e0:	0080      	lsls	r0, r0, #2
   1b8e2:	f7f4 edb0 	blx	10444 <malloc@plt>
   1b8e6:	4681      	mov	r9, r0
   1b8e8:	b1f8      	cbz	r0, 1b92a <sp_mulmod+0x70>
   1b8ea:	683b      	ldr	r3, [r7, #0]
   1b8ec:	f8d8 1000 	ldr.w	r1, [r8]
   1b8f0:	4419      	add	r1, r3
   1b8f2:	f7ff fbe7 	bl	1b0c4 <sp_init_size>
   1b8f6:	4604      	mov	r4, r0
   1b8f8:	b960      	cbnz	r0, 1b914 <sp_mulmod+0x5a>
   1b8fa:	464a      	mov	r2, r9
   1b8fc:	4639      	mov	r1, r7
   1b8fe:	4640      	mov	r0, r8
   1b900:	f7ff ff4f 	bl	1b7a2 <sp_mul>
   1b904:	4604      	mov	r4, r0
   1b906:	b928      	cbnz	r0, 1b914 <sp_mulmod+0x5a>
   1b908:	462a      	mov	r2, r5
   1b90a:	4631      	mov	r1, r6
   1b90c:	4648      	mov	r0, r9
   1b90e:	f7ff ff3e 	bl	1b78e <sp_mod>
   1b912:	4604      	mov	r4, r0
   1b914:	4648      	mov	r0, r9
   1b916:	f7f4 ed7e 	blx	10414 <free@plt>
   1b91a:	4620      	mov	r0, r4
   1b91c:	e8bd 83f8 	ldmia.w	sp!, {r3, r4, r5, r6, r7, r8, r9, pc}
   1b920:	200c      	movs	r0, #12
   1b922:	e7de      	b.n	1b8e2 <sp_mulmod+0x28>
   1b924:	f06f 0402 	mvn.w	r4, #2
   1b928:	e7f7      	b.n	1b91a <sp_mulmod+0x60>
   1b92a:	f06f 0401 	mvn.w	r4, #1
   1b92e:	e7f4      	b.n	1b91a <sp_mulmod+0x60>

0001b930 <sp_invmod>:
   1b930:	e92d 4ff7 	stmdb	sp!, {r0, r1, r2, r4, r5, r6, r7, r8, r9, sl, fp, lr}
   1b934:	460e      	mov	r6, r1
   1b936:	4692      	mov	sl, r2
   1b938:	4681      	mov	r9, r0
   1b93a:	2800      	cmp	r0, #0
   1b93c:	f000 811e 	beq.w	1bb7c <sp_invmod+0x24c>
   1b940:	2900      	cmp	r1, #0
   1b942:	f000 811b 	beq.w	1bb7c <sp_invmod+0x24c>
   1b946:	2a00      	cmp	r2, #0
   1b948:	f000 8118 	beq.w	1bb7c <sp_invmod+0x24c>
   1b94c:	4291      	cmp	r1, r2
   1b94e:	f000 8115 	beq.w	1bb7c <sp_invmod+0x24c>
   1b952:	6808      	ldr	r0, [r1, #0]
   1b954:	6853      	ldr	r3, [r2, #4]
   1b956:	ebb3 0f40 	cmp.w	r3, r0, lsl #1
   1b95a:	f2c0 810f 	blt.w	1bb7c <sp_invmod+0x24c>
   1b95e:	1c45      	adds	r5, r0, #1
   1b960:	bf17      	itett	ne
   1b962:	230c      	movne	r3, #12
   1b964:	2024      	moveq	r0, #36	; 0x24
   1b966:	4358      	mulne	r0, r3
   1b968:	3024      	addne	r0, #36	; 0x24
   1b96a:	f7f4 ed6c 	blx	10444 <malloc@plt>
   1b96e:	4607      	mov	r7, r0
   1b970:	2800      	cmp	r0, #0
   1b972:	f000 8106 	beq.w	1bb82 <sp_invmod+0x252>
   1b976:	6830      	ldr	r0, [r6, #0]
   1b978:	1c44      	adds	r4, r0, #1
   1b97a:	f100 0301 	add.w	r3, r0, #1
   1b97e:	bf14      	ite	ne
   1b980:	1cc5      	addne	r5, r0, #3
   1b982:	250c      	moveq	r5, #12
   1b984:	ea4f 00c0 	mov.w	r0, r0, lsl #3
   1b988:	bf18      	it	ne
   1b98a:	00ad      	lslne	r5, r5, #2
   1b98c:	607b      	str	r3, [r7, #4]
   1b98e:	300c      	adds	r0, #12
   1b990:	eb07 0805 	add.w	r8, r7, r5
   1b994:	4445      	add	r5, r8
   1b996:	f8c8 3004 	str.w	r3, [r8, #4]
   1b99a:	606b      	str	r3, [r5, #4]
   1b99c:	f7f4 ed52 	blx	10444 <malloc@plt>
   1b9a0:	4604      	mov	r4, r0
   1b9a2:	2800      	cmp	r0, #0
   1b9a4:	f040 80f0 	bne.w	1bb88 <sp_invmod+0x258>
   1b9a8:	f06f 0b01 	mvn.w	fp, #1
   1b9ac:	4638      	mov	r0, r7
   1b9ae:	f7f4 ed32 	blx	10414 <free@plt>
   1b9b2:	4658      	mov	r0, fp
   1b9b4:	b003      	add	sp, #12
   1b9b6:	e8bd 8ff0 	ldmia.w	sp!, {r4, r5, r6, r7, r8, r9, sl, fp, pc}
   1b9ba:	6831      	ldr	r1, [r6, #0]
   1b9bc:	2900      	cmp	r1, #0
   1b9be:	f000 80f6 	beq.w	1bbae <sp_invmod+0x27e>
   1b9c2:	f8d9 3008 	ldr.w	r3, [r9, #8]
   1b9c6:	07d8      	lsls	r0, r3, #31
   1b9c8:	d403      	bmi.n	1b9d2 <sp_invmod+0xa2>
   1b9ca:	68b0      	ldr	r0, [r6, #8]
   1b9cc:	07c0      	lsls	r0, r0, #31
   1b9ce:	f140 80ee 	bpl.w	1bbae <sp_invmod+0x27e>
   1b9d2:	2a01      	cmp	r2, #1
   1b9d4:	d108      	bne.n	1b9e8 <sp_invmod+0xb8>
   1b9d6:	2b01      	cmp	r3, #1
   1b9d8:	d106      	bne.n	1b9e8 <sp_invmod+0xb8>
   1b9da:	f04f 0b00 	mov.w	fp, #0
   1b9de:	f8ca 3000 	str.w	r3, [sl]
   1b9e2:	f8ca 3008 	str.w	r3, [sl, #8]
   1b9e6:	e0e4      	b.n	1bbb2 <sp_invmod+0x282>
   1b9e8:	3101      	adds	r1, #1
   1b9ea:	4638      	mov	r0, r7
   1b9ec:	f7ff fb6a 	bl	1b0c4 <sp_init_size>
   1b9f0:	6831      	ldr	r1, [r6, #0]
   1b9f2:	4640      	mov	r0, r8
   1b9f4:	3101      	adds	r1, #1
   1b9f6:	f7ff fb65 	bl	1b0c4 <sp_init_size>
   1b9fa:	6831      	ldr	r1, [r6, #0]
   1b9fc:	4628      	mov	r0, r5
   1b9fe:	3101      	adds	r1, #1
   1ba00:	f7ff fb60 	bl	1b0c4 <sp_init_size>
   1ba04:	6831      	ldr	r1, [r6, #0]
   1ba06:	4620      	mov	r0, r4
   1ba08:	0049      	lsls	r1, r1, #1
   1ba0a:	3101      	adds	r1, #1
   1ba0c:	f7ff fb5a 	bl	1b0c4 <sp_init_size>
   1ba10:	6833      	ldr	r3, [r6, #0]
   1ba12:	4639      	mov	r1, r7
   1ba14:	b193      	cbz	r3, 1ba3c <sp_invmod+0x10c>
   1ba16:	68b3      	ldr	r3, [r6, #8]
   1ba18:	07db      	lsls	r3, r3, #31
   1ba1a:	d40f      	bmi.n	1ba3c <sp_invmod+0x10c>
   1ba1c:	4648      	mov	r0, r9
   1ba1e:	f7ff fbb5 	bl	1b18c <sp_copy>
   1ba22:	4642      	mov	r2, r8
   1ba24:	4649      	mov	r1, r9
   1ba26:	4630      	mov	r0, r6
   1ba28:	f7ff feb1 	bl	1b78e <sp_mod>
   1ba2c:	f8d8 3000 	ldr.w	r3, [r8]
   1ba30:	b90b      	cbnz	r3, 1ba36 <sp_invmod+0x106>
   1ba32:	603b      	str	r3, [r7, #0]
   1ba34:	60bb      	str	r3, [r7, #8]
   1ba36:	46cb      	mov	fp, r9
   1ba38:	2301      	movs	r3, #1
   1ba3a:	e008      	b.n	1ba4e <sp_invmod+0x11e>
   1ba3c:	4630      	mov	r0, r6
   1ba3e:	46b3      	mov	fp, r6
   1ba40:	f7ff fba4 	bl	1b18c <sp_copy>
   1ba44:	4641      	mov	r1, r8
   1ba46:	4648      	mov	r0, r9
   1ba48:	f7ff fba0 	bl	1b18c <sp_copy>
   1ba4c:	2300      	movs	r3, #0
   1ba4e:	9300      	str	r3, [sp, #0]
   1ba50:	2300      	movs	r3, #0
   1ba52:	602b      	str	r3, [r5, #0]
   1ba54:	60ab      	str	r3, [r5, #8]
   1ba56:	2301      	movs	r3, #1
   1ba58:	6023      	str	r3, [r4, #0]
   1ba5a:	60a3      	str	r3, [r4, #8]
   1ba5c:	f8d8 1000 	ldr.w	r1, [r8]
   1ba60:	683a      	ldr	r2, [r7, #0]
   1ba62:	2901      	cmp	r1, #1
   1ba64:	d103      	bne.n	1ba6e <sp_invmod+0x13e>
   1ba66:	f8d8 3008 	ldr.w	r3, [r8, #8]
   1ba6a:	2b01      	cmp	r3, #1
   1ba6c:	d062      	beq.n	1bb34 <sp_invmod+0x204>
   1ba6e:	2a00      	cmp	r2, #0
   1ba70:	f000 809d 	beq.w	1bbae <sp_invmod+0x27e>
   1ba74:	68bb      	ldr	r3, [r7, #8]
   1ba76:	07d8      	lsls	r0, r3, #31
   1ba78:	d412      	bmi.n	1baa0 <sp_invmod+0x170>
   1ba7a:	4639      	mov	r1, r7
   1ba7c:	4638      	mov	r0, r7
   1ba7e:	f7ff faf1 	bl	1b064 <sp_div_2.isra.0>
   1ba82:	682b      	ldr	r3, [r5, #0]
   1ba84:	b13b      	cbz	r3, 1ba96 <sp_invmod+0x166>
   1ba86:	68ab      	ldr	r3, [r5, #8]
   1ba88:	07d9      	lsls	r1, r3, #31
   1ba8a:	d504      	bpl.n	1ba96 <sp_invmod+0x166>
   1ba8c:	462a      	mov	r2, r5
   1ba8e:	4659      	mov	r1, fp
   1ba90:	4628      	mov	r0, r5
   1ba92:	f7ff fa7f 	bl	1af94 <_sp_add_off.constprop.0>
   1ba96:	4629      	mov	r1, r5
   1ba98:	4628      	mov	r0, r5
   1ba9a:	f7ff fae3 	bl	1b064 <sp_div_2.isra.0>
   1ba9e:	e7dd      	b.n	1ba5c <sp_invmod+0x12c>
   1baa0:	b1a1      	cbz	r1, 1bacc <sp_invmod+0x19c>
   1baa2:	f8d8 3008 	ldr.w	r3, [r8, #8]
   1baa6:	07da      	lsls	r2, r3, #31
   1baa8:	d410      	bmi.n	1bacc <sp_invmod+0x19c>
   1baaa:	4641      	mov	r1, r8
   1baac:	4640      	mov	r0, r8
   1baae:	f7ff fad9 	bl	1b064 <sp_div_2.isra.0>
   1bab2:	6823      	ldr	r3, [r4, #0]
   1bab4:	b13b      	cbz	r3, 1bac6 <sp_invmod+0x196>
   1bab6:	68a3      	ldr	r3, [r4, #8]
   1bab8:	07db      	lsls	r3, r3, #31
   1baba:	d504      	bpl.n	1bac6 <sp_invmod+0x196>
   1babc:	4622      	mov	r2, r4
   1babe:	4659      	mov	r1, fp
   1bac0:	4620      	mov	r0, r4
   1bac2:	f7ff fa67 	bl	1af94 <_sp_add_off.constprop.0>
   1bac6:	4621      	mov	r1, r4
   1bac8:	4620      	mov	r0, r4
   1baca:	e7e6      	b.n	1ba9a <sp_invmod+0x16a>
   1bacc:	4641      	mov	r1, r8
   1bace:	4638      	mov	r0, r7
   1bad0:	f7ff f8df 	bl	1ac92 <_sp_cmp_abs>
   1bad4:	3001      	adds	r0, #1
   1bad6:	f04f 0300 	mov.w	r3, #0
   1bada:	d016      	beq.n	1bb0a <sp_invmod+0x1da>
   1badc:	463a      	mov	r2, r7
   1bade:	4641      	mov	r1, r8
   1bae0:	4638      	mov	r0, r7
   1bae2:	f7ff f964 	bl	1adae <_sp_sub_off>
   1bae6:	4621      	mov	r1, r4
   1bae8:	4628      	mov	r0, r5
   1baea:	f7ff f8d2 	bl	1ac92 <_sp_cmp_abs>
   1baee:	3001      	adds	r0, #1
   1baf0:	d104      	bne.n	1bafc <sp_invmod+0x1cc>
   1baf2:	462a      	mov	r2, r5
   1baf4:	4659      	mov	r1, fp
   1baf6:	4628      	mov	r0, r5
   1baf8:	f7ff fa4c 	bl	1af94 <_sp_add_off.constprop.0>
   1bafc:	2300      	movs	r3, #0
   1bafe:	462a      	mov	r2, r5
   1bb00:	4621      	mov	r1, r4
   1bb02:	4628      	mov	r0, r5
   1bb04:	f7ff f953 	bl	1adae <_sp_sub_off>
   1bb08:	e7a8      	b.n	1ba5c <sp_invmod+0x12c>
   1bb0a:	4642      	mov	r2, r8
   1bb0c:	4639      	mov	r1, r7
   1bb0e:	4640      	mov	r0, r8
   1bb10:	f7ff f94d 	bl	1adae <_sp_sub_off>
   1bb14:	4629      	mov	r1, r5
   1bb16:	4620      	mov	r0, r4
   1bb18:	f7ff f8bb 	bl	1ac92 <_sp_cmp_abs>
   1bb1c:	3001      	adds	r0, #1
   1bb1e:	d104      	bne.n	1bb2a <sp_invmod+0x1fa>
   1bb20:	4622      	mov	r2, r4
   1bb22:	4659      	mov	r1, fp
   1bb24:	4620      	mov	r0, r4
   1bb26:	f7ff fa35 	bl	1af94 <_sp_add_off.constprop.0>
   1bb2a:	2300      	movs	r3, #0
   1bb2c:	4622      	mov	r2, r4
   1bb2e:	4629      	mov	r1, r5
   1bb30:	4620      	mov	r0, r4
   1bb32:	e7e7      	b.n	1bb04 <sp_invmod+0x1d4>
   1bb34:	9301      	str	r3, [sp, #4]
   1bb36:	b3d2      	cbz	r2, 1bbae <sp_invmod+0x27e>
   1bb38:	9b00      	ldr	r3, [sp, #0]
   1bb3a:	b1cb      	cbz	r3, 1bb70 <sp_invmod+0x240>
   1bb3c:	4622      	mov	r2, r4
   1bb3e:	4631      	mov	r1, r6
   1bb40:	4620      	mov	r0, r4
   1bb42:	f7ff fe2e 	bl	1b7a2 <sp_mul>
   1bb46:	4683      	mov	fp, r0
   1bb48:	9b01      	ldr	r3, [sp, #4]
   1bb4a:	bb90      	cbnz	r0, 1bbb2 <sp_invmod+0x282>
   1bb4c:	4619      	mov	r1, r3
   1bb4e:	4622      	mov	r2, r4
   1bb50:	4620      	mov	r0, r4
   1bb52:	f7ff f8b9 	bl	1acc8 <_sp_sub_d>
   1bb56:	465b      	mov	r3, fp
   1bb58:	4649      	mov	r1, r9
   1bb5a:	4620      	mov	r0, r4
   1bb5c:	f7ff fc5c 	bl	1b418 <sp_div>
   1bb60:	4683      	mov	fp, r0
   1bb62:	bb30      	cbnz	r0, 1bbb2 <sp_invmod+0x282>
   1bb64:	4652      	mov	r2, sl
   1bb66:	4621      	mov	r1, r4
   1bb68:	4630      	mov	r0, r6
   1bb6a:	f7ff fc08 	bl	1b37e <sp_sub>
   1bb6e:	e020      	b.n	1bbb2 <sp_invmod+0x282>
   1bb70:	4651      	mov	r1, sl
   1bb72:	4620      	mov	r0, r4
   1bb74:	f7ff fb0a 	bl	1b18c <sp_copy>
   1bb78:	4683      	mov	fp, r0
   1bb7a:	e01a      	b.n	1bbb2 <sp_invmod+0x282>
   1bb7c:	f06f 0b02 	mvn.w	fp, #2
   1bb80:	e717      	b.n	1b9b2 <sp_invmod+0x82>
   1bb82:	f06f 0b01 	mvn.w	fp, #1
   1bb86:	e714      	b.n	1b9b2 <sp_invmod+0x82>
   1bb88:	4631      	mov	r1, r6
   1bb8a:	4648      	mov	r0, r9
   1bb8c:	f7ff f881 	bl	1ac92 <_sp_cmp_abs>
   1bb90:	3001      	adds	r0, #1
   1bb92:	d007      	beq.n	1bba4 <sp_invmod+0x274>
   1bb94:	4652      	mov	r2, sl
   1bb96:	4631      	mov	r1, r6
   1bb98:	4648      	mov	r0, r9
   1bb9a:	f7ff fdf8 	bl	1b78e <sp_mod>
   1bb9e:	4683      	mov	fp, r0
   1bba0:	b938      	cbnz	r0, 1bbb2 <sp_invmod+0x282>
   1bba2:	46d1      	mov	r9, sl
   1bba4:	f8d9 2000 	ldr.w	r2, [r9]
   1bba8:	2a00      	cmp	r2, #0
   1bbaa:	f47f af06 	bne.w	1b9ba <sp_invmod+0x8a>
   1bbae:	f06f 0b02 	mvn.w	fp, #2
   1bbb2:	4620      	mov	r0, r4
   1bbb4:	f7f4 ec2e 	blx	10414 <free@plt>
   1bbb8:	e6f8      	b.n	1b9ac <sp_invmod+0x7c>

0001bbba <sp_sqr>:
   1bbba:	460a      	mov	r2, r1
   1bbbc:	4601      	mov	r1, r0
   1bbbe:	f7ff bdf0 	b.w	1b7a2 <sp_mul>

0001bbc2 <sp_sqrmod>:
   1bbc2:	b538      	push	{r3, r4, r5, lr}
   1bbc4:	460d      	mov	r5, r1
   1bbc6:	4614      	mov	r4, r2
   1bbc8:	b188      	cbz	r0, 1bbee <sp_sqrmod+0x2c>
   1bbca:	b181      	cbz	r1, 1bbee <sp_sqrmod+0x2c>
   1bbcc:	b17a      	cbz	r2, 1bbee <sp_sqrmod+0x2c>
   1bbce:	6802      	ldr	r2, [r0, #0]
   1bbd0:	6863      	ldr	r3, [r4, #4]
   1bbd2:	ebb3 0f42 	cmp.w	r3, r2, lsl #1
   1bbd6:	db0a      	blt.n	1bbee <sp_sqrmod+0x2c>
   1bbd8:	4621      	mov	r1, r4
   1bbda:	f7ff ffee 	bl	1bbba <sp_sqr>
   1bbde:	b940      	cbnz	r0, 1bbf2 <sp_sqrmod+0x30>
   1bbe0:	4622      	mov	r2, r4
   1bbe2:	4629      	mov	r1, r5
   1bbe4:	4620      	mov	r0, r4
   1bbe6:	e8bd 4038 	ldmia.w	sp!, {r3, r4, r5, lr}
   1bbea:	f7ff bdd0 	b.w	1b78e <sp_mod>
   1bbee:	f06f 0002 	mvn.w	r0, #2
   1bbf2:	bd38      	pop	{r3, r4, r5, pc}

0001bbf4 <_sp_exptmod_ex>:
   1bbf4:	e92d 4ff0 	stmdb	sp!, {r4, r5, r6, r7, r8, r9, sl, fp, lr}
   1bbf8:	461e      	mov	r6, r3
   1bbfa:	4681      	mov	r9, r0
   1bbfc:	2318      	movs	r3, #24
   1bbfe:	b085      	sub	sp, #20
   1bc00:	4692      	mov	sl, r2
   1bc02:	6830      	ldr	r0, [r6, #0]
   1bc04:	9102      	str	r1, [sp, #8]
   1bc06:	4358      	muls	r0, r3
   1bc08:	3024      	adds	r0, #36	; 0x24
   1bc0a:	f7f4 ec1c 	blx	10444 <malloc@plt>
   1bc0e:	4605      	mov	r5, r0
   1bc10:	2800      	cmp	r0, #0
   1bc12:	d056      	beq.n	1bcc2 <_sp_exptmod_ex+0xce>
   1bc14:	6834      	ldr	r4, [r6, #0]
   1bc16:	0064      	lsls	r4, r4, #1
   1bc18:	1c61      	adds	r1, r4, #1
   1bc1a:	3403      	adds	r4, #3
   1bc1c:	eb00 0784 	add.w	r7, r0, r4, lsl #2
   1bc20:	6041      	str	r1, [r0, #4]
   1bc22:	eb07 0484 	add.w	r4, r7, r4, lsl #2
   1bc26:	6079      	str	r1, [r7, #4]
   1bc28:	6061      	str	r1, [r4, #4]
   1bc2a:	f7ff fa4b 	bl	1b0c4 <sp_init_size>
   1bc2e:	6831      	ldr	r1, [r6, #0]
   1bc30:	4638      	mov	r0, r7
   1bc32:	0049      	lsls	r1, r1, #1
   1bc34:	3101      	adds	r1, #1
   1bc36:	f7ff fa45 	bl	1b0c4 <sp_init_size>
   1bc3a:	6831      	ldr	r1, [r6, #0]
   1bc3c:	4620      	mov	r0, r4
   1bc3e:	0049      	lsls	r1, r1, #1
   1bc40:	3101      	adds	r1, #1
   1bc42:	f7ff fa3f 	bl	1b0c4 <sp_init_size>
   1bc46:	4631      	mov	r1, r6
   1bc48:	4648      	mov	r0, r9
   1bc4a:	f7ff f822 	bl	1ac92 <_sp_cmp_abs>
   1bc4e:	3001      	adds	r0, #1
   1bc50:	d00f      	beq.n	1bc72 <_sp_exptmod_ex+0x7e>
   1bc52:	462a      	mov	r2, r5
   1bc54:	4631      	mov	r1, r6
   1bc56:	4648      	mov	r0, r9
   1bc58:	f7ff fd99 	bl	1b78e <sp_mod>
   1bc5c:	4603      	mov	r3, r0
   1bc5e:	b968      	cbnz	r0, 1bc7c <_sp_exptmod_ex+0x88>
   1bc60:	682a      	ldr	r2, [r5, #0]
   1bc62:	b95a      	cbnz	r2, 1bc7c <_sp_exptmod_ex+0x88>
   1bc64:	9a0e      	ldr	r2, [sp, #56]	; 0x38
   1bc66:	b10a      	cbz	r2, 1bc6c <_sp_exptmod_ex+0x78>
   1bc68:	6010      	str	r0, [r2, #0]
   1bc6a:	6090      	str	r0, [r2, #8]
   1bc6c:	f04f 0801 	mov.w	r8, #1
   1bc70:	e006      	b.n	1bc80 <_sp_exptmod_ex+0x8c>
   1bc72:	4629      	mov	r1, r5
   1bc74:	4648      	mov	r0, r9
   1bc76:	f7ff fa89 	bl	1b18c <sp_copy>
   1bc7a:	4603      	mov	r3, r0
   1bc7c:	f04f 0800 	mov.w	r8, #0
   1bc80:	ea53 0b08 	orrs.w	fp, r3, r8
   1bc84:	d113      	bne.n	1bcae <_sp_exptmod_ex+0xba>
   1bc86:	4639      	mov	r1, r7
   1bc88:	4628      	mov	r0, r5
   1bc8a:	f7ff fa7f 	bl	1b18c <sp_copy>
   1bc8e:	4603      	mov	r3, r0
   1bc90:	f10a 32ff 	add.w	r2, sl, #4294967295
   1bc94:	9201      	str	r2, [sp, #4]
   1bc96:	b913      	cbnz	r3, 1bc9e <_sp_exptmod_ex+0xaa>
   1bc98:	9a01      	ldr	r2, [sp, #4]
   1bc9a:	2a00      	cmp	r2, #0
   1bc9c:	da17      	bge.n	1bcce <_sp_exptmod_ex+0xda>
   1bc9e:	ea53 0208 	orrs.w	r2, r3, r8
   1bca2:	d104      	bne.n	1bcae <_sp_exptmod_ex+0xba>
   1bca4:	4638      	mov	r0, r7
   1bca6:	990e      	ldr	r1, [sp, #56]	; 0x38
   1bca8:	f7ff fa70 	bl	1b18c <sp_copy>
   1bcac:	4603      	mov	r3, r0
   1bcae:	b125      	cbz	r5, 1bcba <_sp_exptmod_ex+0xc6>
   1bcb0:	4628      	mov	r0, r5
   1bcb2:	9301      	str	r3, [sp, #4]
   1bcb4:	f7f4 ebae 	blx	10414 <free@plt>
   1bcb8:	9b01      	ldr	r3, [sp, #4]
   1bcba:	4618      	mov	r0, r3
   1bcbc:	b005      	add	sp, #20
   1bcbe:	e8bd 8ff0 	ldmia.w	sp!, {r4, r5, r6, r7, r8, r9, sl, fp, pc}
   1bcc2:	4604      	mov	r4, r0
   1bcc4:	4607      	mov	r7, r0
   1bcc6:	4680      	mov	r8, r0
   1bcc8:	f06f 0301 	mvn.w	r3, #1
   1bccc:	e7d8      	b.n	1bc80 <_sp_exptmod_ex+0x8c>
   1bcce:	4a25      	ldr	r2, [pc, #148]	; (1bd64 <_sp_exptmod_ex+0x170>)
   1bcd0:	f08b 0301 	eor.w	r3, fp, #1
   1bcd4:	4621      	mov	r1, r4
   1bcd6:	f852 3023 	ldr.w	r3, [r2, r3, lsl #2]
   1bcda:	ea05 0a03 	and.w	sl, r5, r3
   1bcde:	f852 302b 	ldr.w	r3, [r2, fp, lsl #2]
   1bce2:	403b      	ands	r3, r7
   1bce4:	449a      	add	sl, r3
   1bce6:	4650      	mov	r0, sl
   1bce8:	f7ff fa50 	bl	1b18c <sp_copy>
   1bcec:	4622      	mov	r2, r4
   1bcee:	4631      	mov	r1, r6
   1bcf0:	4620      	mov	r0, r4
   1bcf2:	f7ff ff66 	bl	1bbc2 <sp_sqrmod>
   1bcf6:	4603      	mov	r3, r0
   1bcf8:	4651      	mov	r1, sl
   1bcfa:	4620      	mov	r0, r4
   1bcfc:	9303      	str	r3, [sp, #12]
   1bcfe:	f7ff fa45 	bl	1b18c <sp_copy>
   1bd02:	9b03      	ldr	r3, [sp, #12]
   1bd04:	bb5b      	cbnz	r3, 1bd5e <_sp_exptmod_ex+0x16a>
   1bd06:	e9dd 3101 	ldrd	r3, r1, [sp, #4]
   1bd0a:	115a      	asrs	r2, r3, #5
   1bd0c:	f003 031f 	and.w	r3, r3, #31
   1bd10:	3202      	adds	r2, #2
   1bd12:	f851 2022 	ldr.w	r2, [r1, r2, lsl #2]
   1bd16:	4913      	ldr	r1, [pc, #76]	; (1bd64 <_sp_exptmod_ex+0x170>)
   1bd18:	fa22 f303 	lsr.w	r3, r2, r3
   1bd1c:	f003 0301 	and.w	r3, r3, #1
   1bd20:	ea0b 0203 	and.w	r2, fp, r3
   1bd24:	ea4b 0b03 	orr.w	fp, fp, r3
   1bd28:	f082 0301 	eor.w	r3, r2, #1
   1bd2c:	f851 3023 	ldr.w	r3, [r1, r3, lsl #2]
   1bd30:	ea05 0a03 	and.w	sl, r5, r3
   1bd34:	f851 3022 	ldr.w	r3, [r1, r2, lsl #2]
   1bd38:	4621      	mov	r1, r4
   1bd3a:	403b      	ands	r3, r7
   1bd3c:	449a      	add	sl, r3
   1bd3e:	4650      	mov	r0, sl
   1bd40:	f7ff fa24 	bl	1b18c <sp_copy>
   1bd44:	4623      	mov	r3, r4
   1bd46:	4632      	mov	r2, r6
   1bd48:	4649      	mov	r1, r9
   1bd4a:	4620      	mov	r0, r4
   1bd4c:	f7ff fdb5 	bl	1b8ba <sp_mulmod>
   1bd50:	4603      	mov	r3, r0
   1bd52:	4651      	mov	r1, sl
   1bd54:	4620      	mov	r0, r4
   1bd56:	9303      	str	r3, [sp, #12]
   1bd58:	f7ff fa18 	bl	1b18c <sp_copy>
   1bd5c:	9b03      	ldr	r3, [sp, #12]
   1bd5e:	9a01      	ldr	r2, [sp, #4]
   1bd60:	3a01      	subs	r2, #1
   1bd62:	e797      	b.n	1bc94 <_sp_exptmod_ex+0xa0>
   1bd64:	0001d1ec 	.word	0x0001d1ec

0001bd68 <sp_exptmod_ex>:
   1bd68:	e92d 47f0 	stmdb	sp!, {r4, r5, r6, r7, r8, r9, sl, lr}
   1bd6c:	4607      	mov	r7, r0
   1bd6e:	4618      	mov	r0, r3
   1bd70:	4691      	mov	r9, r2
   1bd72:	461d      	mov	r5, r3
   1bd74:	4688      	mov	r8, r1
   1bd76:	f7ff fa2e 	bl	1b1d6 <sp_count_bits>
   1bd7a:	4682      	mov	sl, r0
   1bd7c:	4638      	mov	r0, r7
   1bd7e:	f7ff fa2a 	bl	1b1d6 <sp_count_bits>
   1bd82:	4601      	mov	r1, r0
   1bd84:	4640      	mov	r0, r8
   1bd86:	f7ff fa26 	bl	1b1d6 <sp_count_bits>
   1bd8a:	4602      	mov	r2, r0
   1bd8c:	9e08      	ldr	r6, [sp, #32]
   1bd8e:	2f00      	cmp	r7, #0
   1bd90:	d049      	beq.n	1be26 <sp_exptmod_ex+0xbe>
   1bd92:	f1b8 0f00 	cmp.w	r8, #0
   1bd96:	d04a      	beq.n	1be2e <sp_exptmod_ex+0xc6>
   1bd98:	2d00      	cmp	r5, #0
   1bd9a:	d04a      	beq.n	1be32 <sp_exptmod_ex+0xca>
   1bd9c:	2e00      	cmp	r6, #0
   1bd9e:	d04a      	beq.n	1be36 <sp_exptmod_ex+0xce>
   1bda0:	682c      	ldr	r4, [r5, #0]
   1bda2:	2c00      	cmp	r4, #0
   1bda4:	d040      	beq.n	1be28 <sp_exptmod_ex+0xc0>
   1bda6:	2c01      	cmp	r4, #1
   1bda8:	d12b      	bne.n	1be02 <sp_exptmod_ex+0x9a>
   1bdaa:	68ab      	ldr	r3, [r5, #8]
   1bdac:	2b01      	cmp	r3, #1
   1bdae:	d128      	bne.n	1be02 <sp_exptmod_ex+0x9a>
   1bdb0:	2300      	movs	r3, #0
   1bdb2:	2401      	movs	r4, #1
   1bdb4:	6033      	str	r3, [r6, #0]
   1bdb6:	60b3      	str	r3, [r6, #8]
   1bdb8:	ea53 0004 	orrs.w	r0, r3, r4
   1bdbc:	d17f      	bne.n	1bebe <sp_exptmod_ex+0x156>
   1bdbe:	f5ba 6f80 	cmp.w	sl, #1024	; 0x400
   1bdc2:	d13a      	bne.n	1be3a <sp_exptmod_ex+0xd2>
   1bdc4:	682c      	ldr	r4, [r5, #0]
   1bdc6:	b17c      	cbz	r4, 1bde8 <sp_exptmod_ex+0x80>
   1bdc8:	68ab      	ldr	r3, [r5, #8]
   1bdca:	07dc      	lsls	r4, r3, #31
   1bdcc:	d579      	bpl.n	1bec2 <sp_exptmod_ex+0x15a>
   1bdce:	f5b1 6f80 	cmp.w	r1, #1024	; 0x400
   1bdd2:	dc76      	bgt.n	1bec2 <sp_exptmod_ex+0x15a>
   1bdd4:	f5b2 6f80 	cmp.w	r2, #1024	; 0x400
   1bdd8:	dc73      	bgt.n	1bec2 <sp_exptmod_ex+0x15a>
   1bdda:	4633      	mov	r3, r6
   1bddc:	462a      	mov	r2, r5
   1bdde:	4641      	mov	r1, r8
   1bde0:	4638      	mov	r0, r7
   1bde2:	f7fe fc84 	bl	1a6ee <sp_ModExp_1024>
   1bde6:	2401      	movs	r4, #1
   1bde8:	ea50 0304 	orrs.w	r3, r0, r4
   1bdec:	d16b      	bne.n	1bec6 <sp_exptmod_ex+0x15e>
   1bdee:	ea4f 1249 	mov.w	r2, r9, lsl #5
   1bdf2:	462b      	mov	r3, r5
   1bdf4:	4641      	mov	r1, r8
   1bdf6:	4638      	mov	r0, r7
   1bdf8:	9608      	str	r6, [sp, #32]
   1bdfa:	e8bd 47f0 	ldmia.w	sp!, {r4, r5, r6, r7, r8, r9, sl, lr}
   1bdfe:	f7ff bef9 	b.w	1bbf4 <_sp_exptmod_ex>
   1be02:	f8d8 3000 	ldr.w	r3, [r8]
   1be06:	b91b      	cbnz	r3, 1be10 <sp_exptmod_ex+0xa8>
   1be08:	2401      	movs	r4, #1
   1be0a:	6034      	str	r4, [r6, #0]
   1be0c:	60b4      	str	r4, [r6, #8]
   1be0e:	e7d3      	b.n	1bdb8 <sp_exptmod_ex+0x50>
   1be10:	683b      	ldr	r3, [r7, #0]
   1be12:	2b00      	cmp	r3, #0
   1be14:	d0cc      	beq.n	1bdb0 <sp_exptmod_ex+0x48>
   1be16:	6873      	ldr	r3, [r6, #4]
   1be18:	ebb3 0f44 	cmp.w	r3, r4, lsl #1
   1be1c:	f04f 0400 	mov.w	r4, #0
   1be20:	dd02      	ble.n	1be28 <sp_exptmod_ex+0xc0>
   1be22:	4623      	mov	r3, r4
   1be24:	e7c8      	b.n	1bdb8 <sp_exptmod_ex+0x50>
   1be26:	463c      	mov	r4, r7
   1be28:	f06f 0302 	mvn.w	r3, #2
   1be2c:	e7c4      	b.n	1bdb8 <sp_exptmod_ex+0x50>
   1be2e:	4644      	mov	r4, r8
   1be30:	e7fa      	b.n	1be28 <sp_exptmod_ex+0xc0>
   1be32:	462c      	mov	r4, r5
   1be34:	e7f8      	b.n	1be28 <sp_exptmod_ex+0xc0>
   1be36:	4634      	mov	r4, r6
   1be38:	e7f6      	b.n	1be28 <sp_exptmod_ex+0xc0>
   1be3a:	f5ba 6f00 	cmp.w	sl, #2048	; 0x800
   1be3e:	d112      	bne.n	1be66 <sp_exptmod_ex+0xfe>
   1be40:	682c      	ldr	r4, [r5, #0]
   1be42:	2c00      	cmp	r4, #0
   1be44:	d0d0      	beq.n	1bde8 <sp_exptmod_ex+0x80>
   1be46:	68ab      	ldr	r3, [r5, #8]
   1be48:	07db      	lsls	r3, r3, #31
   1be4a:	d53a      	bpl.n	1bec2 <sp_exptmod_ex+0x15a>
   1be4c:	f5b1 6f00 	cmp.w	r1, #2048	; 0x800
   1be50:	dc37      	bgt.n	1bec2 <sp_exptmod_ex+0x15a>
   1be52:	f5b2 6f00 	cmp.w	r2, #2048	; 0x800
   1be56:	dc34      	bgt.n	1bec2 <sp_exptmod_ex+0x15a>
   1be58:	4633      	mov	r3, r6
   1be5a:	462a      	mov	r2, r5
   1be5c:	4641      	mov	r1, r8
   1be5e:	4638      	mov	r0, r7
   1be60:	f7fe fbf5 	bl	1a64e <sp_ModExp_2048>
   1be64:	e7bf      	b.n	1bde6 <sp_exptmod_ex+0x7e>
   1be66:	f5ba 6fc0 	cmp.w	sl, #1536	; 0x600
   1be6a:	d112      	bne.n	1be92 <sp_exptmod_ex+0x12a>
   1be6c:	682c      	ldr	r4, [r5, #0]
   1be6e:	2c00      	cmp	r4, #0
   1be70:	d0ba      	beq.n	1bde8 <sp_exptmod_ex+0x80>
   1be72:	68ab      	ldr	r3, [r5, #8]
   1be74:	07dc      	lsls	r4, r3, #31
   1be76:	d524      	bpl.n	1bec2 <sp_exptmod_ex+0x15a>
   1be78:	f5b1 6fc0 	cmp.w	r1, #1536	; 0x600
   1be7c:	dc21      	bgt.n	1bec2 <sp_exptmod_ex+0x15a>
   1be7e:	f5b2 6fc0 	cmp.w	r2, #1536	; 0x600
   1be82:	dc1e      	bgt.n	1bec2 <sp_exptmod_ex+0x15a>
   1be84:	4633      	mov	r3, r6
   1be86:	462a      	mov	r2, r5
   1be88:	4641      	mov	r1, r8
   1be8a:	4638      	mov	r0, r7
   1be8c:	f7fe fe9d 	bl	1abca <sp_ModExp_1536>
   1be90:	e7a9      	b.n	1bde6 <sp_exptmod_ex+0x7e>
   1be92:	f5ba 6f40 	cmp.w	sl, #3072	; 0xc00
   1be96:	d114      	bne.n	1bec2 <sp_exptmod_ex+0x15a>
   1be98:	682c      	ldr	r4, [r5, #0]
   1be9a:	2c00      	cmp	r4, #0
   1be9c:	d0a4      	beq.n	1bde8 <sp_exptmod_ex+0x80>
   1be9e:	68ab      	ldr	r3, [r5, #8]
   1bea0:	07db      	lsls	r3, r3, #31
   1bea2:	d50e      	bpl.n	1bec2 <sp_exptmod_ex+0x15a>
   1bea4:	f5b1 6f40 	cmp.w	r1, #3072	; 0xc00
   1bea8:	dc0b      	bgt.n	1bec2 <sp_exptmod_ex+0x15a>
   1beaa:	f5b2 6f40 	cmp.w	r2, #3072	; 0xc00
   1beae:	dc08      	bgt.n	1bec2 <sp_exptmod_ex+0x15a>
   1beb0:	4633      	mov	r3, r6
   1beb2:	462a      	mov	r2, r5
   1beb4:	4641      	mov	r1, r8
   1beb6:	4638      	mov	r0, r7
   1beb8:	f7fe fe37 	bl	1ab2a <sp_ModExp_3072>
   1bebc:	e793      	b.n	1bde6 <sp_exptmod_ex+0x7e>
   1bebe:	4618      	mov	r0, r3
   1bec0:	e792      	b.n	1bde8 <sp_exptmod_ex+0x80>
   1bec2:	4604      	mov	r4, r0
   1bec4:	e790      	b.n	1bde8 <sp_exptmod_ex+0x80>
   1bec6:	e8bd 87f0 	ldmia.w	sp!, {r4, r5, r6, r7, r8, r9, sl, pc}

0001beca <sp_exptmod>:
   1beca:	b513      	push	{r0, r1, r4, lr}
   1becc:	b148      	cbz	r0, 1bee2 <sp_exptmod+0x18>
   1bece:	b141      	cbz	r1, 1bee2 <sp_exptmod+0x18>
   1bed0:	b13a      	cbz	r2, 1bee2 <sp_exptmod+0x18>
   1bed2:	b133      	cbz	r3, 1bee2 <sp_exptmod+0x18>
   1bed4:	9300      	str	r3, [sp, #0]
   1bed6:	4613      	mov	r3, r2
   1bed8:	680a      	ldr	r2, [r1, #0]
   1beda:	f7ff ff45 	bl	1bd68 <sp_exptmod_ex>
   1bede:	b002      	add	sp, #8
   1bee0:	bd10      	pop	{r4, pc}
   1bee2:	f06f 0002 	mvn.w	r0, #2
   1bee6:	e7fa      	b.n	1bede <sp_exptmod+0x14>

0001bee8 <sp_prime_miller_rabin_ex>:
   1bee8:	e92d 4ff8 	stmdb	sp!, {r3, r4, r5, r6, r7, r8, r9, sl, fp, lr}
   1beec:	461c      	mov	r4, r3
   1beee:	2300      	movs	r3, #0
   1bef0:	468b      	mov	fp, r1
   1bef2:	4682      	mov	sl, r0
   1bef4:	2101      	movs	r1, #1
   1bef6:	4658      	mov	r0, fp
   1bef8:	6013      	str	r3, [r2, #0]
   1befa:	4690      	mov	r8, r2
   1befc:	f7ff f9cd 	bl	1b29a <sp_cmp_d>
   1bf00:	4288      	cmp	r0, r1
   1bf02:	4681      	mov	r9, r0
   1bf04:	e9dd 670a 	ldrd	r6, r7, [sp, #40]	; 0x28
   1bf08:	d003      	beq.n	1bf12 <sp_prime_miller_rabin_ex+0x2a>
   1bf0a:	2700      	movs	r7, #0
   1bf0c:	4638      	mov	r0, r7
   1bf0e:	e8bd 8ff8 	ldmia.w	sp!, {r3, r4, r5, r6, r7, r8, r9, sl, fp, pc}
   1bf12:	4621      	mov	r1, r4
   1bf14:	4650      	mov	r0, sl
   1bf16:	f7ff f939 	bl	1b18c <sp_copy>
   1bf1a:	4649      	mov	r1, r9
   1bf1c:	4620      	mov	r0, r4
   1bf1e:	4622      	mov	r2, r4
   1bf20:	f7fe fed2 	bl	1acc8 <_sp_sub_d>
   1bf24:	4639      	mov	r1, r7
   1bf26:	4620      	mov	r0, r4
   1bf28:	f7ff f930 	bl	1b18c <sp_copy>
   1bf2c:	2f00      	cmp	r7, #0
   1bf2e:	d05f      	beq.n	1bff0 <sp_prime_miller_rabin_ex+0x108>
   1bf30:	683d      	ldr	r5, [r7, #0]
   1bf32:	b1bd      	cbz	r5, 1bf64 <sp_prime_miller_rabin_ex+0x7c>
   1bf34:	f107 0308 	add.w	r3, r7, #8
   1bf38:	2200      	movs	r2, #0
   1bf3a:	4295      	cmp	r5, r2
   1bf3c:	ea4f 1042 	mov.w	r0, r2, lsl #5
   1bf40:	f853 1b04 	ldr.w	r1, [r3], #4
   1bf44:	dd01      	ble.n	1bf4a <sp_prime_miller_rabin_ex+0x62>
   1bf46:	2900      	cmp	r1, #0
   1bf48:	d04c      	beq.n	1bfe4 <sp_prime_miller_rabin_ex+0xfc>
   1bf4a:	f8df c0b8 	ldr.w	ip, [pc, #184]	; 1c004 <sp_prime_miller_rabin_ex+0x11c>
   1bf4e:	2300      	movs	r3, #0
   1bf50:	fa21 f203 	lsr.w	r2, r1, r3
   1bf54:	f002 020f 	and.w	r2, r2, #15
   1bf58:	f85c 5022 	ldr.w	r5, [ip, r2, lsl #2]
   1bf5c:	2d04      	cmp	r5, #4
   1bf5e:	d043      	beq.n	1bfe8 <sp_prime_miller_rabin_ex+0x100>
   1bf60:	4403      	add	r3, r0
   1bf62:	441d      	add	r5, r3
   1bf64:	463a      	mov	r2, r7
   1bf66:	4629      	mov	r1, r5
   1bf68:	4638      	mov	r0, r7
   1bf6a:	f7ff fa16 	bl	1b39a <sp_rshb>
   1bf6e:	4633      	mov	r3, r6
   1bf70:	4652      	mov	r2, sl
   1bf72:	4639      	mov	r1, r7
   1bf74:	4658      	mov	r0, fp
   1bf76:	f7ff ffa8 	bl	1beca <sp_exptmod>
   1bf7a:	2800      	cmp	r0, #0
   1bf7c:	d13f      	bne.n	1bffe <sp_prime_miller_rabin_ex+0x116>
   1bf7e:	2101      	movs	r1, #1
   1bf80:	4630      	mov	r0, r6
   1bf82:	f8c8 1000 	str.w	r1, [r8]
   1bf86:	f7ff f988 	bl	1b29a <sp_cmp_d>
   1bf8a:	2800      	cmp	r0, #0
   1bf8c:	d0bd      	beq.n	1bf0a <sp_prime_miller_rabin_ex+0x22>
   1bf8e:	4621      	mov	r1, r4
   1bf90:	4630      	mov	r0, r6
   1bf92:	f7fe fe7e 	bl	1ac92 <_sp_cmp_abs>
   1bf96:	2800      	cmp	r0, #0
   1bf98:	d0b7      	beq.n	1bf0a <sp_prime_miller_rabin_ex+0x22>
   1bf9a:	45a9      	cmp	r9, r5
   1bf9c:	da2d      	bge.n	1bffa <sp_prime_miller_rabin_ex+0x112>
   1bf9e:	4621      	mov	r1, r4
   1bfa0:	4630      	mov	r0, r6
   1bfa2:	f7fe fe76 	bl	1ac92 <_sp_cmp_abs>
   1bfa6:	4607      	mov	r7, r0
   1bfa8:	b170      	cbz	r0, 1bfc8 <sp_prime_miller_rabin_ex+0xe0>
   1bfaa:	4632      	mov	r2, r6
   1bfac:	4651      	mov	r1, sl
   1bfae:	4630      	mov	r0, r6
   1bfb0:	f7ff fe07 	bl	1bbc2 <sp_sqrmod>
   1bfb4:	4607      	mov	r7, r0
   1bfb6:	b938      	cbnz	r0, 1bfc8 <sp_prime_miller_rabin_ex+0xe0>
   1bfb8:	2101      	movs	r1, #1
   1bfba:	4630      	mov	r0, r6
   1bfbc:	f7ff f96d 	bl	1b29a <sp_cmp_d>
   1bfc0:	4607      	mov	r7, r0
   1bfc2:	b9b8      	cbnz	r0, 1bff4 <sp_prime_miller_rabin_ex+0x10c>
   1bfc4:	f8c8 0000 	str.w	r0, [r8]
   1bfc8:	f8d8 3000 	ldr.w	r3, [r8]
   1bfcc:	2b01      	cmp	r3, #1
   1bfce:	d19d      	bne.n	1bf0c <sp_prime_miller_rabin_ex+0x24>
   1bfd0:	4621      	mov	r1, r4
   1bfd2:	4630      	mov	r0, r6
   1bfd4:	f7fe fe5d 	bl	1ac92 <_sp_cmp_abs>
   1bfd8:	2800      	cmp	r0, #0
   1bfda:	d097      	beq.n	1bf0c <sp_prime_miller_rabin_ex+0x24>
   1bfdc:	2300      	movs	r3, #0
   1bfde:	f8c8 3000 	str.w	r3, [r8]
   1bfe2:	e793      	b.n	1bf0c <sp_prime_miller_rabin_ex+0x24>
   1bfe4:	3201      	adds	r2, #1
   1bfe6:	e7a8      	b.n	1bf3a <sp_prime_miller_rabin_ex+0x52>
   1bfe8:	3304      	adds	r3, #4
   1bfea:	2b20      	cmp	r3, #32
   1bfec:	d1b0      	bne.n	1bf50 <sp_prime_miller_rabin_ex+0x68>
   1bfee:	e7b9      	b.n	1bf64 <sp_prime_miller_rabin_ex+0x7c>
   1bff0:	463d      	mov	r5, r7
   1bff2:	e7b7      	b.n	1bf64 <sp_prime_miller_rabin_ex+0x7c>
   1bff4:	f109 0901 	add.w	r9, r9, #1
   1bff8:	e7cf      	b.n	1bf9a <sp_prime_miller_rabin_ex+0xb2>
   1bffa:	2700      	movs	r7, #0
   1bffc:	e7e4      	b.n	1bfc8 <sp_prime_miller_rabin_ex+0xe0>
   1bffe:	4607      	mov	r7, r0
   1c000:	e784      	b.n	1bf0c <sp_prime_miller_rabin_ex+0x24>
   1c002:	bf00      	nop
   1c004:	0001d1ac 	.word	0x0001d1ac

0001c008 <sp_unsigned_bin_size>:
   1c008:	b508      	push	{r3, lr}
   1c00a:	b130      	cbz	r0, 1c01a <sp_unsigned_bin_size+0x12>
   1c00c:	f7ff f8e3 	bl	1b1d6 <sp_count_bits>
   1c010:	1dc3      	adds	r3, r0, #7
   1c012:	bf48      	it	mi
   1c014:	f100 030e 	addmi.w	r3, r0, #14
   1c018:	10d8      	asrs	r0, r3, #3
   1c01a:	bd08      	pop	{r3, pc}

0001c01c <sp_read_unsigned_bin>:
   1c01c:	e92d 43f0 	stmdb	sp!, {r4, r5, r6, r7, r8, r9, lr}
   1c020:	b398      	cbz	r0, 1c08a <sp_read_unsigned_bin+0x6e>
   1c022:	bb71      	cbnz	r1, 1c082 <sp_read_unsigned_bin+0x66>
   1c024:	bb8a      	cbnz	r2, 1c08a <sp_read_unsigned_bin+0x6e>
   1c026:	1cd6      	adds	r6, r2, #3
   1c028:	4604      	mov	r4, r0
   1c02a:	08b6      	lsrs	r6, r6, #2
   1c02c:	f102 3eff 	add.w	lr, r2, #4294967295
   1c030:	188f      	adds	r7, r1, r2
   1c032:	4675      	mov	r5, lr
   1c034:	f844 6b08 	str.w	r6, [r4], #8
   1c038:	46a0      	mov	r8, r4
   1c03a:	2d02      	cmp	r5, #2
   1c03c:	dc28      	bgt.n	1c090 <sp_read_unsigned_bin+0x74>
   1c03e:	2d00      	cmp	r5, #0
   1c040:	db12      	blt.n	1c068 <sp_read_unsigned_bin+0x4c>
   1c042:	3601      	adds	r6, #1
   1c044:	2300      	movs	r3, #0
   1c046:	2d01      	cmp	r5, #1
   1c048:	f840 3026 	str.w	r3, [r0, r6, lsl #2]
   1c04c:	d005      	beq.n	1c05a <sp_read_unsigned_bin+0x3e>
   1c04e:	2d02      	cmp	r5, #2
   1c050:	d107      	bne.n	1c062 <sp_read_unsigned_bin+0x46>
   1c052:	788d      	ldrb	r5, [r1, #2]
   1c054:	18a3      	adds	r3, r4, r2
   1c056:	f803 5c03 	strb.w	r5, [r3, #-3]
   1c05a:	784b      	ldrb	r3, [r1, #1]
   1c05c:	4422      	add	r2, r4
   1c05e:	f802 3c02 	strb.w	r3, [r2, #-2]
   1c062:	780b      	ldrb	r3, [r1, #0]
   1c064:	f804 300e 	strb.w	r3, [r4, lr]
   1c068:	6803      	ldr	r3, [r0, #0]
   1c06a:	3b01      	subs	r3, #1
   1c06c:	2b00      	cmp	r3, #0
   1c06e:	db03      	blt.n	1c078 <sp_read_unsigned_bin+0x5c>
   1c070:	f854 2023 	ldr.w	r2, [r4, r3, lsl #2]
   1c074:	2a00      	cmp	r2, #0
   1c076:	d0f8      	beq.n	1c06a <sp_read_unsigned_bin+0x4e>
   1c078:	3301      	adds	r3, #1
   1c07a:	6003      	str	r3, [r0, #0]
   1c07c:	2000      	movs	r0, #0
   1c07e:	e8bd 83f0 	ldmia.w	sp!, {r4, r5, r6, r7, r8, r9, pc}
   1c082:	6843      	ldr	r3, [r0, #4]
   1c084:	ebb2 0f83 	cmp.w	r2, r3, lsl #2
   1c088:	d9cd      	bls.n	1c026 <sp_read_unsigned_bin+0xa>
   1c08a:	f06f 0002 	mvn.w	r0, #2
   1c08e:	e7f6      	b.n	1c07e <sp_read_unsigned_bin+0x62>
   1c090:	f817 3c01 	ldrb.w	r3, [r7, #-1]
   1c094:	3d04      	subs	r5, #4
   1c096:	f8c8 3000 	str.w	r3, [r8]
   1c09a:	f817 cc02 	ldrb.w	ip, [r7, #-2]
   1c09e:	ea43 2c0c 	orr.w	ip, r3, ip, lsl #8
   1c0a2:	f848 cb04 	str.w	ip, [r8], #4
   1c0a6:	f817 9c03 	ldrb.w	r9, [r7, #-3]
   1c0aa:	f817 3d04 	ldrb.w	r3, [r7, #-4]!
   1c0ae:	061b      	lsls	r3, r3, #24
   1c0b0:	ea43 4309 	orr.w	r3, r3, r9, lsl #16
   1c0b4:	ea43 030c 	orr.w	r3, r3, ip
   1c0b8:	f848 3c04 	str.w	r3, [r8, #-4]
   1c0bc:	e7bd      	b.n	1c03a <sp_read_unsigned_bin+0x1e>
	...

0001c0c0 <sp_prime_is_prime>:
   1c0c0:	e92d 4ff0 	stmdb	sp!, {r4, r5, r6, r7, r8, r9, sl, fp, lr}
   1c0c4:	b087      	sub	sp, #28
   1c0c6:	4616      	mov	r6, r2
   1c0c8:	4605      	mov	r5, r0
   1c0ca:	9103      	str	r1, [sp, #12]
   1c0cc:	b178      	cbz	r0, 1c0ee <sp_prime_is_prime+0x2e>
   1c0ce:	2a00      	cmp	r2, #0
   1c0d0:	d05d      	beq.n	1c18e <sp_prime_is_prime+0xce>
   1c0d2:	1e4b      	subs	r3, r1, #1
   1c0d4:	2bff      	cmp	r3, #255	; 0xff
   1c0d6:	d80c      	bhi.n	1c0f2 <sp_prime_is_prime+0x32>
   1c0d8:	6803      	ldr	r3, [r0, #0]
   1c0da:	f04f 0b00 	mov.w	fp, #0
   1c0de:	2b01      	cmp	r3, #1
   1c0e0:	d159      	bne.n	1c196 <sp_prime_is_prime+0xd6>
   1c0e2:	6881      	ldr	r1, [r0, #8]
   1c0e4:	2901      	cmp	r1, #1
   1c0e6:	d156      	bne.n	1c196 <sp_prime_is_prime+0xd6>
   1c0e8:	f8c2 b000 	str.w	fp, [r2]
   1c0ec:	e005      	b.n	1c0fa <sp_prime_is_prime+0x3a>
   1c0ee:	2a00      	cmp	r2, #0
   1c0f0:	d04d      	beq.n	1c18e <sp_prime_is_prime+0xce>
   1c0f2:	2300      	movs	r3, #0
   1c0f4:	f06f 0b02 	mvn.w	fp, #2
   1c0f8:	6033      	str	r3, [r6, #0]
   1c0fa:	ea53 040b 	orrs.w	r4, r3, fp
   1c0fe:	d151      	bne.n	1c1a4 <sp_prime_is_prime+0xe4>
   1c100:	682b      	ldr	r3, [r5, #0]
   1c102:	2b01      	cmp	r3, #1
   1c104:	d10a      	bne.n	1c11c <sp_prime_is_prime+0x5c>
   1c106:	4a4b      	ldr	r2, [pc, #300]	; (1c234 <sp_prime_is_prime+0x174>)
   1c108:	4627      	mov	r7, r4
   1c10a:	4628      	mov	r0, r5
   1c10c:	f852 1b04 	ldr.w	r1, [r2], #4
   1c110:	f7ff f8c3 	bl	1b29a <sp_cmp_d>
   1c114:	2800      	cmp	r0, #0
   1c116:	d140      	bne.n	1c19a <sp_prime_is_prime+0xda>
   1c118:	2401      	movs	r4, #1
   1c11a:	6034      	str	r4, [r6, #0]
   1c11c:	ea54 070b 	orrs.w	r7, r4, fp
   1c120:	d10f      	bne.n	1c142 <sp_prime_is_prime+0x82>
   1c122:	f8df 8110 	ldr.w	r8, [pc, #272]	; 1c234 <sp_prime_is_prime+0x174>
   1c126:	aa05      	add	r2, sp, #20
   1c128:	4628      	mov	r0, r5
   1c12a:	f858 1b04 	ldr.w	r1, [r8], #4
   1c12e:	f7fe fee9 	bl	1af04 <sp_mod_d>
   1c132:	4604      	mov	r4, r0
   1c134:	b908      	cbnz	r0, 1c13a <sp_prime_is_prime+0x7a>
   1c136:	9b05      	ldr	r3, [sp, #20]
   1c138:	bbb3      	cbnz	r3, 1c1a8 <sp_prime_is_prime+0xe8>
   1c13a:	2300      	movs	r3, #0
   1c13c:	46a3      	mov	fp, r4
   1c13e:	2401      	movs	r4, #1
   1c140:	6033      	str	r3, [r6, #0]
   1c142:	ea5b 0404 	orrs.w	r4, fp, r4
   1c146:	d170      	bne.n	1c22a <sp_prime_is_prime+0x16a>
   1c148:	200c      	movs	r0, #12
   1c14a:	f7f4 e97c 	blx	10444 <malloc@plt>
   1c14e:	4680      	mov	r8, r0
   1c150:	2800      	cmp	r0, #0
   1c152:	d068      	beq.n	1c226 <sp_prime_is_prime+0x166>
   1c154:	2101      	movs	r1, #1
   1c156:	f7fe ffb5 	bl	1b0c4 <sp_init_size>
   1c15a:	4b36      	ldr	r3, [pc, #216]	; (1c234 <sp_prime_is_prime+0x174>)
   1c15c:	9302      	str	r3, [sp, #8]
   1c15e:	9b03      	ldr	r3, [sp, #12]
   1c160:	429c      	cmp	r4, r3
   1c162:	da5b      	bge.n	1c21c <sp_prime_is_prime+0x15c>
   1c164:	9b02      	ldr	r3, [sp, #8]
   1c166:	4640      	mov	r0, r8
   1c168:	f853 1b04 	ldr.w	r1, [r3], #4
   1c16c:	9302      	str	r3, [sp, #8]
   1c16e:	2318      	movs	r3, #24
   1c170:	f7ff f87d 	bl	1b26e <sp_set>
   1c174:	6828      	ldr	r0, [r5, #0]
   1c176:	4358      	muls	r0, r3
   1c178:	3024      	adds	r0, #36	; 0x24
   1c17a:	f7f4 e964 	blx	10444 <malloc@plt>
   1c17e:	4682      	mov	sl, r0
   1c180:	b9c0      	cbnz	r0, 1c1b4 <sp_prime_is_prime+0xf4>
   1c182:	f06f 0b01 	mvn.w	fp, #1
   1c186:	4640      	mov	r0, r8
   1c188:	f7f4 e944 	blx	10414 <free@plt>
   1c18c:	e04d      	b.n	1c22a <sp_prime_is_prime+0x16a>
   1c18e:	f06f 0b02 	mvn.w	fp, #2
   1c192:	4633      	mov	r3, r6
   1c194:	e7b1      	b.n	1c0fa <sp_prime_is_prime+0x3a>
   1c196:	465b      	mov	r3, fp
   1c198:	e7af      	b.n	1c0fa <sp_prime_is_prime+0x3a>
   1c19a:	3701      	adds	r7, #1
   1c19c:	f5b7 7f80 	cmp.w	r7, #256	; 0x100
   1c1a0:	d1b3      	bne.n	1c10a <sp_prime_is_prime+0x4a>
   1c1a2:	e7bb      	b.n	1c11c <sp_prime_is_prime+0x5c>
   1c1a4:	461c      	mov	r4, r3
   1c1a6:	e7b9      	b.n	1c11c <sp_prime_is_prime+0x5c>
   1c1a8:	3701      	adds	r7, #1
   1c1aa:	f5b7 7f80 	cmp.w	r7, #256	; 0x100
   1c1ae:	d1ba      	bne.n	1c126 <sp_prime_is_prime+0x66>
   1c1b0:	4683      	mov	fp, r0
   1c1b2:	e7c6      	b.n	1c142 <sp_prime_is_prime+0x82>
   1c1b4:	682f      	ldr	r7, [r5, #0]
   1c1b6:	007f      	lsls	r7, r7, #1
   1c1b8:	1c79      	adds	r1, r7, #1
   1c1ba:	3703      	adds	r7, #3
   1c1bc:	eb00 0987 	add.w	r9, r0, r7, lsl #2
   1c1c0:	6041      	str	r1, [r0, #4]
   1c1c2:	eb09 0787 	add.w	r7, r9, r7, lsl #2
   1c1c6:	f8c9 1004 	str.w	r1, [r9, #4]
   1c1ca:	6079      	str	r1, [r7, #4]
   1c1cc:	f7fe ff7a 	bl	1b0c4 <sp_init_size>
   1c1d0:	6829      	ldr	r1, [r5, #0]
   1c1d2:	4648      	mov	r0, r9
   1c1d4:	0049      	lsls	r1, r1, #1
   1c1d6:	3101      	adds	r1, #1
   1c1d8:	f7fe ff74 	bl	1b0c4 <sp_init_size>
   1c1dc:	6829      	ldr	r1, [r5, #0]
   1c1de:	4638      	mov	r0, r7
   1c1e0:	0049      	lsls	r1, r1, #1
   1c1e2:	3101      	adds	r1, #1
   1c1e4:	f7fe ff6e 	bl	1b0c4 <sp_init_size>
   1c1e8:	4653      	mov	r3, sl
   1c1ea:	4632      	mov	r2, r6
   1c1ec:	e9cd 9700 	strd	r9, r7, [sp]
   1c1f0:	4641      	mov	r1, r8
   1c1f2:	4628      	mov	r0, r5
   1c1f4:	f7ff fe78 	bl	1bee8 <sp_prime_miller_rabin_ex>
   1c1f8:	4683      	mov	fp, r0
   1c1fa:	4650      	mov	r0, sl
   1c1fc:	f7fe ffa7 	bl	1b14e <sp_clear>
   1c200:	4648      	mov	r0, r9
   1c202:	f7fe ffa4 	bl	1b14e <sp_clear>
   1c206:	4638      	mov	r0, r7
   1c208:	f7fe ffa1 	bl	1b14e <sp_clear>
   1c20c:	4650      	mov	r0, sl
   1c20e:	f7f4 e902 	blx	10414 <free@plt>
   1c212:	f1bb 0f00 	cmp.w	fp, #0
   1c216:	d1b6      	bne.n	1c186 <sp_prime_is_prime+0xc6>
   1c218:	6833      	ldr	r3, [r6, #0]
   1c21a:	b913      	cbnz	r3, 1c222 <sp_prime_is_prime+0x162>
   1c21c:	f04f 0b00 	mov.w	fp, #0
   1c220:	e7b1      	b.n	1c186 <sp_prime_is_prime+0xc6>
   1c222:	3401      	adds	r4, #1
   1c224:	e79b      	b.n	1c15e <sp_prime_is_prime+0x9e>
   1c226:	f06f 0b01 	mvn.w	fp, #1
   1c22a:	4658      	mov	r0, fp
   1c22c:	b007      	add	sp, #28
   1c22e:	e8bd 8ff0 	ldmia.w	sp!, {r4, r5, r6, r7, r8, r9, sl, fp, pc}
   1c232:	bf00      	nop
   1c234:	0001d1f4 	.word	0x0001d1f4

0001c238 <sp_prime_is_prime_ex>:
   1c238:	e92d 4ff0 	stmdb	sp!, {r4, r5, r6, r7, r8, r9, sl, fp, lr}
   1c23c:	4616      	mov	r6, r2
   1c23e:	4604      	mov	r4, r0
   1c240:	ed2d 8b02 	vpush	{d8}
   1c244:	b08d      	sub	sp, #52	; 0x34
   1c246:	e9cd 1302 	strd	r1, r3, [sp, #8]
   1c24a:	2301      	movs	r3, #1
   1c24c:	9306      	str	r3, [sp, #24]
   1c24e:	b328      	cbz	r0, 1c29c <sp_prime_is_prime_ex+0x64>
   1c250:	b342      	cbz	r2, 1c2a4 <sp_prime_is_prime_ex+0x6c>
   1c252:	9b03      	ldr	r3, [sp, #12]
   1c254:	b353      	cbz	r3, 1c2ac <sp_prime_is_prime_ex+0x74>
   1c256:	6805      	ldr	r5, [r0, #0]
   1c258:	2d01      	cmp	r5, #1
   1c25a:	d12b      	bne.n	1c2b4 <sp_prime_is_prime_ex+0x7c>
   1c25c:	6883      	ldr	r3, [r0, #8]
   1c25e:	2b01      	cmp	r3, #1
   1c260:	f04f 0300 	mov.w	r3, #0
   1c264:	d127      	bne.n	1c2b6 <sp_prime_is_prime_ex+0x7e>
   1c266:	9306      	str	r3, [sp, #24]
   1c268:	431d      	orrs	r5, r3
   1c26a:	d10e      	bne.n	1c28a <sp_prime_is_prime_ex+0x52>
   1c26c:	6822      	ldr	r2, [r4, #0]
   1c26e:	2a01      	cmp	r2, #1
   1c270:	d127      	bne.n	1c2c2 <sp_prime_is_prime_ex+0x8a>
   1c272:	4f79      	ldr	r7, [pc, #484]	; (1c458 <sp_prime_is_prime_ex+0x220>)
   1c274:	462a      	mov	r2, r5
   1c276:	4620      	mov	r0, r4
   1c278:	9304      	str	r3, [sp, #16]
   1c27a:	f857 1b04 	ldr.w	r1, [r7], #4
   1c27e:	f7ff f80c 	bl	1b29a <sp_cmp_d>
   1c282:	9b04      	ldr	r3, [sp, #16]
   1c284:	b9c8      	cbnz	r0, 1c2ba <sp_prime_is_prime_ex+0x82>
   1c286:	2201      	movs	r2, #1
   1c288:	9206      	str	r2, [sp, #24]
   1c28a:	b10e      	cbz	r6, 1c290 <sp_prime_is_prime_ex+0x58>
   1c28c:	9a06      	ldr	r2, [sp, #24]
   1c28e:	6032      	str	r2, [r6, #0]
   1c290:	4618      	mov	r0, r3
   1c292:	b00d      	add	sp, #52	; 0x34
   1c294:	ecbd 8b02 	vpop	{d8}
   1c298:	e8bd 8ff0 	ldmia.w	sp!, {r4, r5, r6, r7, r8, r9, sl, fp, pc}
   1c29c:	f06f 0302 	mvn.w	r3, #2
   1c2a0:	4605      	mov	r5, r0
   1c2a2:	e7e1      	b.n	1c268 <sp_prime_is_prime_ex+0x30>
   1c2a4:	f06f 0302 	mvn.w	r3, #2
   1c2a8:	4615      	mov	r5, r2
   1c2aa:	e7dd      	b.n	1c268 <sp_prime_is_prime_ex+0x30>
   1c2ac:	f06f 0302 	mvn.w	r3, #2
   1c2b0:	9d03      	ldr	r5, [sp, #12]
   1c2b2:	e7d9      	b.n	1c268 <sp_prime_is_prime_ex+0x30>
   1c2b4:	2300      	movs	r3, #0
   1c2b6:	461d      	mov	r5, r3
   1c2b8:	e7d6      	b.n	1c268 <sp_prime_is_prime_ex+0x30>
   1c2ba:	3201      	adds	r2, #1
   1c2bc:	f5b2 7f80 	cmp.w	r2, #256	; 0x100
   1c2c0:	d1d9      	bne.n	1c276 <sp_prime_is_prime_ex+0x3e>
   1c2c2:	4f65      	ldr	r7, [pc, #404]	; (1c458 <sp_prime_is_prime_ex+0x220>)
   1c2c4:	aa07      	add	r2, sp, #28
   1c2c6:	4620      	mov	r0, r4
   1c2c8:	f857 1b04 	ldr.w	r1, [r7], #4
   1c2cc:	f7fe fe1a 	bl	1af04 <sp_mod_d>
   1c2d0:	b918      	cbnz	r0, 1c2da <sp_prime_is_prime_ex+0xa2>
   1c2d2:	9b07      	ldr	r3, [sp, #28]
   1c2d4:	2b00      	cmp	r3, #0
   1c2d6:	f040 80aa 	bne.w	1c42e <sp_prime_is_prime_ex+0x1f6>
   1c2da:	2300      	movs	r3, #0
   1c2dc:	9306      	str	r3, [sp, #24]
   1c2de:	4603      	mov	r3, r0
   1c2e0:	2001      	movs	r0, #1
   1c2e2:	ea53 0200 	orrs.w	r2, r3, r0
   1c2e6:	d1d0      	bne.n	1c28a <sp_prime_is_prime_ex+0x52>
   1c2e8:	4620      	mov	r0, r4
   1c2ea:	2100      	movs	r1, #0
   1c2ec:	f7fe ff73 	bl	1b1d6 <sp_count_bits>
   1c2f0:	1dc3      	adds	r3, r0, #7
   1c2f2:	f04f 0214 	mov.w	r2, #20
   1c2f6:	bf48      	it	mi
   1c2f8:	f100 030e 	addmi.w	r3, r0, #14
   1c2fc:	4683      	mov	fp, r0
   1c2fe:	10db      	asrs	r3, r3, #3
   1c300:	a807      	add	r0, sp, #28
   1c302:	ee08 3a10 	vmov	s16, r3
   1c306:	f7f4 e8b0 	blx	10468 <memset@plt>
   1c30a:	6820      	ldr	r0, [r4, #0]
   1c30c:	2328      	movs	r3, #40	; 0x28
   1c30e:	4358      	muls	r0, r3
   1c310:	303c      	adds	r0, #60	; 0x3c
   1c312:	f7f4 e898 	blx	10444 <malloc@plt>
   1c316:	4605      	mov	r5, r0
   1c318:	2800      	cmp	r0, #0
   1c31a:	f000 8099 	beq.w	1c450 <sp_prime_is_prime_ex+0x218>
   1c31e:	6823      	ldr	r3, [r4, #0]
   1c320:	af07      	add	r7, sp, #28
   1c322:	2001      	movs	r0, #1
   1c324:	9507      	str	r5, [sp, #28]
   1c326:	005b      	lsls	r3, r3, #1
   1c328:	1c59      	adds	r1, r3, #1
   1c32a:	3303      	adds	r3, #3
   1c32c:	009b      	lsls	r3, r3, #2
   1c32e:	6069      	str	r1, [r5, #4]
   1c330:	683a      	ldr	r2, [r7, #0]
   1c332:	3001      	adds	r0, #1
   1c334:	2805      	cmp	r0, #5
   1c336:	441a      	add	r2, r3
   1c338:	f847 2f04 	str.w	r2, [r7, #4]!
   1c33c:	6051      	str	r1, [r2, #4]
   1c33e:	d1f7      	bne.n	1c330 <sp_prime_is_prime_ex+0xf8>
   1c340:	4628      	mov	r0, r5
   1c342:	e9dd 7a08 	ldrd	r7, sl, [sp, #32]
   1c346:	e9dd 980a 	ldrd	r9, r8, [sp, #40]	; 0x28
   1c34a:	f7fe febb 	bl	1b0c4 <sp_init_size>
   1c34e:	6821      	ldr	r1, [r4, #0]
   1c350:	4638      	mov	r0, r7
   1c352:	0049      	lsls	r1, r1, #1
   1c354:	3101      	adds	r1, #1
   1c356:	f7fe feb5 	bl	1b0c4 <sp_init_size>
   1c35a:	6821      	ldr	r1, [r4, #0]
   1c35c:	4650      	mov	r0, sl
   1c35e:	0049      	lsls	r1, r1, #1
   1c360:	3101      	adds	r1, #1
   1c362:	f7fe feaf 	bl	1b0c4 <sp_init_size>
   1c366:	6821      	ldr	r1, [r4, #0]
   1c368:	4648      	mov	r0, r9
   1c36a:	0049      	lsls	r1, r1, #1
   1c36c:	3101      	adds	r1, #1
   1c36e:	f7fe fea9 	bl	1b0c4 <sp_init_size>
   1c372:	6821      	ldr	r1, [r4, #0]
   1c374:	4640      	mov	r0, r8
   1c376:	0049      	lsls	r1, r1, #1
   1c378:	3101      	adds	r1, #1
   1c37a:	f7fe fea3 	bl	1b0c4 <sp_init_size>
   1c37e:	463a      	mov	r2, r7
   1c380:	2102      	movs	r1, #2
   1c382:	4620      	mov	r0, r4
   1c384:	f7fe fca0 	bl	1acc8 <_sp_sub_d>
   1c388:	f00b 031f 	and.w	r3, fp, #31
   1c38c:	f105 0b08 	add.w	fp, r5, #8
   1c390:	9304      	str	r3, [sp, #16]
   1c392:	f04f 33ff 	mov.w	r3, #4294967295
   1c396:	9a04      	ldr	r2, [sp, #16]
   1c398:	4093      	lsls	r3, r2
   1c39a:	43db      	mvns	r3, r3
   1c39c:	9305      	str	r3, [sp, #20]
   1c39e:	9b02      	ldr	r3, [sp, #8]
   1c3a0:	2b00      	cmp	r3, #0
   1c3a2:	dd2e      	ble.n	1c402 <sp_prime_is_prime_ex+0x1ca>
   1c3a4:	ee18 2a10 	vmov	r2, s16
   1c3a8:	4659      	mov	r1, fp
   1c3aa:	9803      	ldr	r0, [sp, #12]
   1c3ac:	f7f4 fd74 	bl	10e98 <wc_RNG_GenerateBlock>
   1c3b0:	4603      	mov	r3, r0
   1c3b2:	bb38      	cbnz	r0, 1c404 <sp_prime_is_prime_ex+0x1cc>
   1c3b4:	6822      	ldr	r2, [r4, #0]
   1c3b6:	9b04      	ldr	r3, [sp, #16]
   1c3b8:	602a      	str	r2, [r5, #0]
   1c3ba:	b153      	cbz	r3, 1c3d2 <sp_prime_is_prime_ex+0x19a>
   1c3bc:	1e53      	subs	r3, r2, #1
   1c3be:	eb05 0282 	add.w	r2, r5, r2, lsl #2
   1c3c2:	9805      	ldr	r0, [sp, #20]
   1c3c4:	6851      	ldr	r1, [r2, #4]
   1c3c6:	4001      	ands	r1, r0
   1c3c8:	6051      	str	r1, [r2, #4]
   1c3ca:	2b00      	cmp	r3, #0
   1c3cc:	da36      	bge.n	1c43c <sp_prime_is_prime_ex+0x204>
   1c3ce:	3301      	adds	r3, #1
   1c3d0:	602b      	str	r3, [r5, #0]
   1c3d2:	2102      	movs	r1, #2
   1c3d4:	4628      	mov	r0, r5
   1c3d6:	f7fe ff60 	bl	1b29a <sp_cmp_d>
   1c3da:	2801      	cmp	r0, #1
   1c3dc:	d1df      	bne.n	1c39e <sp_prime_is_prime_ex+0x166>
   1c3de:	4639      	mov	r1, r7
   1c3e0:	4628      	mov	r0, r5
   1c3e2:	f7fe fc56 	bl	1ac92 <_sp_cmp_abs>
   1c3e6:	3001      	adds	r0, #1
   1c3e8:	d1d9      	bne.n	1c39e <sp_prime_is_prime_ex+0x166>
   1c3ea:	4653      	mov	r3, sl
   1c3ec:	aa06      	add	r2, sp, #24
   1c3ee:	e9cd 9800 	strd	r9, r8, [sp]
   1c3f2:	4629      	mov	r1, r5
   1c3f4:	4620      	mov	r0, r4
   1c3f6:	f7ff fd77 	bl	1bee8 <sp_prime_miller_rabin_ex>
   1c3fa:	4603      	mov	r3, r0
   1c3fc:	b910      	cbnz	r0, 1c404 <sp_prime_is_prime_ex+0x1cc>
   1c3fe:	9b06      	ldr	r3, [sp, #24]
   1c400:	bb13      	cbnz	r3, 1c448 <sp_prime_is_prime_ex+0x210>
   1c402:	2300      	movs	r3, #0
   1c404:	4650      	mov	r0, sl
   1c406:	9302      	str	r3, [sp, #8]
   1c408:	f7fe fea1 	bl	1b14e <sp_clear>
   1c40c:	4648      	mov	r0, r9
   1c40e:	f7fe fe9e 	bl	1b14e <sp_clear>
   1c412:	4640      	mov	r0, r8
   1c414:	f7fe fe9b 	bl	1b14e <sp_clear>
   1c418:	4628      	mov	r0, r5
   1c41a:	f7fe fe98 	bl	1b14e <sp_clear>
   1c41e:	4638      	mov	r0, r7
   1c420:	f7fe fe95 	bl	1b14e <sp_clear>
   1c424:	4628      	mov	r0, r5
   1c426:	f7f3 eff6 	blx	10414 <free@plt>
   1c42a:	9b02      	ldr	r3, [sp, #8]
   1c42c:	e72d      	b.n	1c28a <sp_prime_is_prime_ex+0x52>
   1c42e:	3501      	adds	r5, #1
   1c430:	f5b5 7f80 	cmp.w	r5, #256	; 0x100
   1c434:	f47f af46 	bne.w	1c2c4 <sp_prime_is_prime_ex+0x8c>
   1c438:	4603      	mov	r3, r0
   1c43a:	e752      	b.n	1c2e2 <sp_prime_is_prime_ex+0xaa>
   1c43c:	f85b 2023 	ldr.w	r2, [fp, r3, lsl #2]
   1c440:	2a00      	cmp	r2, #0
   1c442:	d1c4      	bne.n	1c3ce <sp_prime_is_prime_ex+0x196>
   1c444:	3b01      	subs	r3, #1
   1c446:	e7c0      	b.n	1c3ca <sp_prime_is_prime_ex+0x192>
   1c448:	9b02      	ldr	r3, [sp, #8]
   1c44a:	3b01      	subs	r3, #1
   1c44c:	9302      	str	r3, [sp, #8]
   1c44e:	e7a6      	b.n	1c39e <sp_prime_is_prime_ex+0x166>
   1c450:	f06f 0301 	mvn.w	r3, #1
   1c454:	e719      	b.n	1c28a <sp_prime_is_prime_ex+0x52>
   1c456:	bf00      	nop
   1c458:	0001d1f4 	.word	0x0001d1f4

0001c45c <sp_gcd>:
   1c45c:	e92d 47f0 	stmdb	sp!, {r4, r5, r6, r7, r8, r9, sl, lr}
   1c460:	4689      	mov	r9, r1
   1c462:	4690      	mov	r8, r2
   1c464:	4682      	mov	sl, r0
   1c466:	2800      	cmp	r0, #0
   1c468:	f000 80a9 	beq.w	1c5be <sp_gcd+0x162>
   1c46c:	2900      	cmp	r1, #0
   1c46e:	f000 80a6 	beq.w	1c5be <sp_gcd+0x162>
   1c472:	2a00      	cmp	r2, #0
   1c474:	f000 80a3 	beq.w	1c5be <sp_gcd+0x162>
   1c478:	6801      	ldr	r1, [r0, #0]
   1c47a:	29c1      	cmp	r1, #193	; 0xc1
   1c47c:	f300 809f 	bgt.w	1c5be <sp_gcd+0x162>
   1c480:	f8d9 4000 	ldr.w	r4, [r9]
   1c484:	2cc1      	cmp	r4, #193	; 0xc1
   1c486:	f300 809a 	bgt.w	1c5be <sp_gcd+0x162>
   1c48a:	b941      	cbnz	r1, 1c49e <sp_gcd+0x42>
   1c48c:	2c00      	cmp	r4, #0
   1c48e:	f000 8096 	beq.w	1c5be <sp_gcd+0x162>
   1c492:	4611      	mov	r1, r2
   1c494:	4648      	mov	r0, r9
   1c496:	e8bd 47f0 	ldmia.w	sp!, {r4, r5, r6, r7, r8, r9, sl, lr}
   1c49a:	f7fe be77 	b.w	1b18c <sp_copy>
   1c49e:	b90c      	cbnz	r4, 1c4a4 <sp_gcd+0x48>
   1c4a0:	4611      	mov	r1, r2
   1c4a2:	e7f8      	b.n	1c496 <sp_gcd+0x3a>
   1c4a4:	42a1      	cmp	r1, r4
   1c4a6:	bfac      	ite	ge
   1c4a8:	1c4c      	addge	r4, r1, #1
   1c4aa:	3401      	addlt	r4, #1
   1c4ac:	2c00      	cmp	r4, #0
   1c4ae:	d03f      	beq.n	1c530 <sp_gcd+0xd4>
   1c4b0:	200c      	movs	r0, #12
   1c4b2:	4360      	muls	r0, r4
   1c4b4:	3018      	adds	r0, #24
   1c4b6:	f7f3 efc6 	blx	10444 <malloc@plt>
   1c4ba:	4606      	mov	r6, r0
   1c4bc:	2800      	cmp	r0, #0
   1c4be:	d079      	beq.n	1c5b4 <sp_gcd+0x158>
   1c4c0:	6044      	str	r4, [r0, #4]
   1c4c2:	b3bc      	cbz	r4, 1c534 <sp_gcd+0xd8>
   1c4c4:	1ca7      	adds	r7, r4, #2
   1c4c6:	00bf      	lsls	r7, r7, #2
   1c4c8:	19f5      	adds	r5, r6, r7
   1c4ca:	4621      	mov	r1, r4
   1c4cc:	442f      	add	r7, r5
   1c4ce:	4630      	mov	r0, r6
   1c4d0:	606c      	str	r4, [r5, #4]
   1c4d2:	607c      	str	r4, [r7, #4]
   1c4d4:	f7fe fdf6 	bl	1b0c4 <sp_init_size>
   1c4d8:	4628      	mov	r0, r5
   1c4da:	f7fe fdf3 	bl	1b0c4 <sp_init_size>
   1c4de:	4638      	mov	r0, r7
   1c4e0:	f7fe fdf0 	bl	1b0c4 <sp_init_size>
   1c4e4:	4649      	mov	r1, r9
   1c4e6:	4650      	mov	r0, sl
   1c4e8:	f7fe fbd3 	bl	1ac92 <_sp_cmp_abs>
   1c4ec:	3001      	adds	r0, #1
   1c4ee:	4631      	mov	r1, r6
   1c4f0:	d02e      	beq.n	1c550 <sp_gcd+0xf4>
   1c4f2:	4648      	mov	r0, r9
   1c4f4:	f7fe fe4a 	bl	1b18c <sp_copy>
   1c4f8:	f8d9 3000 	ldr.w	r3, [r9]
   1c4fc:	2b01      	cmp	r3, #1
   1c4fe:	d11b      	bne.n	1c538 <sp_gcd+0xdc>
   1c500:	f8d9 1008 	ldr.w	r1, [r9, #8]
   1c504:	f105 0208 	add.w	r2, r5, #8
   1c508:	4650      	mov	r0, sl
   1c50a:	f7fe fcfb 	bl	1af04 <sp_mod_d>
   1c50e:	4604      	mov	r4, r0
   1c510:	b9d0      	cbnz	r0, 1c548 <sp_gcd+0xec>
   1c512:	68ab      	ldr	r3, [r5, #8]
   1c514:	3b00      	subs	r3, #0
   1c516:	bf18      	it	ne
   1c518:	2301      	movne	r3, #1
   1c51a:	602b      	str	r3, [r5, #0]
   1c51c:	f107 0908 	add.w	r9, r7, #8
   1c520:	682b      	ldr	r3, [r5, #0]
   1c522:	bb33      	cbnz	r3, 1c572 <sp_gcd+0x116>
   1c524:	4641      	mov	r1, r8
   1c526:	4630      	mov	r0, r6
   1c528:	f7fe fe30 	bl	1b18c <sp_copy>
   1c52c:	4604      	mov	r4, r0
   1c52e:	e00b      	b.n	1c548 <sp_gcd+0xec>
   1c530:	2024      	movs	r0, #36	; 0x24
   1c532:	e7c0      	b.n	1c4b6 <sp_gcd+0x5a>
   1c534:	270c      	movs	r7, #12
   1c536:	e7c7      	b.n	1c4c8 <sp_gcd+0x6c>
   1c538:	462a      	mov	r2, r5
   1c53a:	4649      	mov	r1, r9
   1c53c:	4650      	mov	r0, sl
   1c53e:	f7ff f926 	bl	1b78e <sp_mod>
   1c542:	4604      	mov	r4, r0
   1c544:	2800      	cmp	r0, #0
   1c546:	d0e9      	beq.n	1c51c <sp_gcd+0xc0>
   1c548:	4630      	mov	r0, r6
   1c54a:	f7f3 ef64 	blx	10414 <free@plt>
   1c54e:	e033      	b.n	1c5b8 <sp_gcd+0x15c>
   1c550:	4650      	mov	r0, sl
   1c552:	f7fe fe1b 	bl	1b18c <sp_copy>
   1c556:	f8da 3000 	ldr.w	r3, [sl]
   1c55a:	2b01      	cmp	r3, #1
   1c55c:	d105      	bne.n	1c56a <sp_gcd+0x10e>
   1c55e:	f105 0208 	add.w	r2, r5, #8
   1c562:	4648      	mov	r0, r9
   1c564:	f8da 1008 	ldr.w	r1, [sl, #8]
   1c568:	e7cf      	b.n	1c50a <sp_gcd+0xae>
   1c56a:	462a      	mov	r2, r5
   1c56c:	4651      	mov	r1, sl
   1c56e:	4648      	mov	r0, r9
   1c570:	e7e5      	b.n	1c53e <sp_gcd+0xe2>
   1c572:	2b01      	cmp	r3, #1
   1c574:	d115      	bne.n	1c5a2 <sp_gcd+0x146>
   1c576:	464a      	mov	r2, r9
   1c578:	4630      	mov	r0, r6
   1c57a:	68a9      	ldr	r1, [r5, #8]
   1c57c:	f7fe fcc2 	bl	1af04 <sp_mod_d>
   1c580:	4604      	mov	r4, r0
   1c582:	2800      	cmp	r0, #0
   1c584:	d1e0      	bne.n	1c548 <sp_gcd+0xec>
   1c586:	68bb      	ldr	r3, [r7, #8]
   1c588:	3b00      	subs	r3, #0
   1c58a:	bf18      	it	ne
   1c58c:	2301      	movne	r3, #1
   1c58e:	603b      	str	r3, [r7, #0]
   1c590:	4631      	mov	r1, r6
   1c592:	4628      	mov	r0, r5
   1c594:	f7fe fdfa 	bl	1b18c <sp_copy>
   1c598:	4629      	mov	r1, r5
   1c59a:	4638      	mov	r0, r7
   1c59c:	f7fe fdf6 	bl	1b18c <sp_copy>
   1c5a0:	e7be      	b.n	1c520 <sp_gcd+0xc4>
   1c5a2:	463a      	mov	r2, r7
   1c5a4:	4629      	mov	r1, r5
   1c5a6:	4630      	mov	r0, r6
   1c5a8:	f7ff f8f1 	bl	1b78e <sp_mod>
   1c5ac:	4604      	mov	r4, r0
   1c5ae:	2800      	cmp	r0, #0
   1c5b0:	d0ee      	beq.n	1c590 <sp_gcd+0x134>
   1c5b2:	e7c9      	b.n	1c548 <sp_gcd+0xec>
   1c5b4:	f06f 0401 	mvn.w	r4, #1
   1c5b8:	4620      	mov	r0, r4
   1c5ba:	e8bd 87f0 	ldmia.w	sp!, {r4, r5, r6, r7, r8, r9, sl, pc}
   1c5be:	f06f 0402 	mvn.w	r4, #2
   1c5c2:	e7f9      	b.n	1c5b8 <sp_gcd+0x15c>

0001c5c4 <gmtime>:
   1c5c4:	493f      	ldr	r1, [pc, #252]	; (1c6c4 <gmtime+0x100>)
   1c5c6:	b5f0      	push	{r4, r5, r6, r7, lr}
   1c5c8:	f44f 6561 	mov.w	r5, #3600	; 0xe10
   1c5cc:	f44f 76c8 	mov.w	r6, #400	; 0x190
   1c5d0:	6802      	ldr	r2, [r0, #0]
   1c5d2:	203c      	movs	r0, #60	; 0x3c
   1c5d4:	fbb2 f3f1 	udiv	r3, r2, r1
   1c5d8:	fb01 2213 	mls	r2, r1, r3, r2
   1c5dc:	493a      	ldr	r1, [pc, #232]	; (1c6c8 <gmtime+0x104>)
   1c5de:	fbb2 f4f0 	udiv	r4, r2, r0
   1c5e2:	fb00 2414 	mls	r4, r0, r4, r2
   1c5e6:	600c      	str	r4, [r1, #0]
   1c5e8:	fbb2 f4f5 	udiv	r4, r2, r5
   1c5ec:	fb05 2214 	mls	r2, r5, r4, r2
   1c5f0:	fbb2 f2f0 	udiv	r2, r2, r0
   1c5f4:	1d18      	adds	r0, r3, #4
   1c5f6:	e9c1 2401 	strd	r2, r4, [r1, #4]
   1c5fa:	2207      	movs	r2, #7
   1c5fc:	2464      	movs	r4, #100	; 0x64
   1c5fe:	fbb0 f2f2 	udiv	r2, r0, r2
   1c602:	ebc2 02c2 	rsb	r2, r2, r2, lsl #3
   1c606:	1a82      	subs	r2, r0, r2
   1c608:	618a      	str	r2, [r1, #24]
   1c60a:	f240 72b2 	movw	r2, #1970	; 0x7b2
   1c60e:	f012 0503 	ands.w	r5, r2, #3
   1c612:	d109      	bne.n	1c628 <gmtime+0x64>
   1c614:	fb92 f0f4 	sdiv	r0, r2, r4
   1c618:	fb04 2010 	mls	r0, r4, r0, r2
   1c61c:	bb20      	cbnz	r0, 1c668 <gmtime+0xa4>
   1c61e:	fb92 f0f6 	sdiv	r0, r2, r6
   1c622:	fb06 2010 	mls	r0, r6, r0, r2
   1c626:	b1f8      	cbz	r0, 1c668 <gmtime+0xa4>
   1c628:	f5b3 7fb6 	cmp.w	r3, #364	; 0x16c
   1c62c:	d91f      	bls.n	1c66e <gmtime+0xaa>
   1c62e:	f240 106d 	movw	r0, #365	; 0x16d
   1c632:	e001      	b.n	1c638 <gmtime+0x74>
   1c634:	f44f 70b7 	mov.w	r0, #366	; 0x16e
   1c638:	1a1b      	subs	r3, r3, r0
   1c63a:	3201      	adds	r2, #1
   1c63c:	e7e7      	b.n	1c60e <gmtime+0x4a>
   1c63e:	b95d      	cbnz	r5, 1c658 <gmtime+0x94>
   1c640:	b967      	cbnz	r7, 1c65c <gmtime+0x98>
   1c642:	fab2 f482 	clz	r4, r2
   1c646:	0964      	lsrs	r4, r4, #5
   1c648:	fb0e 0404 	mla	r4, lr, r4, r0
   1c64c:	2601      	movs	r6, #1
   1c64e:	3001      	adds	r0, #1
   1c650:	f85c 4024 	ldr.w	r4, [ip, r4, lsl #2]
   1c654:	1b1b      	subs	r3, r3, r4
   1c656:	e020      	b.n	1c69a <gmtime+0xd6>
   1c658:	2400      	movs	r4, #0
   1c65a:	e7f5      	b.n	1c648 <gmtime+0x84>
   1c65c:	2401      	movs	r4, #1
   1c65e:	e7f3      	b.n	1c648 <gmtime+0x84>
   1c660:	2400      	movs	r4, #0
   1c662:	e021      	b.n	1c6a8 <gmtime+0xe4>
   1c664:	2401      	movs	r4, #1
   1c666:	e01f      	b.n	1c6a8 <gmtime+0xe4>
   1c668:	f5b3 7fb7 	cmp.w	r3, #366	; 0x16e
   1c66c:	d2e2      	bcs.n	1c634 <gmtime+0x70>
   1c66e:	2464      	movs	r4, #100	; 0x64
   1c670:	f2a2 706c 	subw	r0, r2, #1900	; 0x76c
   1c674:	f8df c054 	ldr.w	ip, [pc, #84]	; 1c6cc <gmtime+0x108>
   1c678:	f04f 0e0c 	mov.w	lr, #12
   1c67c:	fbb2 f7f4 	udiv	r7, r2, r4
   1c680:	6148      	str	r0, [r1, #20]
   1c682:	2000      	movs	r0, #0
   1c684:	6108      	str	r0, [r1, #16]
   1c686:	61cb      	str	r3, [r1, #28]
   1c688:	fb04 2717 	mls	r7, r4, r7, r2
   1c68c:	f44f 74c8 	mov.w	r4, #400	; 0x190
   1c690:	fbb2 f6f4 	udiv	r6, r2, r4
   1c694:	fb04 2216 	mls	r2, r4, r6, r2
   1c698:	4606      	mov	r6, r0
   1c69a:	2d00      	cmp	r5, #0
   1c69c:	d1e0      	bne.n	1c660 <gmtime+0x9c>
   1c69e:	2f00      	cmp	r7, #0
   1c6a0:	d1e0      	bne.n	1c664 <gmtime+0xa0>
   1c6a2:	fab2 f482 	clz	r4, r2
   1c6a6:	0964      	lsrs	r4, r4, #5
   1c6a8:	fb0e 0404 	mla	r4, lr, r4, r0
   1c6ac:	f85c 4024 	ldr.w	r4, [ip, r4, lsl #2]
   1c6b0:	429c      	cmp	r4, r3
   1c6b2:	d9c4      	bls.n	1c63e <gmtime+0x7a>
   1c6b4:	b106      	cbz	r6, 1c6b8 <gmtime+0xf4>
   1c6b6:	6108      	str	r0, [r1, #16]
   1c6b8:	3301      	adds	r3, #1
   1c6ba:	4803      	ldr	r0, [pc, #12]	; (1c6c8 <gmtime+0x104>)
   1c6bc:	60cb      	str	r3, [r1, #12]
   1c6be:	2300      	movs	r3, #0
   1c6c0:	620b      	str	r3, [r1, #32]
   1c6c2:	bdf0      	pop	{r4, r5, r6, r7, pc}
   1c6c4:	00015180 	.word	0x00015180
   1c6c8:	0002e050 	.word	0x0002e050
   1c6cc:	0001d5f4 	.word	0x0001d5f4

0001c6d0 <get_digit_count>:
   1c6d0:	b100      	cbz	r0, 1c6d4 <get_digit_count+0x4>
   1c6d2:	6800      	ldr	r0, [r0, #0]
   1c6d4:	4770      	bx	lr

0001c6d6 <get_rand_digit>:
   1c6d6:	2204      	movs	r2, #4
   1c6d8:	f7f4 bbde 	b.w	10e98 <wc_RNG_GenerateBlock>

0001c6dc <mp_rand>:
   1c6dc:	b570      	push	{r4, r5, r6, lr}
   1c6de:	4605      	mov	r5, r0
   1c6e0:	4616      	mov	r6, r2
   1c6e2:	b1e2      	cbz	r2, 1c71e <mp_rand+0x42>
   1c6e4:	b1f0      	cbz	r0, 1c724 <mp_rand+0x48>
   1c6e6:	b1e9      	cbz	r1, 1c724 <mp_rand+0x48>
   1c6e8:	29c2      	cmp	r1, #194	; 0xc2
   1c6ea:	dc1b      	bgt.n	1c724 <mp_rand+0x48>
   1c6ec:	4603      	mov	r3, r0
   1c6ee:	008a      	lsls	r2, r1, #2
   1c6f0:	4630      	mov	r0, r6
   1c6f2:	f843 1b08 	str.w	r1, [r3], #8
   1c6f6:	4619      	mov	r1, r3
   1c6f8:	f7f4 fbce 	bl	10e98 <wc_RNG_GenerateBlock>
   1c6fc:	4604      	mov	r4, r0
   1c6fe:	b138      	cbz	r0, 1c710 <mp_rand+0x34>
   1c700:	4620      	mov	r0, r4
   1c702:	bd70      	pop	{r4, r5, r6, pc}
   1c704:	eb05 0181 	add.w	r1, r5, r1, lsl #2
   1c708:	4630      	mov	r0, r6
   1c70a:	f7ff ffe4 	bl	1c6d6 <get_rand_digit>
   1c70e:	b960      	cbnz	r0, 1c72a <mp_rand+0x4e>
   1c710:	6829      	ldr	r1, [r5, #0]
   1c712:	3101      	adds	r1, #1
   1c714:	f855 3021 	ldr.w	r3, [r5, r1, lsl #2]
   1c718:	2b00      	cmp	r3, #0
   1c71a:	d0f3      	beq.n	1c704 <mp_rand+0x28>
   1c71c:	e7f0      	b.n	1c700 <mp_rand+0x24>
   1c71e:	f06f 04eb 	mvn.w	r4, #235	; 0xeb
   1c722:	e7ed      	b.n	1c700 <mp_rand+0x24>
   1c724:	f06f 04ac 	mvn.w	r4, #172	; 0xac
   1c728:	e7ea      	b.n	1c700 <mp_rand+0x24>
   1c72a:	4604      	mov	r4, r0
   1c72c:	e7e8      	b.n	1c700 <mp_rand+0x24>
	...

0001c730 <__aeabi_uldivmod>:
   1c730:	e3530000 	cmp	r3, #0
   1c734:	03520000 	cmpeq	r2, #0
   1c738:	1a000004 	bne	1c750 <__aeabi_uldivmod+0x20>
   1c73c:	e3510000 	cmp	r1, #0
   1c740:	03500000 	cmpeq	r0, #0
   1c744:	13e01000 	mvnne	r1, #0
   1c748:	13e00000 	mvnne	r0, #0
   1c74c:	ea000006 	b	1c76c <__aeabi_idiv0>
   1c750:	e24dd008 	sub	sp, sp, #8
   1c754:	e92d6000 	push	{sp, lr}
   1c758:	eb000007 	bl	1c77c <__udivmoddi4>
   1c75c:	e59de004 	ldr	lr, [sp, #4]
   1c760:	e28dd008 	add	sp, sp, #8
   1c764:	e8bd000c 	pop	{r2, r3}
   1c768:	e12fff1e 	bx	lr

0001c76c <__aeabi_idiv0>:
   1c76c:	e92d4002 	push	{r1, lr}
   1c770:	e3a00008 	mov	r0, #8
   1c774:	ebffcf20 	bl	103fc <raise@plt>
   1c778:	e8bd8002 	pop	{r1, pc}

0001c77c <__udivmoddi4>:
   1c77c:	e1500002 	cmp	r0, r2
   1c780:	e0d1c003 	sbcs	ip, r1, r3
   1c784:	e92d43f0 	push	{r4, r5, r6, r7, r8, r9, lr}
   1c788:	33a09000 	movcc	r9, #0
   1c78c:	e59d601c 	ldr	r6, [sp, #28]
   1c790:	31a05009 	movcc	r5, r9
   1c794:	3a00003b 	bcc	1c888 <__udivmoddi4+0x10c>
   1c798:	e3530000 	cmp	r3, #0
   1c79c:	016fef12 	clzeq	lr, r2
   1c7a0:	116fef13 	clzne	lr, r3
   1c7a4:	028ee020 	addeq	lr, lr, #32
   1c7a8:	e3510000 	cmp	r1, #0
   1c7ac:	016fcf10 	clzeq	ip, r0
   1c7b0:	028cc020 	addeq	ip, ip, #32
   1c7b4:	116fcf11 	clzne	ip, r1
   1c7b8:	e04ee00c 	sub	lr, lr, ip
   1c7bc:	e24e8020 	sub	r8, lr, #32
   1c7c0:	e1a0ce13 	lsl	ip, r3, lr
   1c7c4:	e26e7020 	rsb	r7, lr, #32
   1c7c8:	e18cc812 	orr	ip, ip, r2, lsl r8
   1c7cc:	e18cc732 	orr	ip, ip, r2, lsr r7
   1c7d0:	e1a02e12 	lsl	r2, r2, lr
   1c7d4:	e1500002 	cmp	r0, r2
   1c7d8:	e0d1300c 	sbcs	r3, r1, ip
   1c7dc:	33a09000 	movcc	r9, #0
   1c7e0:	31a05009 	movcc	r5, r9
   1c7e4:	3a000005 	bcc	1c800 <__udivmoddi4+0x84>
   1c7e8:	e3a09001 	mov	r9, #1
   1c7ec:	e0500002 	subs	r0, r0, r2
   1c7f0:	e1a05819 	lsl	r5, r9, r8
   1c7f4:	e1855739 	orr	r5, r5, r9, lsr r7
   1c7f8:	e1a09e19 	lsl	r9, r9, lr
   1c7fc:	e0c1100c 	sbc	r1, r1, ip
   1c800:	e35e0000 	cmp	lr, #0
   1c804:	0a00001f 	beq	1c888 <__udivmoddi4+0x10c>
   1c808:	e1a030a2 	lsr	r3, r2, #1
   1c80c:	e1833f8c 	orr	r3, r3, ip, lsl #31
   1c810:	e1a0400e 	mov	r4, lr
   1c814:	e1a0c0ac 	lsr	ip, ip, #1
   1c818:	ea000007 	b	1c83c <__udivmoddi4+0xc0>
   1c81c:	e0502003 	subs	r2, r0, r3
   1c820:	e0c1100c 	sbc	r1, r1, ip
   1c824:	e0922002 	adds	r2, r2, r2
   1c828:	e0a11001 	adc	r1, r1, r1
   1c82c:	e2920001 	adds	r0, r2, #1
   1c830:	e2a11000 	adc	r1, r1, #0
   1c834:	e2544001 	subs	r4, r4, #1
   1c838:	0a000006 	beq	1c858 <__udivmoddi4+0xdc>
   1c83c:	e1500003 	cmp	r0, r3
   1c840:	e0d1200c 	sbcs	r2, r1, ip
   1c844:	2afffff4 	bcs	1c81c <__udivmoddi4+0xa0>
   1c848:	e0900000 	adds	r0, r0, r0
   1c84c:	e0a11001 	adc	r1, r1, r1
   1c850:	e2544001 	subs	r4, r4, #1
   1c854:	1afffff8 	bne	1c83c <__udivmoddi4+0xc0>
   1c858:	e0999000 	adds	r9, r9, r0
   1c85c:	e1a00e30 	lsr	r0, r0, lr
   1c860:	e1800711 	orr	r0, r0, r1, lsl r7
   1c864:	e0a55001 	adc	r5, r5, r1
   1c868:	e1800831 	orr	r0, r0, r1, lsr r8
   1c86c:	e1a01e31 	lsr	r1, r1, lr
   1c870:	e1a03e10 	lsl	r3, r0, lr
   1c874:	e1a0ee11 	lsl	lr, r1, lr
   1c878:	e18ee810 	orr	lr, lr, r0, lsl r8
   1c87c:	e18ee730 	orr	lr, lr, r0, lsr r7
   1c880:	e0599003 	subs	r9, r9, r3
   1c884:	e0c5500e 	sbc	r5, r5, lr
   1c888:	e3560000 	cmp	r6, #0
   1c88c:	11c600f0 	strdne	r0, [r6]
   1c890:	e1a00009 	mov	r0, r9
   1c894:	e1a01005 	mov	r1, r5
   1c898:	e8bd83f0 	pop	{r4, r5, r6, r7, r8, r9, pc}

Disassembly of section .fini:

0001c89c <_fini>:
   1c89c:	e92d4008 	push	{r3, lr}
   1c8a0:	e8bd8008 	pop	{r3, pc}
